
vpos_kernel-elf32:     file format elf32-littlearm


Disassembly of section .text:

41000000 <vh_VPOS_STARTUP>:
41000000:	e1a00000 	nop			; (mov r0, r0)
41000004:	e1a00000 	nop			; (mov r0, r0)
41000008:	e1a00000 	nop			; (mov r0, r0)
4100000c:	e1a00000 	nop			; (mov r0, r0)
41000010:	e1a00000 	nop			; (mov r0, r0)
41000014:	e1a00000 	nop			; (mov r0, r0)
41000018:	e1a00000 	nop			; (mov r0, r0)
4100001c:	e1a00000 	nop			; (mov r0, r0)
41000020:	ea00000e 	b	41000060 <vh_VPOS_reset>

41000024 <magicn>:
41000024:	016f2818 	.word	0x016f2818

41000028 <startn>:
41000028:	00000000 	.word	0x00000000

4100002c <endn>:
4100002c:	0000d8fc 	.word	0x0000d8fc
41000030:	e1a00000 	nop			; (mov r0, r0)
41000034:	e1a00000 	nop			; (mov r0, r0)
41000038:	e1a00000 	nop			; (mov r0, r0)
4100003c:	e1a00000 	nop			; (mov r0, r0)

41000040 <vh_vector_start>:
41000040:	ea00054f 	b	41001584 <vk_not_used_handler>
41000044:	ea00002f 	b	41000108 <vk_undef>
41000048:	ea000032 	b	41000118 <vh_software_interrupt>
4100004c:	ea000052 	b	4100019c <vh_pabort>
41000050:	ea00002e 	b	41000110 <vk_dabort>
41000054:	ea00054a 	b	41001584 <vk_not_used_handler>
41000058:	ea000040 	b	41000160 <vh_irq>
4100005c:	ea000540 	b	41001564 <vk_fiq_handler>

41000060 <vh_VPOS_reset>:
41000060:	e3a00000 	mov	r0, #0
41000064:	e58f0248 	str	r0, [pc, #584]	; 410002b4 <vk_save_swi_mode_stack_ptr>
41000068:	e58f0248 	str	r0, [pc, #584]	; 410002b8 <vk_save_swi_current_tcb_bottom>
4100006c:	e58f0248 	str	r0, [pc, #584]	; 410002bc <vk_save_irq_mode_stack_ptr>
41000070:	e58f0248 	str	r0, [pc, #584]	; 410002c0 <vk_save_irq_current_tcb_bottom>
41000074:	e10f0000 	mrs	r0, CPSR
41000078:	e38000c0 	orr	r0, r0, #192	; 0xc0
4100007c:	e129f000 	msr	CPSR_fc, r0
41000080:	e3a00000 	mov	r0, #0
41000084:	ee070f15 	mcr	15, 0, r0, cr7, cr5, {0}
41000088:	ee110f10 	mrc	15, 0, r0, cr1, cr0, {0}
4100008c:	e3c00001 	bic	r0, r0, #1
41000090:	e3c00004 	bic	r0, r0, #4
41000094:	e3c00a01 	bic	r0, r0, #4096	; 0x1000
41000098:	e3c00a02 	bic	r0, r0, #8192	; 0x2000
4100009c:	e3800002 	orr	r0, r0, #2
410000a0:	e3800b02 	orr	r0, r0, #2048	; 0x800
410000a4:	ee010f10 	mcr	15, 0, r0, cr1, cr0, {0}
410000a8:	e59f0220 	ldr	r0, [pc, #544]	; 410002d0 <vk_error_addr+0x4>
410000ac:	ee0c0f10 	mcr	15, 0, r0, cr12, cr0, {0}
410000b0:	e10f0000 	mrs	r0, CPSR
410000b4:	e3c000df 	bic	r0, r0, #223	; 0xdf
410000b8:	e38010db 	orr	r1, r0, #219	; 0xdb
410000bc:	e12ff001 	msr	CPSR_fsxc, r1
410000c0:	e59fd20c 	ldr	sp, [pc, #524]	; 410002d4 <vk_error_addr+0x8>
410000c4:	e38010d7 	orr	r1, r0, #215	; 0xd7
410000c8:	e12ff001 	msr	CPSR_fsxc, r1
410000cc:	e59fd204 	ldr	sp, [pc, #516]	; 410002d8 <vk_error_addr+0xc>
410000d0:	e38010d2 	orr	r1, r0, #210	; 0xd2
410000d4:	e12ff001 	msr	CPSR_fsxc, r1
410000d8:	e59fd1fc 	ldr	sp, [pc, #508]	; 410002dc <vk_error_addr+0x10>
410000dc:	e38010d1 	orr	r1, r0, #209	; 0xd1
410000e0:	e12ff001 	msr	CPSR_fsxc, r1
410000e4:	e59fd1f4 	ldr	sp, [pc, #500]	; 410002e0 <vk_error_addr+0x14>
410000e8:	e3801013 	orr	r1, r0, #19
410000ec:	e12ff001 	msr	CPSR_fsxc, r1
410000f0:	e59fd1ec 	ldr	sp, [pc, #492]	; 410002e4 <vk_error_addr+0x18>
410000f4:	ea000611 	b	41001940 <VPOS_kernel_main>

410000f8 <vt_read_sp>:
410000f8:	e1a0000d 	mov	r0, sp
410000fc:	e1a0f00e 	mov	pc, lr

41000100 <vt_read>:
41000100:	e10f0000 	mrs	r0, CPSR
41000104:	e1a0f00e 	mov	pc, lr

41000108 <vk_undef>:
41000108:	e58fe1bc 	str	lr, [pc, #444]	; 410002cc <vk_error_addr>
4100010c:	ea0004ca 	b	4100143c <vk_undef_handler>

41000110 <vk_dabort>:
41000110:	e58fe1b4 	str	lr, [pc, #436]	; 410002cc <vk_error_addr>
41000114:	ea0004ea 	b	410014c4 <vk_dabort_handler>

41000118 <vh_software_interrupt>:
41000118:	e58fd194 	str	sp, [pc, #404]	; 410002b4 <vk_save_swi_mode_stack_ptr>
4100011c:	e52de004 	push	{lr}		; (str lr, [sp, #-4]!)
41000120:	e92d2000 	stmfd	sp!, {sp}
41000124:	e92d1fff 	push	{r0, r1, r2, r3, r4, r5, r6, r7, r8, r9, sl, fp, ip}
41000128:	e14f0000 	mrs	r0, SPSR
4100012c:	e92d4001 	push	{r0, lr}
41000130:	e10f0000 	mrs	r0, CPSR
41000134:	e38000c0 	orr	r0, r0, #192	; 0xc0
41000138:	e129f000 	msr	CPSR_fc, r0
4100013c:	e58fd174 	str	sp, [pc, #372]	; 410002b8 <vk_save_swi_current_tcb_bottom>
41000140:	e59d0008 	ldr	r0, [sp, #8]
41000144:	eb000525 	bl	410015e0 <vk_swi_classifier>

41000148 <vh_leaving_swi>:
41000148:	e8bd4001 	pop	{r0, lr}
4100014c:	e169f000 	msr	SPSR_fc, r0
41000150:	e8bd1fff 	pop	{r0, r1, r2, r3, r4, r5, r6, r7, r8, r9, sl, fp, ip}
41000154:	e49dd004 	pop	{sp}		; (ldr sp, [sp], #4)
41000158:	e49de004 	pop	{lr}		; (ldr lr, [sp], #4)
4100015c:	e1b0f00e 	movs	pc, lr

41000160 <vh_irq>:
41000160:	e24ee004 	sub	lr, lr, #4
41000164:	e58fd150 	str	sp, [pc, #336]	; 410002bc <vk_save_irq_mode_stack_ptr>
41000168:	e52de004 	push	{lr}		; (str lr, [sp, #-4]!)
4100016c:	e92d2000 	stmfd	sp!, {sp}
41000170:	e92d1fff 	push	{r0, r1, r2, r3, r4, r5, r6, r7, r8, r9, sl, fp, ip}
41000174:	e14f0000 	mrs	r0, SPSR
41000178:	e92d4001 	push	{r0, lr}
4100017c:	e58fd13c 	str	sp, [pc, #316]	; 410002c0 <vk_save_irq_current_tcb_bottom>
41000180:	eb0004df 	bl	41001504 <vk_irq_handler>

41000184 <vh_leaving_irq>:
41000184:	e8bd4001 	pop	{r0, lr}
41000188:	e16ff000 	msr	SPSR_fsxc, r0
4100018c:	e8bd1fff 	pop	{r0, r1, r2, r3, r4, r5, r6, r7, r8, r9, sl, fp, ip}
41000190:	e49dd004 	pop	{sp}		; (ldr sp, [sp], #4)
41000194:	e49de004 	pop	{lr}		; (ldr lr, [sp], #4)
41000198:	e1b0f00e 	movs	pc, lr

4100019c <vh_pabort>:
4100019c:	e59fd134 	ldr	sp, [pc, #308]	; 410002d8 <vk_error_addr+0xc>
410001a0:	e24ee004 	sub	lr, lr, #4
410001a4:	e58fd118 	str	sp, [pc, #280]	; 410002c4 <vk_save_pabort_stack_ptr>
410001a8:	e92d7fff 	push	{r0, r1, r2, r3, r4, r5, r6, r7, r8, r9, sl, fp, ip, sp, lr}
410001ac:	e14f0000 	mrs	r0, SPSR
410001b0:	e92d4001 	push	{r0, lr}
410001b4:	e58fd10c 	str	sp, [pc, #268]	; 410002c8 <vk_save_pabort_current_tcb_bottom>
410001b8:	eb0004af 	bl	4100147c <vk_pabort_handler>

410001bc <vh_leaving_pabort>:
410001bc:	e8bd4001 	pop	{r0, lr}
410001c0:	e169f000 	msr	SPSR_fc, r0
410001c4:	e8bd1fff 	pop	{r0, r1, r2, r3, r4, r5, r6, r7, r8, r9, sl, fp, ip}
410001c8:	e49dd004 	pop	{sp}		; (ldr sp, [sp], #4)
410001cc:	e49de004 	pop	{lr}		; (ldr lr, [sp], #4)
410001d0:	e1b0f00e 	movs	pc, lr

410001d4 <vh_restore_thread_ctx>:
410001d4:	e1a0d000 	mov	sp, r0
410001d8:	e8bd4001 	pop	{r0, lr}
410001dc:	e169f000 	msr	SPSR_fc, r0
410001e0:	e8bd1fff 	pop	{r0, r1, r2, r3, r4, r5, r6, r7, r8, r9, sl, fp, ip}
410001e4:	e49dd004 	pop	{sp}		; (ldr sp, [sp], #4)
410001e8:	e49de004 	pop	{lr}		; (ldr lr, [sp], #4)
410001ec:	e59fd0c0 	ldr	sp, [pc, #192]	; 410002b4 <vk_save_swi_mode_stack_ptr>
410001f0:	e1b0f00e 	movs	pc, lr

410001f4 <vr_save_thread_ctx>:
410001f4:	e59f20cc 	ldr	r2, [pc, #204]	; 410002c8 <vk_save_pabort_current_tcb_bottom>
410001f8:	ea00000a 	b	41000228 <vh_save_ctx_bottom>

410001fc <vh_change_ctx>:
410001fc:	e1a02000 	mov	r2, r0
41000200:	e59f00b0 	ldr	r0, [pc, #176]	; 410002b8 <vk_save_swi_current_tcb_bottom>
41000204:	ea000007 	b	41000228 <vh_save_ctx_bottom>

41000208 <vh_save_thread_ctx>:
41000208:	e10f1000 	mrs	r1, CPSR
4100020c:	e201100f 	and	r1, r1, #15
41000210:	e3a02002 	mov	r2, #2
41000214:	e1510002 	cmp	r1, r2
41000218:	059f20a0 	ldreq	r2, [pc, #160]	; 410002c0 <vk_save_irq_current_tcb_bottom>
4100021c:	159f10c4 	ldrne	r1, [pc, #196]	; 410002e8 <vk_error_addr+0x1c>
41000220:	15912000 	ldrne	r2, [r1]
41000224:	eaffffff 	b	41000228 <vh_save_ctx_bottom>

41000228 <vh_save_ctx_bottom>:
41000228:	e4921004 	ldr	r1, [r2], #4
4100022c:	e4801004 	str	r1, [r0], #4
41000230:	e4921004 	ldr	r1, [r2], #4
41000234:	e4801004 	str	r1, [r0], #4
41000238:	e4921004 	ldr	r1, [r2], #4
4100023c:	e4801004 	str	r1, [r0], #4
41000240:	e4921004 	ldr	r1, [r2], #4
41000244:	e4801004 	str	r1, [r0], #4
41000248:	e4921004 	ldr	r1, [r2], #4
4100024c:	e4801004 	str	r1, [r0], #4
41000250:	e4921004 	ldr	r1, [r2], #4
41000254:	e4801004 	str	r1, [r0], #4
41000258:	e4921004 	ldr	r1, [r2], #4
4100025c:	e4801004 	str	r1, [r0], #4
41000260:	e4921004 	ldr	r1, [r2], #4
41000264:	e4801004 	str	r1, [r0], #4
41000268:	e4921004 	ldr	r1, [r2], #4
4100026c:	e4801004 	str	r1, [r0], #4
41000270:	e4921004 	ldr	r1, [r2], #4
41000274:	e4801004 	str	r1, [r0], #4
41000278:	e4921004 	ldr	r1, [r2], #4
4100027c:	e4801004 	str	r1, [r0], #4
41000280:	e4921004 	ldr	r1, [r2], #4
41000284:	e4801004 	str	r1, [r0], #4
41000288:	e4921004 	ldr	r1, [r2], #4
4100028c:	e4801004 	str	r1, [r0], #4
41000290:	e4921004 	ldr	r1, [r2], #4
41000294:	e4801004 	str	r1, [r0], #4
41000298:	e4921004 	ldr	r1, [r2], #4
4100029c:	e4801004 	str	r1, [r0], #4
410002a0:	e4921004 	ldr	r1, [r2], #4
410002a4:	e4801004 	str	r1, [r0], #4
410002a8:	e4921004 	ldr	r1, [r2], #4
410002ac:	e4801004 	str	r1, [r0], #4
410002b0:	e1a0f00e 	mov	pc, lr

410002b4 <vk_save_swi_mode_stack_ptr>:
410002b4:	00000000 	.word	0x00000000

410002b8 <vk_save_swi_current_tcb_bottom>:
410002b8:	00000000 	.word	0x00000000

410002bc <vk_save_irq_mode_stack_ptr>:
410002bc:	00000000 	.word	0x00000000

410002c0 <vk_save_irq_current_tcb_bottom>:
410002c0:	00000000 	.word	0x00000000

410002c4 <vk_save_pabort_stack_ptr>:
410002c4:	00000000 	.word	0x00000000

410002c8 <vk_save_pabort_current_tcb_bottom>:
410002c8:	00000000 	.word	0x00000000

410002cc <vk_error_addr>:
410002cc:	00000000 	.word	0x00000000
410002d0:	41000040 	.word	0x41000040
410002d4:	41e00000 	.word	0x41e00000
410002d8:	41d00000 	.word	0x41d00000
410002dc:	41c00000 	.word	0x41c00000
410002e0:	41f00000 	.word	0x41f00000
410002e4:	41b00000 	.word	0x41b00000
410002e8:	410ffddc 	.word	0x410ffddc

410002ec <pthread_barrier_init>:
410002ec:	e1a0c00d 	mov	ip, sp
410002f0:	e92dd800 	push	{fp, ip, lr, pc}
410002f4:	e24cb004 	sub	fp, ip, #4
410002f8:	e24dd018 	sub	sp, sp, #24
410002fc:	e50b0018 	str	r0, [fp, #-24]	; 0xffffffe8
41000300:	e50b101c 	str	r1, [fp, #-28]	; 0xffffffe4
41000304:	e50b2020 	str	r2, [fp, #-32]	; 0xffffffe0
41000308:	e3a00020 	mov	r0, #32
4100030c:	eb0006fa 	bl	41001efc <malloc>
41000310:	e1a03000 	mov	r3, r0
41000314:	e50b3010 	str	r3, [fp, #-16]
41000318:	e51b2018 	ldr	r2, [fp, #-24]	; 0xffffffe8
4100031c:	e51b3010 	ldr	r3, [fp, #-16]
41000320:	e5823000 	str	r3, [r2]
41000324:	e51b3018 	ldr	r3, [fp, #-24]	; 0xffffffe8
41000328:	e5932000 	ldr	r2, [r3]
4100032c:	e51b3020 	ldr	r3, [fp, #-32]	; 0xffffffe0
41000330:	e5823008 	str	r3, [r2, #8]
41000334:	e51b3018 	ldr	r3, [fp, #-24]	; 0xffffffe8
41000338:	e5932000 	ldr	r2, [r3]
4100033c:	e3a03000 	mov	r3, #0
41000340:	e582300c 	str	r3, [r2, #12]
41000344:	e51b3018 	ldr	r3, [fp, #-24]	; 0xffffffe8
41000348:	e5932000 	ldr	r2, [r3]
4100034c:	e3a03000 	mov	r3, #0
41000350:	e5823010 	str	r3, [r2, #16]
41000354:	e51b3018 	ldr	r3, [fp, #-24]	; 0xffffffe8
41000358:	e5932000 	ldr	r2, [r3]
4100035c:	e3a03000 	mov	r3, #0
41000360:	e5823014 	str	r3, [r2, #20]
41000364:	e51b3018 	ldr	r3, [fp, #-24]	; 0xffffffe8
41000368:	e5932000 	ldr	r2, [r3]
4100036c:	e3a03000 	mov	r3, #0
41000370:	e5823018 	str	r3, [r2, #24]
41000374:	e51b3018 	ldr	r3, [fp, #-24]	; 0xffffffe8
41000378:	e5932000 	ldr	r2, [r3]
4100037c:	e3a03000 	mov	r3, #0
41000380:	e582301c 	str	r3, [r2, #28]
41000384:	e3a03000 	mov	r3, #0
41000388:	e1a00003 	mov	r0, r3
4100038c:	e24bd00c 	sub	sp, fp, #12
41000390:	e89da800 	ldm	sp, {fp, sp, pc}

41000394 <pthread_barrier_destroy>:
41000394:	e1a0c00d 	mov	ip, sp
41000398:	e92dd800 	push	{fp, ip, lr, pc}
4100039c:	e24cb004 	sub	fp, ip, #4
410003a0:	e24dd008 	sub	sp, sp, #8
410003a4:	e50b0010 	str	r0, [fp, #-16]
410003a8:	eb00168f 	bl	41005dec <vk_scheduler_lock>
410003ac:	e51b3010 	ldr	r3, [fp, #-16]
410003b0:	e5932000 	ldr	r2, [r3]
410003b4:	e3a03000 	mov	r3, #0
410003b8:	e582300c 	str	r3, [r2, #12]
410003bc:	e51b3010 	ldr	r3, [fp, #-16]
410003c0:	e5932000 	ldr	r2, [r3]
410003c4:	e3a03000 	mov	r3, #0
410003c8:	e5823010 	str	r3, [r2, #16]
410003cc:	e51b3010 	ldr	r3, [fp, #-16]
410003d0:	e5932000 	ldr	r2, [r3]
410003d4:	e3a03000 	mov	r3, #0
410003d8:	e5823014 	str	r3, [r2, #20]
410003dc:	e51b3010 	ldr	r3, [fp, #-16]
410003e0:	e5932000 	ldr	r2, [r3]
410003e4:	e3a03000 	mov	r3, #0
410003e8:	e5823018 	str	r3, [r2, #24]
410003ec:	e51b3010 	ldr	r3, [fp, #-16]
410003f0:	e5932000 	ldr	r2, [r3]
410003f4:	e3a03000 	mov	r3, #0
410003f8:	e582301c 	str	r3, [r2, #28]
410003fc:	e51b3010 	ldr	r3, [fp, #-16]
41000400:	e5933000 	ldr	r3, [r3]
41000404:	e1a00003 	mov	r0, r3
41000408:	eb00064b 	bl	41001d3c <vk_free>
4100040c:	eb001690 	bl	41005e54 <vk_scheduler_unlock>
41000410:	e3a03000 	mov	r3, #0
41000414:	e1a00003 	mov	r0, r3
41000418:	e24bd00c 	sub	sp, fp, #12
4100041c:	e89da800 	ldm	sp, {fp, sp, pc}

41000420 <pthread_barrier_wait>:
41000420:	e1a0c00d 	mov	ip, sp
41000424:	e92dd800 	push	{fp, ip, lr, pc}
41000428:	e24cb004 	sub	fp, ip, #4
4100042c:	e24dd018 	sub	sp, sp, #24
41000430:	e59f233c 	ldr	r2, [pc, #828]	; 41000774 <pthread_barrier_wait+0x354>
41000434:	e50b2020 	str	r2, [fp, #-32]	; 0xffffffe0
41000438:	e51b3020 	ldr	r3, [fp, #-32]	; 0xffffffe0
4100043c:	e08f3003 	add	r3, pc, r3
41000440:	e50b3020 	str	r3, [fp, #-32]	; 0xffffffe0
41000444:	e50b0018 	str	r0, [fp, #-24]	; 0xffffffe8
41000448:	eb001667 	bl	41005dec <vk_scheduler_lock>
4100044c:	e51b3018 	ldr	r3, [fp, #-24]	; 0xffffffe8
41000450:	e5933000 	ldr	r3, [r3]
41000454:	e50b3010 	str	r3, [fp, #-16]
41000458:	e51b3010 	ldr	r3, [fp, #-16]
4100045c:	e5933008 	ldr	r3, [r3, #8]
41000460:	e2432001 	sub	r2, r3, #1
41000464:	e51b3010 	ldr	r3, [fp, #-16]
41000468:	e5832008 	str	r2, [r3, #8]
4100046c:	e51b3010 	ldr	r3, [fp, #-16]
41000470:	e5933008 	ldr	r3, [r3, #8]
41000474:	e3530000 	cmp	r3, #0
41000478:	0a000053 	beq	410005cc <pthread_barrier_wait+0x1ac>
4100047c:	e51b3010 	ldr	r3, [fp, #-16]
41000480:	e593300c 	ldr	r3, [r3, #12]
41000484:	e3530000 	cmp	r3, #0
41000488:	1a000006 	bne	410004a8 <pthread_barrier_wait+0x88>
4100048c:	e59f32e4 	ldr	r3, [pc, #740]	; 41000778 <pthread_barrier_wait+0x358>
41000490:	e51b2020 	ldr	r2, [fp, #-32]	; 0xffffffe0
41000494:	e7923003 	ldr	r3, [r2, r3]
41000498:	e5932000 	ldr	r2, [r3]
4100049c:	e51b3010 	ldr	r3, [fp, #-16]
410004a0:	e583200c 	str	r2, [r3, #12]
410004a4:	ea000033 	b	41000578 <pthread_barrier_wait+0x158>
410004a8:	e51b3010 	ldr	r3, [fp, #-16]
410004ac:	e5933010 	ldr	r3, [r3, #16]
410004b0:	e3530000 	cmp	r3, #0
410004b4:	1a000006 	bne	410004d4 <pthread_barrier_wait+0xb4>
410004b8:	e59f32b8 	ldr	r3, [pc, #696]	; 41000778 <pthread_barrier_wait+0x358>
410004bc:	e51b2020 	ldr	r2, [fp, #-32]	; 0xffffffe0
410004c0:	e7923003 	ldr	r3, [r2, r3]
410004c4:	e5932000 	ldr	r2, [r3]
410004c8:	e51b3010 	ldr	r3, [fp, #-16]
410004cc:	e5832010 	str	r2, [r3, #16]
410004d0:	ea000028 	b	41000578 <pthread_barrier_wait+0x158>
410004d4:	e51b3010 	ldr	r3, [fp, #-16]
410004d8:	e5933014 	ldr	r3, [r3, #20]
410004dc:	e3530000 	cmp	r3, #0
410004e0:	1a000006 	bne	41000500 <pthread_barrier_wait+0xe0>
410004e4:	e59f328c 	ldr	r3, [pc, #652]	; 41000778 <pthread_barrier_wait+0x358>
410004e8:	e51b2020 	ldr	r2, [fp, #-32]	; 0xffffffe0
410004ec:	e7923003 	ldr	r3, [r2, r3]
410004f0:	e5932000 	ldr	r2, [r3]
410004f4:	e51b3010 	ldr	r3, [fp, #-16]
410004f8:	e5832014 	str	r2, [r3, #20]
410004fc:	ea00001d 	b	41000578 <pthread_barrier_wait+0x158>
41000500:	e51b3010 	ldr	r3, [fp, #-16]
41000504:	e5933018 	ldr	r3, [r3, #24]
41000508:	e3530000 	cmp	r3, #0
4100050c:	1a000006 	bne	4100052c <pthread_barrier_wait+0x10c>
41000510:	e59f3260 	ldr	r3, [pc, #608]	; 41000778 <pthread_barrier_wait+0x358>
41000514:	e51b2020 	ldr	r2, [fp, #-32]	; 0xffffffe0
41000518:	e7923003 	ldr	r3, [r2, r3]
4100051c:	e5932000 	ldr	r2, [r3]
41000520:	e51b3010 	ldr	r3, [fp, #-16]
41000524:	e5832018 	str	r2, [r3, #24]
41000528:	ea000012 	b	41000578 <pthread_barrier_wait+0x158>
4100052c:	e51b3010 	ldr	r3, [fp, #-16]
41000530:	e593301c 	ldr	r3, [r3, #28]
41000534:	e3530000 	cmp	r3, #0
41000538:	1a000006 	bne	41000558 <pthread_barrier_wait+0x138>
4100053c:	e59f3234 	ldr	r3, [pc, #564]	; 41000778 <pthread_barrier_wait+0x358>
41000540:	e51b2020 	ldr	r2, [fp, #-32]	; 0xffffffe0
41000544:	e7923003 	ldr	r3, [r2, r3]
41000548:	e5932000 	ldr	r2, [r3]
4100054c:	e51b3010 	ldr	r3, [fp, #-16]
41000550:	e583201c 	str	r2, [r3, #28]
41000554:	ea000007 	b	41000578 <pthread_barrier_wait+0x158>
41000558:	e59f321c 	ldr	r3, [pc, #540]	; 4100077c <pthread_barrier_wait+0x35c>
4100055c:	e51b2020 	ldr	r2, [fp, #-32]	; 0xffffffe0
41000560:	e0823003 	add	r3, r2, r3
41000564:	e1a00003 	mov	r0, r3
41000568:	eb001114 	bl	410049c0 <printk>
4100056c:	e3e03000 	mvn	r3, #0
41000570:	e50b301c 	str	r3, [fp, #-28]	; 0xffffffe4
41000574:	ea00007a 	b	41000764 <pthread_barrier_wait+0x344>
41000578:	e59f31f8 	ldr	r3, [pc, #504]	; 41000778 <pthread_barrier_wait+0x358>
4100057c:	e51b2020 	ldr	r2, [fp, #-32]	; 0xffffffe0
41000580:	e7923003 	ldr	r3, [r2, r3]
41000584:	e5932000 	ldr	r2, [r3]
41000588:	e3a03002 	mov	r3, #2
4100058c:	e5823000 	str	r3, [r2]
41000590:	e59f31e0 	ldr	r3, [pc, #480]	; 41000778 <pthread_barrier_wait+0x358>
41000594:	e51b2020 	ldr	r2, [fp, #-32]	; 0xffffffe0
41000598:	e7923003 	ldr	r3, [r2, r3]
4100059c:	e5933000 	ldr	r3, [r3]
410005a0:	e1a00003 	mov	r0, r3
410005a4:	e59f31d4 	ldr	r3, [pc, #468]	; 41000780 <pthread_barrier_wait+0x360>
410005a8:	e51b2020 	ldr	r2, [fp, #-32]	; 0xffffffe0
410005ac:	e7923003 	ldr	r3, [r2, r3]
410005b0:	e1a01003 	mov	r1, r3
410005b4:	eb0012f1 	bl	41005180 <vk_thread_dequeue>
410005b8:	eb001625 	bl	41005e54 <vk_scheduler_unlock>
410005bc:	eb00046f 	bl	41001780 <vk_swi_scheduler>
410005c0:	e3a03000 	mov	r3, #0
410005c4:	e50b301c 	str	r3, [fp, #-28]	; 0xffffffe4
410005c8:	ea000065 	b	41000764 <pthread_barrier_wait+0x344>
410005cc:	e51b2010 	ldr	r2, [fp, #-16]
410005d0:	e3a03000 	mov	r3, #0
410005d4:	e5823008 	str	r3, [r2, #8]
410005d8:	e51b3010 	ldr	r3, [fp, #-16]
410005dc:	e593300c 	ldr	r3, [r3, #12]
410005e0:	e3530000 	cmp	r3, #0
410005e4:	0a00000e 	beq	41000624 <pthread_barrier_wait+0x204>
410005e8:	e51b3010 	ldr	r3, [fp, #-16]
410005ec:	e593200c 	ldr	r2, [r3, #12]
410005f0:	e3a03001 	mov	r3, #1
410005f4:	e5823000 	str	r3, [r2]
410005f8:	e51b3010 	ldr	r3, [fp, #-16]
410005fc:	e593300c 	ldr	r3, [r3, #12]
41000600:	e1a00003 	mov	r0, r3
41000604:	e59f3174 	ldr	r3, [pc, #372]	; 41000780 <pthread_barrier_wait+0x360>
41000608:	e51b2020 	ldr	r2, [fp, #-32]	; 0xffffffe0
4100060c:	e7923003 	ldr	r3, [r2, r3]
41000610:	e1a01003 	mov	r1, r3
41000614:	eb00126b 	bl	41004fc8 <vk_thread_enqueue>
41000618:	e51b2010 	ldr	r2, [fp, #-16]
4100061c:	e3a03000 	mov	r3, #0
41000620:	e582300c 	str	r3, [r2, #12]
41000624:	e51b3010 	ldr	r3, [fp, #-16]
41000628:	e5933010 	ldr	r3, [r3, #16]
4100062c:	e3530000 	cmp	r3, #0
41000630:	0a00000e 	beq	41000670 <pthread_barrier_wait+0x250>
41000634:	e51b3010 	ldr	r3, [fp, #-16]
41000638:	e5932010 	ldr	r2, [r3, #16]
4100063c:	e3a03001 	mov	r3, #1
41000640:	e5823000 	str	r3, [r2]
41000644:	e51b3010 	ldr	r3, [fp, #-16]
41000648:	e5933010 	ldr	r3, [r3, #16]
4100064c:	e1a00003 	mov	r0, r3
41000650:	e59f3128 	ldr	r3, [pc, #296]	; 41000780 <pthread_barrier_wait+0x360>
41000654:	e51b2020 	ldr	r2, [fp, #-32]	; 0xffffffe0
41000658:	e7923003 	ldr	r3, [r2, r3]
4100065c:	e1a01003 	mov	r1, r3
41000660:	eb001258 	bl	41004fc8 <vk_thread_enqueue>
41000664:	e51b2010 	ldr	r2, [fp, #-16]
41000668:	e3a03000 	mov	r3, #0
4100066c:	e5823010 	str	r3, [r2, #16]
41000670:	e51b3010 	ldr	r3, [fp, #-16]
41000674:	e5933014 	ldr	r3, [r3, #20]
41000678:	e3530000 	cmp	r3, #0
4100067c:	0a00000e 	beq	410006bc <pthread_barrier_wait+0x29c>
41000680:	e51b3010 	ldr	r3, [fp, #-16]
41000684:	e5932014 	ldr	r2, [r3, #20]
41000688:	e3a03001 	mov	r3, #1
4100068c:	e5823000 	str	r3, [r2]
41000690:	e51b3010 	ldr	r3, [fp, #-16]
41000694:	e5933014 	ldr	r3, [r3, #20]
41000698:	e1a00003 	mov	r0, r3
4100069c:	e59f30dc 	ldr	r3, [pc, #220]	; 41000780 <pthread_barrier_wait+0x360>
410006a0:	e51b2020 	ldr	r2, [fp, #-32]	; 0xffffffe0
410006a4:	e7923003 	ldr	r3, [r2, r3]
410006a8:	e1a01003 	mov	r1, r3
410006ac:	eb001245 	bl	41004fc8 <vk_thread_enqueue>
410006b0:	e51b2010 	ldr	r2, [fp, #-16]
410006b4:	e3a03000 	mov	r3, #0
410006b8:	e5823014 	str	r3, [r2, #20]
410006bc:	e51b3010 	ldr	r3, [fp, #-16]
410006c0:	e5933018 	ldr	r3, [r3, #24]
410006c4:	e3530000 	cmp	r3, #0
410006c8:	0a00000e 	beq	41000708 <pthread_barrier_wait+0x2e8>
410006cc:	e51b3010 	ldr	r3, [fp, #-16]
410006d0:	e5932018 	ldr	r2, [r3, #24]
410006d4:	e3a03001 	mov	r3, #1
410006d8:	e5823000 	str	r3, [r2]
410006dc:	e51b3010 	ldr	r3, [fp, #-16]
410006e0:	e5933018 	ldr	r3, [r3, #24]
410006e4:	e1a00003 	mov	r0, r3
410006e8:	e59f3090 	ldr	r3, [pc, #144]	; 41000780 <pthread_barrier_wait+0x360>
410006ec:	e51b2020 	ldr	r2, [fp, #-32]	; 0xffffffe0
410006f0:	e7923003 	ldr	r3, [r2, r3]
410006f4:	e1a01003 	mov	r1, r3
410006f8:	eb001232 	bl	41004fc8 <vk_thread_enqueue>
410006fc:	e51b2010 	ldr	r2, [fp, #-16]
41000700:	e3a03000 	mov	r3, #0
41000704:	e5823018 	str	r3, [r2, #24]
41000708:	e51b3010 	ldr	r3, [fp, #-16]
4100070c:	e593301c 	ldr	r3, [r3, #28]
41000710:	e3530000 	cmp	r3, #0
41000714:	0a00000e 	beq	41000754 <pthread_barrier_wait+0x334>
41000718:	e51b3010 	ldr	r3, [fp, #-16]
4100071c:	e593201c 	ldr	r2, [r3, #28]
41000720:	e3a03001 	mov	r3, #1
41000724:	e5823000 	str	r3, [r2]
41000728:	e51b3010 	ldr	r3, [fp, #-16]
4100072c:	e593301c 	ldr	r3, [r3, #28]
41000730:	e1a00003 	mov	r0, r3
41000734:	e59f3044 	ldr	r3, [pc, #68]	; 41000780 <pthread_barrier_wait+0x360>
41000738:	e51b2020 	ldr	r2, [fp, #-32]	; 0xffffffe0
4100073c:	e7923003 	ldr	r3, [r2, r3]
41000740:	e1a01003 	mov	r1, r3
41000744:	eb00121f 	bl	41004fc8 <vk_thread_enqueue>
41000748:	e51b2010 	ldr	r2, [fp, #-16]
4100074c:	e3a03000 	mov	r3, #0
41000750:	e582301c 	str	r3, [r2, #28]
41000754:	eb0015be 	bl	41005e54 <vk_scheduler_unlock>
41000758:	eb000408 	bl	41001780 <vk_swi_scheduler>
4100075c:	e3a03000 	mov	r3, #0
41000760:	e50b301c 	str	r3, [fp, #-28]	; 0xffffffe4
41000764:	e51b301c 	ldr	r3, [fp, #-28]	; 0xffffffe4
41000768:	e1a00003 	mov	r0, r3
4100076c:	e24bd00c 	sub	sp, fp, #12
41000770:	e89da800 	ldm	sp, {fp, sp, pc}
41000774:	0000ac3c 	.word	0x0000ac3c
41000778:	000000ac 	.word	0x000000ac
4100077c:	fffff46c 	.word	0xfffff46c
41000780:	0000007c 	.word	0x0000007c

41000784 <pthread_cond_init>:
41000784:	e1a0c00d 	mov	ip, sp
41000788:	e92dd800 	push	{fp, ip, lr, pc}
4100078c:	e24cb004 	sub	fp, ip, #4
41000790:	e24dd010 	sub	sp, sp, #16
41000794:	e50b0018 	str	r0, [fp, #-24]	; 0xffffffe8
41000798:	e50b101c 	str	r1, [fp, #-28]	; 0xffffffe4
4100079c:	e3a00018 	mov	r0, #24
410007a0:	eb0005d5 	bl	41001efc <malloc>
410007a4:	e1a03000 	mov	r3, r0
410007a8:	e50b3010 	str	r3, [fp, #-16]
410007ac:	e51b2010 	ldr	r2, [fp, #-16]
410007b0:	e3a03000 	mov	r3, #0
410007b4:	e582300c 	str	r3, [r2, #12]
410007b8:	e51b2010 	ldr	r2, [fp, #-16]
410007bc:	e3a03000 	mov	r3, #0
410007c0:	e5823010 	str	r3, [r2, #16]
410007c4:	e51b2010 	ldr	r2, [fp, #-16]
410007c8:	e3a03000 	mov	r3, #0
410007cc:	e5823014 	str	r3, [r2, #20]
410007d0:	e51b2018 	ldr	r2, [fp, #-24]	; 0xffffffe8
410007d4:	e51b3010 	ldr	r3, [fp, #-16]
410007d8:	e5823000 	str	r3, [r2]
410007dc:	e3a03000 	mov	r3, #0
410007e0:	e1a00003 	mov	r0, r3
410007e4:	e24bd00c 	sub	sp, fp, #12
410007e8:	e89da800 	ldm	sp, {fp, sp, pc}

410007ec <pthread_cond_destroy>:
410007ec:	e1a0c00d 	mov	ip, sp
410007f0:	e92dd800 	push	{fp, ip, lr, pc}
410007f4:	e24cb004 	sub	fp, ip, #4
410007f8:	e24dd018 	sub	sp, sp, #24
410007fc:	e59f20b4 	ldr	r2, [pc, #180]	; 410008b8 <pthread_cond_destroy+0xcc>
41000800:	e50b2020 	str	r2, [fp, #-32]	; 0xffffffe0
41000804:	e51b3020 	ldr	r3, [fp, #-32]	; 0xffffffe0
41000808:	e08f3003 	add	r3, pc, r3
4100080c:	e50b3020 	str	r3, [fp, #-32]	; 0xffffffe0
41000810:	e50b0018 	str	r0, [fp, #-24]	; 0xffffffe8
41000814:	eb0003c4 	bl	4100172c <vk_disable_interrupt>
41000818:	e51b3018 	ldr	r3, [fp, #-24]	; 0xffffffe8
4100081c:	e5933000 	ldr	r3, [r3]
41000820:	e50b3014 	str	r3, [fp, #-20]	; 0xffffffec
41000824:	e3a03000 	mov	r3, #0
41000828:	e50b3010 	str	r3, [fp, #-16]
4100082c:	ea000015 	b	41000888 <pthread_cond_destroy+0x9c>
41000830:	e51b3010 	ldr	r3, [fp, #-16]
41000834:	e51b1014 	ldr	r1, [fp, #-20]	; 0xffffffec
41000838:	e2833002 	add	r3, r3, #2
4100083c:	e3a02004 	mov	r2, #4
41000840:	e1a03103 	lsl	r3, r3, #2
41000844:	e0813003 	add	r3, r1, r3
41000848:	e0833002 	add	r3, r3, r2
4100084c:	e5933000 	ldr	r3, [r3]
41000850:	e3530000 	cmp	r3, #0
41000854:	0a000008 	beq	4100087c <pthread_cond_destroy+0x90>
41000858:	e59f305c 	ldr	r3, [pc, #92]	; 410008bc <pthread_cond_destroy+0xd0>
4100085c:	e51b2020 	ldr	r2, [fp, #-32]	; 0xffffffe0
41000860:	e0823003 	add	r3, r2, r3
41000864:	e1a00003 	mov	r0, r3
41000868:	eb001054 	bl	410049c0 <printk>
4100086c:	eb000399 	bl	410016d8 <vk_enable_interrupt>
41000870:	e3e03000 	mvn	r3, #0
41000874:	e50b301c 	str	r3, [fp, #-28]	; 0xffffffe4
41000878:	ea00000a 	b	410008a8 <pthread_cond_destroy+0xbc>
4100087c:	e51b3010 	ldr	r3, [fp, #-16]
41000880:	e2833001 	add	r3, r3, #1
41000884:	e50b3010 	str	r3, [fp, #-16]
41000888:	e51b3010 	ldr	r3, [fp, #-16]
4100088c:	e3530002 	cmp	r3, #2
41000890:	9affffe6 	bls	41000830 <pthread_cond_destroy+0x44>
41000894:	e51b0014 	ldr	r0, [fp, #-20]	; 0xffffffec
41000898:	eb000527 	bl	41001d3c <vk_free>
4100089c:	eb00038d 	bl	410016d8 <vk_enable_interrupt>
410008a0:	e3a02001 	mov	r2, #1
410008a4:	e50b201c 	str	r2, [fp, #-28]	; 0xffffffe4
410008a8:	e51b301c 	ldr	r3, [fp, #-28]	; 0xffffffe4
410008ac:	e1a00003 	mov	r0, r3
410008b0:	e24bd00c 	sub	sp, fp, #12
410008b4:	e89da800 	ldm	sp, {fp, sp, pc}
410008b8:	0000a870 	.word	0x0000a870
410008bc:	fffff4a8 	.word	0xfffff4a8

410008c0 <pthread_cond_wait>:
410008c0:	e1a0c00d 	mov	ip, sp
410008c4:	e92dd800 	push	{fp, ip, lr, pc}
410008c8:	e24cb004 	sub	fp, ip, #4
410008cc:	e24dd018 	sub	sp, sp, #24
410008d0:	e59f2138 	ldr	r2, [pc, #312]	; 41000a10 <pthread_cond_wait+0x150>
410008d4:	e50b2024 	str	r2, [fp, #-36]	; 0xffffffdc
410008d8:	e51b3024 	ldr	r3, [fp, #-36]	; 0xffffffdc
410008dc:	e08f3003 	add	r3, pc, r3
410008e0:	e50b3024 	str	r3, [fp, #-36]	; 0xffffffdc
410008e4:	e50b0018 	str	r0, [fp, #-24]	; 0xffffffe8
410008e8:	e50b101c 	str	r1, [fp, #-28]	; 0xffffffe4
410008ec:	eb00153e 	bl	41005dec <vk_scheduler_lock>
410008f0:	e51b3018 	ldr	r3, [fp, #-24]	; 0xffffffe8
410008f4:	e5933000 	ldr	r3, [r3]
410008f8:	e50b3010 	str	r3, [fp, #-16]
410008fc:	e51b3010 	ldr	r3, [fp, #-16]
41000900:	e593300c 	ldr	r3, [r3, #12]
41000904:	e3530000 	cmp	r3, #0
41000908:	1a000006 	bne	41000928 <pthread_cond_wait+0x68>
4100090c:	e59f3100 	ldr	r3, [pc, #256]	; 41000a14 <pthread_cond_wait+0x154>
41000910:	e51b2024 	ldr	r2, [fp, #-36]	; 0xffffffdc
41000914:	e7923003 	ldr	r3, [r2, r3]
41000918:	e5932000 	ldr	r2, [r3]
4100091c:	e51b3010 	ldr	r3, [fp, #-16]
41000920:	e583200c 	str	r2, [r3, #12]
41000924:	ea00001d 	b	410009a0 <pthread_cond_wait+0xe0>
41000928:	e51b3010 	ldr	r3, [fp, #-16]
4100092c:	e5933010 	ldr	r3, [r3, #16]
41000930:	e3530000 	cmp	r3, #0
41000934:	1a000006 	bne	41000954 <pthread_cond_wait+0x94>
41000938:	e59f30d4 	ldr	r3, [pc, #212]	; 41000a14 <pthread_cond_wait+0x154>
4100093c:	e51b2024 	ldr	r2, [fp, #-36]	; 0xffffffdc
41000940:	e7923003 	ldr	r3, [r2, r3]
41000944:	e5932000 	ldr	r2, [r3]
41000948:	e51b3010 	ldr	r3, [fp, #-16]
4100094c:	e5832010 	str	r2, [r3, #16]
41000950:	ea000012 	b	410009a0 <pthread_cond_wait+0xe0>
41000954:	e51b3010 	ldr	r3, [fp, #-16]
41000958:	e5933014 	ldr	r3, [r3, #20]
4100095c:	e3530000 	cmp	r3, #0
41000960:	1a000006 	bne	41000980 <pthread_cond_wait+0xc0>
41000964:	e59f30a8 	ldr	r3, [pc, #168]	; 41000a14 <pthread_cond_wait+0x154>
41000968:	e51b2024 	ldr	r2, [fp, #-36]	; 0xffffffdc
4100096c:	e7923003 	ldr	r3, [r2, r3]
41000970:	e5932000 	ldr	r2, [r3]
41000974:	e51b3010 	ldr	r3, [fp, #-16]
41000978:	e5832014 	str	r2, [r3, #20]
4100097c:	ea000007 	b	410009a0 <pthread_cond_wait+0xe0>
41000980:	e59f3090 	ldr	r3, [pc, #144]	; 41000a18 <pthread_cond_wait+0x158>
41000984:	e51b2024 	ldr	r2, [fp, #-36]	; 0xffffffdc
41000988:	e0823003 	add	r3, r2, r3
4100098c:	e1a00003 	mov	r0, r3
41000990:	eb00100a 	bl	410049c0 <printk>
41000994:	e3e03000 	mvn	r3, #0
41000998:	e50b3020 	str	r3, [fp, #-32]	; 0xffffffe0
4100099c:	ea000017 	b	41000a00 <pthread_cond_wait+0x140>
410009a0:	e59f306c 	ldr	r3, [pc, #108]	; 41000a14 <pthread_cond_wait+0x154>
410009a4:	e51b2024 	ldr	r2, [fp, #-36]	; 0xffffffdc
410009a8:	e7923003 	ldr	r3, [r2, r3]
410009ac:	e5932000 	ldr	r2, [r3]
410009b0:	e3a03002 	mov	r3, #2
410009b4:	e5823000 	str	r3, [r2]
410009b8:	e59f3054 	ldr	r3, [pc, #84]	; 41000a14 <pthread_cond_wait+0x154>
410009bc:	e51b2024 	ldr	r2, [fp, #-36]	; 0xffffffdc
410009c0:	e7923003 	ldr	r3, [r2, r3]
410009c4:	e5933000 	ldr	r3, [r3]
410009c8:	e1a00003 	mov	r0, r3
410009cc:	e59f3048 	ldr	r3, [pc, #72]	; 41000a1c <pthread_cond_wait+0x15c>
410009d0:	e51b2024 	ldr	r2, [fp, #-36]	; 0xffffffdc
410009d4:	e7923003 	ldr	r3, [r2, r3]
410009d8:	e1a01003 	mov	r1, r3
410009dc:	eb0011e7 	bl	41005180 <vk_thread_dequeue>
410009e0:	eb00151b 	bl	41005e54 <vk_scheduler_unlock>
410009e4:	e51b001c 	ldr	r0, [fp, #-28]	; 0xffffffe4
410009e8:	eb000a8e 	bl	41003428 <pthread_mutex_unlock>
410009ec:	eb000363 	bl	41001780 <vk_swi_scheduler>
410009f0:	e51b001c 	ldr	r0, [fp, #-28]	; 0xffffffe4
410009f4:	eb0009b9 	bl	410030e0 <pthread_mutex_lock>
410009f8:	e3a03000 	mov	r3, #0
410009fc:	e50b3020 	str	r3, [fp, #-32]	; 0xffffffe0
41000a00:	e51b3020 	ldr	r3, [fp, #-32]	; 0xffffffe0
41000a04:	e1a00003 	mov	r0, r3
41000a08:	e24bd00c 	sub	sp, fp, #12
41000a0c:	e89da800 	ldm	sp, {fp, sp, pc}
41000a10:	0000a79c 	.word	0x0000a79c
41000a14:	000000ac 	.word	0x000000ac
41000a18:	fffff510 	.word	0xfffff510
41000a1c:	0000007c 	.word	0x0000007c

41000a20 <pthread_cond_signal>:
41000a20:	e1a0c00d 	mov	ip, sp
41000a24:	e92dd800 	push	{fp, ip, lr, pc}
41000a28:	e24cb004 	sub	fp, ip, #4
41000a2c:	e24dd018 	sub	sp, sp, #24
41000a30:	e59f21c0 	ldr	r2, [pc, #448]	; 41000bf8 <pthread_cond_signal+0x1d8>
41000a34:	e50b2024 	str	r2, [fp, #-36]	; 0xffffffdc
41000a38:	e51b3024 	ldr	r3, [fp, #-36]	; 0xffffffdc
41000a3c:	e08f3003 	add	r3, pc, r3
41000a40:	e50b3024 	str	r3, [fp, #-36]	; 0xffffffdc
41000a44:	e50b0020 	str	r0, [fp, #-32]	; 0xffffffe0
41000a48:	eb0014e7 	bl	41005dec <vk_scheduler_lock>
41000a4c:	e3a03000 	mov	r3, #0
41000a50:	e50b3018 	str	r3, [fp, #-24]	; 0xffffffe8
41000a54:	e51b3020 	ldr	r3, [fp, #-32]	; 0xffffffe0
41000a58:	e5933000 	ldr	r3, [r3]
41000a5c:	e50b3010 	str	r3, [fp, #-16]
41000a60:	e3a03000 	mov	r3, #0
41000a64:	e50b3014 	str	r3, [fp, #-20]	; 0xffffffec
41000a68:	e51b3010 	ldr	r3, [fp, #-16]
41000a6c:	e593300c 	ldr	r3, [r3, #12]
41000a70:	e3530000 	cmp	r3, #0
41000a74:	0a000002 	beq	41000a84 <pthread_cond_signal+0x64>
41000a78:	e51b3010 	ldr	r3, [fp, #-16]
41000a7c:	e593300c 	ldr	r3, [r3, #12]
41000a80:	e50b3014 	str	r3, [fp, #-20]	; 0xffffffec
41000a84:	e51b3010 	ldr	r3, [fp, #-16]
41000a88:	e5933010 	ldr	r3, [r3, #16]
41000a8c:	e3530000 	cmp	r3, #0
41000a90:	0a000010 	beq	41000ad8 <pthread_cond_signal+0xb8>
41000a94:	e51b3014 	ldr	r3, [fp, #-20]	; 0xffffffec
41000a98:	e3530000 	cmp	r3, #0
41000a9c:	1a000003 	bne	41000ab0 <pthread_cond_signal+0x90>
41000aa0:	e51b3010 	ldr	r3, [fp, #-16]
41000aa4:	e5933010 	ldr	r3, [r3, #16]
41000aa8:	e50b3014 	str	r3, [fp, #-20]	; 0xffffffec
41000aac:	ea000009 	b	41000ad8 <pthread_cond_signal+0xb8>
41000ab0:	e51b3014 	ldr	r3, [fp, #-20]	; 0xffffffec
41000ab4:	e5932008 	ldr	r2, [r3, #8]
41000ab8:	e51b3010 	ldr	r3, [fp, #-16]
41000abc:	e5933010 	ldr	r3, [r3, #16]
41000ac0:	e5933008 	ldr	r3, [r3, #8]
41000ac4:	e1520003 	cmp	r2, r3
41000ac8:	2a000002 	bcs	41000ad8 <pthread_cond_signal+0xb8>
41000acc:	e51b3010 	ldr	r3, [fp, #-16]
41000ad0:	e5933010 	ldr	r3, [r3, #16]
41000ad4:	e50b3014 	str	r3, [fp, #-20]	; 0xffffffec
41000ad8:	e51b3010 	ldr	r3, [fp, #-16]
41000adc:	e5933014 	ldr	r3, [r3, #20]
41000ae0:	e3530000 	cmp	r3, #0
41000ae4:	0a00003b 	beq	41000bd8 <pthread_cond_signal+0x1b8>
41000ae8:	e51b3014 	ldr	r3, [fp, #-20]	; 0xffffffec
41000aec:	e3530000 	cmp	r3, #0
41000af0:	1a000003 	bne	41000b04 <pthread_cond_signal+0xe4>
41000af4:	e51b3010 	ldr	r3, [fp, #-16]
41000af8:	e5933014 	ldr	r3, [r3, #20]
41000afc:	e50b3014 	str	r3, [fp, #-20]	; 0xffffffec
41000b00:	ea000034 	b	41000bd8 <pthread_cond_signal+0x1b8>
41000b04:	e51b3014 	ldr	r3, [fp, #-20]	; 0xffffffec
41000b08:	e5932008 	ldr	r2, [r3, #8]
41000b0c:	e51b3010 	ldr	r3, [fp, #-16]
41000b10:	e5933014 	ldr	r3, [r3, #20]
41000b14:	e5933008 	ldr	r3, [r3, #8]
41000b18:	e1520003 	cmp	r2, r3
41000b1c:	2a00002d 	bcs	41000bd8 <pthread_cond_signal+0x1b8>
41000b20:	e51b3010 	ldr	r3, [fp, #-16]
41000b24:	e5933014 	ldr	r3, [r3, #20]
41000b28:	e50b3014 	str	r3, [fp, #-20]	; 0xffffffec
41000b2c:	ea000029 	b	41000bd8 <pthread_cond_signal+0x1b8>
41000b30:	e51b3018 	ldr	r3, [fp, #-24]	; 0xffffffe8
41000b34:	e51b1010 	ldr	r1, [fp, #-16]
41000b38:	e2833002 	add	r3, r3, #2
41000b3c:	e3a02004 	mov	r2, #4
41000b40:	e1a03103 	lsl	r3, r3, #2
41000b44:	e0813003 	add	r3, r1, r3
41000b48:	e0833002 	add	r3, r3, r2
41000b4c:	e5933000 	ldr	r3, [r3]
41000b50:	e3530000 	cmp	r3, #0
41000b54:	0a00001c 	beq	41000bcc <pthread_cond_signal+0x1ac>
41000b58:	e51b3018 	ldr	r3, [fp, #-24]	; 0xffffffe8
41000b5c:	e51b1010 	ldr	r1, [fp, #-16]
41000b60:	e2833002 	add	r3, r3, #2
41000b64:	e3a02004 	mov	r2, #4
41000b68:	e1a03103 	lsl	r3, r3, #2
41000b6c:	e0813003 	add	r3, r1, r3
41000b70:	e0833002 	add	r3, r3, r2
41000b74:	e5932000 	ldr	r2, [r3]
41000b78:	e51b3014 	ldr	r3, [fp, #-20]	; 0xffffffec
41000b7c:	e1520003 	cmp	r2, r3
41000b80:	1a000011 	bne	41000bcc <pthread_cond_signal+0x1ac>
41000b84:	e51b3018 	ldr	r3, [fp, #-24]	; 0xffffffe8
41000b88:	e51b1010 	ldr	r1, [fp, #-16]
41000b8c:	e2833002 	add	r3, r3, #2
41000b90:	e3a02004 	mov	r2, #4
41000b94:	e1a03103 	lsl	r3, r3, #2
41000b98:	e0813003 	add	r3, r1, r3
41000b9c:	e0832002 	add	r2, r3, r2
41000ba0:	e3a03000 	mov	r3, #0
41000ba4:	e5823000 	str	r3, [r2]
41000ba8:	e51b2014 	ldr	r2, [fp, #-20]	; 0xffffffec
41000bac:	e3a03001 	mov	r3, #1
41000bb0:	e5823000 	str	r3, [r2]
41000bb4:	e51b0014 	ldr	r0, [fp, #-20]	; 0xffffffec
41000bb8:	e59f303c 	ldr	r3, [pc, #60]	; 41000bfc <pthread_cond_signal+0x1dc>
41000bbc:	e51b2024 	ldr	r2, [fp, #-36]	; 0xffffffdc
41000bc0:	e7923003 	ldr	r3, [r2, r3]
41000bc4:	e1a01003 	mov	r1, r3
41000bc8:	eb0010fe 	bl	41004fc8 <vk_thread_enqueue>
41000bcc:	e51b3018 	ldr	r3, [fp, #-24]	; 0xffffffe8
41000bd0:	e2833001 	add	r3, r3, #1
41000bd4:	e50b3018 	str	r3, [fp, #-24]	; 0xffffffe8
41000bd8:	e51b3018 	ldr	r3, [fp, #-24]	; 0xffffffe8
41000bdc:	e3530002 	cmp	r3, #2
41000be0:	9affffd2 	bls	41000b30 <pthread_cond_signal+0x110>
41000be4:	eb00149a 	bl	41005e54 <vk_scheduler_unlock>
41000be8:	e3a03000 	mov	r3, #0
41000bec:	e1a00003 	mov	r0, r3
41000bf0:	e24bd00c 	sub	sp, fp, #12
41000bf4:	e89da800 	ldm	sp, {fp, sp, pc}
41000bf8:	0000a63c 	.word	0x0000a63c
41000bfc:	0000007c 	.word	0x0000007c

41000c00 <pthread_cond_broadcast>:
41000c00:	e1a0c00d 	mov	ip, sp
41000c04:	e92dd800 	push	{fp, ip, lr, pc}
41000c08:	e24cb004 	sub	fp, ip, #4
41000c0c:	e24dd018 	sub	sp, sp, #24
41000c10:	e59f20ec 	ldr	r2, [pc, #236]	; 41000d04 <pthread_cond_broadcast+0x104>
41000c14:	e50b2024 	str	r2, [fp, #-36]	; 0xffffffdc
41000c18:	e51b3024 	ldr	r3, [fp, #-36]	; 0xffffffdc
41000c1c:	e08f3003 	add	r3, pc, r3
41000c20:	e50b3024 	str	r3, [fp, #-36]	; 0xffffffdc
41000c24:	e50b0020 	str	r0, [fp, #-32]	; 0xffffffe0
41000c28:	eb00146f 	bl	41005dec <vk_scheduler_lock>
41000c2c:	e51b3020 	ldr	r3, [fp, #-32]	; 0xffffffe0
41000c30:	e5933000 	ldr	r3, [r3]
41000c34:	e50b3014 	str	r3, [fp, #-20]	; 0xffffffec
41000c38:	e3a03000 	mov	r3, #0
41000c3c:	e50b3018 	str	r3, [fp, #-24]	; 0xffffffe8
41000c40:	ea000027 	b	41000ce4 <pthread_cond_broadcast+0xe4>
41000c44:	e51b3018 	ldr	r3, [fp, #-24]	; 0xffffffe8
41000c48:	e51b1014 	ldr	r1, [fp, #-20]	; 0xffffffec
41000c4c:	e2833002 	add	r3, r3, #2
41000c50:	e3a02004 	mov	r2, #4
41000c54:	e1a03103 	lsl	r3, r3, #2
41000c58:	e0813003 	add	r3, r1, r3
41000c5c:	e0833002 	add	r3, r3, r2
41000c60:	e5933000 	ldr	r3, [r3]
41000c64:	e3530000 	cmp	r3, #0
41000c68:	0a00001a 	beq	41000cd8 <pthread_cond_broadcast+0xd8>
41000c6c:	e51b3018 	ldr	r3, [fp, #-24]	; 0xffffffe8
41000c70:	e51b1014 	ldr	r1, [fp, #-20]	; 0xffffffec
41000c74:	e2833002 	add	r3, r3, #2
41000c78:	e3a02004 	mov	r2, #4
41000c7c:	e1a03103 	lsl	r3, r3, #2
41000c80:	e0813003 	add	r3, r1, r3
41000c84:	e0832002 	add	r2, r3, r2
41000c88:	e3a03000 	mov	r3, #0
41000c8c:	e5823000 	str	r3, [r2]
41000c90:	e51b3018 	ldr	r3, [fp, #-24]	; 0xffffffe8
41000c94:	e51b1014 	ldr	r1, [fp, #-20]	; 0xffffffec
41000c98:	e2833002 	add	r3, r3, #2
41000c9c:	e3a02004 	mov	r2, #4
41000ca0:	e1a03103 	lsl	r3, r3, #2
41000ca4:	e0813003 	add	r3, r1, r3
41000ca8:	e0833002 	add	r3, r3, r2
41000cac:	e5933000 	ldr	r3, [r3]
41000cb0:	e50b3010 	str	r3, [fp, #-16]
41000cb4:	e51b2010 	ldr	r2, [fp, #-16]
41000cb8:	e3a03001 	mov	r3, #1
41000cbc:	e5823000 	str	r3, [r2]
41000cc0:	e51b0010 	ldr	r0, [fp, #-16]
41000cc4:	e59f303c 	ldr	r3, [pc, #60]	; 41000d08 <pthread_cond_broadcast+0x108>
41000cc8:	e51b2024 	ldr	r2, [fp, #-36]	; 0xffffffdc
41000ccc:	e7923003 	ldr	r3, [r2, r3]
41000cd0:	e1a01003 	mov	r1, r3
41000cd4:	eb0010bb 	bl	41004fc8 <vk_thread_enqueue>
41000cd8:	e51b3018 	ldr	r3, [fp, #-24]	; 0xffffffe8
41000cdc:	e2833001 	add	r3, r3, #1
41000ce0:	e50b3018 	str	r3, [fp, #-24]	; 0xffffffe8
41000ce4:	e51b3018 	ldr	r3, [fp, #-24]	; 0xffffffe8
41000ce8:	e3530002 	cmp	r3, #2
41000cec:	9affffd4 	bls	41000c44 <pthread_cond_broadcast+0x44>
41000cf0:	eb001457 	bl	41005e54 <vk_scheduler_unlock>
41000cf4:	e3a03000 	mov	r3, #0
41000cf8:	e1a00003 	mov	r0, r3
41000cfc:	e24bd00c 	sub	sp, fp, #12
41000d00:	e89da800 	ldm	sp, {fp, sp, pc}
41000d04:	0000a45c 	.word	0x0000a45c
41000d08:	0000007c 	.word	0x0000007c

41000d0c <vk_init_dd_table>:
41000d0c:	e1a0c00d 	mov	ip, sp
41000d10:	e92dd800 	push	{fp, ip, lr, pc}
41000d14:	e24cb004 	sub	fp, ip, #4
41000d18:	e24dd010 	sub	sp, sp, #16
41000d1c:	e59f0104 	ldr	r0, [pc, #260]	; 41000e28 <vk_init_dd_table+0x11c>
41000d20:	e50b0018 	str	r0, [fp, #-24]	; 0xffffffe8
41000d24:	e51b1018 	ldr	r1, [fp, #-24]	; 0xffffffe8
41000d28:	e08f1001 	add	r1, pc, r1
41000d2c:	e50b1018 	str	r1, [fp, #-24]	; 0xffffffe8
41000d30:	e3a03000 	mov	r3, #0
41000d34:	e54b300d 	strb	r3, [fp, #-13]
41000d38:	ea000026 	b	41000dd8 <vk_init_dd_table+0xcc>
41000d3c:	e55b100d 	ldrb	r1, [fp, #-13]
41000d40:	e59f30e4 	ldr	r3, [pc, #228]	; 41000e2c <vk_init_dd_table+0x120>
41000d44:	e51b0018 	ldr	r0, [fp, #-24]	; 0xffffffe8
41000d48:	e7902003 	ldr	r2, [r0, r3]
41000d4c:	e3a03000 	mov	r3, #0
41000d50:	e7823201 	str	r3, [r2, r1, lsl #4]
41000d54:	e55b000d 	ldrb	r0, [fp, #-13]
41000d58:	e59f30cc 	ldr	r3, [pc, #204]	; 41000e2c <vk_init_dd_table+0x120>
41000d5c:	e51b1018 	ldr	r1, [fp, #-24]	; 0xffffffe8
41000d60:	e7912003 	ldr	r2, [r1, r3]
41000d64:	e3a01004 	mov	r1, #4
41000d68:	e1a03200 	lsl	r3, r0, #4
41000d6c:	e0823003 	add	r3, r2, r3
41000d70:	e0832001 	add	r2, r3, r1
41000d74:	e3a03000 	mov	r3, #0
41000d78:	e5823000 	str	r3, [r2]
41000d7c:	e55b200d 	ldrb	r2, [fp, #-13]
41000d80:	e59f30a4 	ldr	r3, [pc, #164]	; 41000e2c <vk_init_dd_table+0x120>
41000d84:	e51b0018 	ldr	r0, [fp, #-24]	; 0xffffffe8
41000d88:	e7901003 	ldr	r1, [r0, r3]
41000d8c:	e1a03082 	lsl	r3, r2, #1
41000d90:	e2832001 	add	r2, r3, #1
41000d94:	e3e03000 	mvn	r3, #0
41000d98:	e7813182 	str	r3, [r1, r2, lsl #3]
41000d9c:	e55b200d 	ldrb	r2, [fp, #-13]
41000da0:	e59f3084 	ldr	r3, [pc, #132]	; 41000e2c <vk_init_dd_table+0x120>
41000da4:	e51b0018 	ldr	r0, [fp, #-24]	; 0xffffffe8
41000da8:	e7901003 	ldr	r1, [r0, r3]
41000dac:	e1a03082 	lsl	r3, r2, #1
41000db0:	e2833001 	add	r3, r3, #1
41000db4:	e3a02004 	mov	r2, #4
41000db8:	e1a03183 	lsl	r3, r3, #3
41000dbc:	e0813003 	add	r3, r1, r3
41000dc0:	e0832002 	add	r2, r3, r2
41000dc4:	e3a03000 	mov	r3, #0
41000dc8:	e5823000 	str	r3, [r2]
41000dcc:	e55b300d 	ldrb	r3, [fp, #-13]
41000dd0:	e2833001 	add	r3, r3, #1
41000dd4:	e54b300d 	strb	r3, [fp, #-13]
41000dd8:	e55b300d 	ldrb	r3, [fp, #-13]
41000ddc:	e3530036 	cmp	r3, #54	; 0x36
41000de0:	9affffd5 	bls	41000d3c <vk_init_dd_table+0x30>
41000de4:	e3a03000 	mov	r3, #0
41000de8:	e54b300d 	strb	r3, [fp, #-13]
41000dec:	ea000008 	b	41000e14 <vk_init_dd_table+0x108>
41000df0:	e55b100d 	ldrb	r1, [fp, #-13]
41000df4:	e59f3034 	ldr	r3, [pc, #52]	; 41000e30 <vk_init_dd_table+0x124>
41000df8:	e51b0018 	ldr	r0, [fp, #-24]	; 0xffffffe8
41000dfc:	e7902003 	ldr	r2, [r0, r3]
41000e00:	e3e03000 	mvn	r3, #0
41000e04:	e7823101 	str	r3, [r2, r1, lsl #2]
41000e08:	e55b300d 	ldrb	r3, [fp, #-13]
41000e0c:	e2833001 	add	r3, r3, #1
41000e10:	e54b300d 	strb	r3, [fp, #-13]
41000e14:	e55b300d 	ldrb	r3, [fp, #-13]
41000e18:	e3530036 	cmp	r3, #54	; 0x36
41000e1c:	9afffff3 	bls	41000df0 <vk_init_dd_table+0xe4>
41000e20:	e24bd00c 	sub	sp, fp, #12
41000e24:	e89da800 	ldm	sp, {fp, sp, pc}
41000e28:	0000a350 	.word	0x0000a350
41000e2c:	000000d0 	.word	0x000000d0
41000e30:	00000014 	.word	0x00000014

41000e34 <vu_register_dev>:
41000e34:	e1a0c00d 	mov	ip, sp
41000e38:	e92dd800 	push	{fp, ip, lr, pc}
41000e3c:	e24cb004 	sub	fp, ip, #4
41000e40:	e24dd020 	sub	sp, sp, #32
41000e44:	e59fc154 	ldr	ip, [pc, #340]	; 41000fa0 <vu_register_dev+0x16c>
41000e48:	e50bc02c 	str	ip, [fp, #-44]	; 0xffffffd4
41000e4c:	e51bc02c 	ldr	ip, [fp, #-44]	; 0xffffffd4
41000e50:	e08fc00c 	add	ip, pc, ip
41000e54:	e50bc02c 	str	ip, [fp, #-44]	; 0xffffffd4
41000e58:	e50b0018 	str	r0, [fp, #-24]	; 0xffffffe8
41000e5c:	e50b101c 	str	r1, [fp, #-28]	; 0xffffffe4
41000e60:	e50b2020 	str	r2, [fp, #-32]	; 0xffffffe0
41000e64:	e50b3024 	str	r3, [fp, #-36]	; 0xffffffdc
41000e68:	e51b3018 	ldr	r3, [fp, #-24]	; 0xffffffe8
41000e6c:	e50b3010 	str	r3, [fp, #-16]
41000e70:	e51b0010 	ldr	r0, [fp, #-16]
41000e74:	e59f3128 	ldr	r3, [pc, #296]	; 41000fa4 <vu_register_dev+0x170>
41000e78:	e51b102c 	ldr	r1, [fp, #-44]	; 0xffffffd4
41000e7c:	e7912003 	ldr	r2, [r1, r3]
41000e80:	e3a01004 	mov	r1, #4
41000e84:	e1a03200 	lsl	r3, r0, #4
41000e88:	e0823003 	add	r3, r2, r3
41000e8c:	e0833001 	add	r3, r3, r1
41000e90:	e5933000 	ldr	r3, [r3]
41000e94:	e3530001 	cmp	r3, #1
41000e98:	1a000008 	bne	41000ec0 <vu_register_dev+0x8c>
41000e9c:	e59f3104 	ldr	r3, [pc, #260]	; 41000fa8 <vu_register_dev+0x174>
41000ea0:	e51b202c 	ldr	r2, [fp, #-44]	; 0xffffffd4
41000ea4:	e0823003 	add	r3, r2, r3
41000ea8:	e1a00003 	mov	r0, r3
41000eac:	e51b101c 	ldr	r1, [fp, #-28]	; 0xffffffe4
41000eb0:	eb000ec2 	bl	410049c0 <printk>
41000eb4:	e3e03000 	mvn	r3, #0
41000eb8:	e50b3028 	str	r3, [fp, #-40]	; 0xffffffd8
41000ebc:	ea000033 	b	41000f90 <vu_register_dev+0x15c>
41000ec0:	e51b0010 	ldr	r0, [fp, #-16]
41000ec4:	e59f30d8 	ldr	r3, [pc, #216]	; 41000fa4 <vu_register_dev+0x170>
41000ec8:	e51bc02c 	ldr	ip, [fp, #-44]	; 0xffffffd4
41000ecc:	e79c2003 	ldr	r2, [ip, r3]
41000ed0:	e3a01004 	mov	r1, #4
41000ed4:	e1a03200 	lsl	r3, r0, #4
41000ed8:	e0823003 	add	r3, r2, r3
41000edc:	e0832001 	add	r2, r3, r1
41000ee0:	e3a03001 	mov	r3, #1
41000ee4:	e5823000 	str	r3, [r2]
41000ee8:	e51b1010 	ldr	r1, [fp, #-16]
41000eec:	e59f30b0 	ldr	r3, [pc, #176]	; 41000fa4 <vu_register_dev+0x170>
41000ef0:	e51b002c 	ldr	r0, [fp, #-44]	; 0xffffffd4
41000ef4:	e7902003 	ldr	r2, [r0, r3]
41000ef8:	e51b301c 	ldr	r3, [fp, #-28]	; 0xffffffe4
41000efc:	e7823201 	str	r3, [r2, r1, lsl #4]
41000f00:	e51b2010 	ldr	r2, [fp, #-16]
41000f04:	e59f3098 	ldr	r3, [pc, #152]	; 41000fa4 <vu_register_dev+0x170>
41000f08:	e51bc02c 	ldr	ip, [fp, #-44]	; 0xffffffd4
41000f0c:	e79c1003 	ldr	r1, [ip, r3]
41000f10:	e1a03082 	lsl	r3, r2, #1
41000f14:	e2832001 	add	r2, r3, #1
41000f18:	e51b3024 	ldr	r3, [fp, #-36]	; 0xffffffdc
41000f1c:	e7813182 	str	r3, [r1, r2, lsl #3]
41000f20:	e51b2010 	ldr	r2, [fp, #-16]
41000f24:	e59f3078 	ldr	r3, [pc, #120]	; 41000fa4 <vu_register_dev+0x170>
41000f28:	e51b002c 	ldr	r0, [fp, #-44]	; 0xffffffd4
41000f2c:	e7901003 	ldr	r1, [r0, r3]
41000f30:	e1a03082 	lsl	r3, r2, #1
41000f34:	e2833001 	add	r3, r3, #1
41000f38:	e3a02004 	mov	r2, #4
41000f3c:	e1a03183 	lsl	r3, r3, #3
41000f40:	e0813003 	add	r3, r1, r3
41000f44:	e0832002 	add	r2, r3, r2
41000f48:	e51b3020 	ldr	r3, [fp, #-32]	; 0xffffffe0
41000f4c:	e5823000 	str	r3, [r2]
41000f50:	e59f3054 	ldr	r3, [pc, #84]	; 41000fac <vu_register_dev+0x178>
41000f54:	e51b102c 	ldr	r1, [fp, #-44]	; 0xffffffd4
41000f58:	e0813003 	add	r3, r1, r3
41000f5c:	e1a00003 	mov	r0, r3
41000f60:	eb000e96 	bl	410049c0 <printk>
41000f64:	e51b3024 	ldr	r3, [fp, #-36]	; 0xffffffdc
41000f68:	e3530000 	cmp	r3, #0
41000f6c:	ba000005 	blt	41000f88 <vu_register_dev+0x154>
41000f70:	e51b1024 	ldr	r1, [fp, #-36]	; 0xffffffdc
41000f74:	e59f3034 	ldr	r3, [pc, #52]	; 41000fb0 <vu_register_dev+0x17c>
41000f78:	e51bc02c 	ldr	ip, [fp, #-44]	; 0xffffffd4
41000f7c:	e79c2003 	ldr	r2, [ip, r3]
41000f80:	e51b3018 	ldr	r3, [fp, #-24]	; 0xffffffe8
41000f84:	e7823101 	str	r3, [r2, r1, lsl #2]
41000f88:	e3a00000 	mov	r0, #0
41000f8c:	e50b0028 	str	r0, [fp, #-40]	; 0xffffffd8
41000f90:	e51b3028 	ldr	r3, [fp, #-40]	; 0xffffffd8
41000f94:	e1a00003 	mov	r0, r3
41000f98:	e24bd00c 	sub	sp, fp, #12
41000f9c:	e89da800 	ldm	sp, {fp, sp, pc}
41000fa0:	0000a228 	.word	0x0000a228
41000fa4:	000000d0 	.word	0x000000d0
41000fa8:	fffff550 	.word	0xfffff550
41000fac:	fffff594 	.word	0xfffff594
41000fb0:	00000014 	.word	0x00000014

41000fb4 <vu_unregister_dev>:
41000fb4:	e1a0c00d 	mov	ip, sp
41000fb8:	e92dd800 	push	{fp, ip, lr, pc}
41000fbc:	e24cb004 	sub	fp, ip, #4
41000fc0:	e24dd018 	sub	sp, sp, #24
41000fc4:	e59f2120 	ldr	r2, [pc, #288]	; 410010ec <vu_unregister_dev+0x138>
41000fc8:	e50b2020 	str	r2, [fp, #-32]	; 0xffffffe0
41000fcc:	e51b3020 	ldr	r3, [fp, #-32]	; 0xffffffe0
41000fd0:	e08f3003 	add	r3, pc, r3
41000fd4:	e50b3020 	str	r3, [fp, #-32]	; 0xffffffe0
41000fd8:	e50b0018 	str	r0, [fp, #-24]	; 0xffffffe8
41000fdc:	e50b101c 	str	r1, [fp, #-28]	; 0xffffffe4
41000fe0:	e51b3018 	ldr	r3, [fp, #-24]	; 0xffffffe8
41000fe4:	e50b3010 	str	r3, [fp, #-16]
41000fe8:	e51b0010 	ldr	r0, [fp, #-16]
41000fec:	e59f30fc 	ldr	r3, [pc, #252]	; 410010f0 <vu_unregister_dev+0x13c>
41000ff0:	e51b1020 	ldr	r1, [fp, #-32]	; 0xffffffe0
41000ff4:	e7912003 	ldr	r2, [r1, r3]
41000ff8:	e3a01004 	mov	r1, #4
41000ffc:	e1a03200 	lsl	r3, r0, #4
41001000:	e0823003 	add	r3, r2, r3
41001004:	e0832001 	add	r2, r3, r1
41001008:	e3a03000 	mov	r3, #0
4100100c:	e5823000 	str	r3, [r2]
41001010:	e51b1010 	ldr	r1, [fp, #-16]
41001014:	e59f30d4 	ldr	r3, [pc, #212]	; 410010f0 <vu_unregister_dev+0x13c>
41001018:	e51b0020 	ldr	r0, [fp, #-32]	; 0xffffffe0
4100101c:	e7902003 	ldr	r2, [r0, r3]
41001020:	e3a03000 	mov	r3, #0
41001024:	e7823201 	str	r3, [r2, r1, lsl #4]
41001028:	e51b2010 	ldr	r2, [fp, #-16]
4100102c:	e59f30bc 	ldr	r3, [pc, #188]	; 410010f0 <vu_unregister_dev+0x13c>
41001030:	e51b0020 	ldr	r0, [fp, #-32]	; 0xffffffe0
41001034:	e7901003 	ldr	r1, [r0, r3]
41001038:	e1a03082 	lsl	r3, r2, #1
4100103c:	e2833001 	add	r3, r3, #1
41001040:	e7913183 	ldr	r3, [r1, r3, lsl #3]
41001044:	e3730001 	cmn	r3, #1
41001048:	0a00000b 	beq	4100107c <vu_unregister_dev+0xc8>
4100104c:	e51b2010 	ldr	r2, [fp, #-16]
41001050:	e59f3098 	ldr	r3, [pc, #152]	; 410010f0 <vu_unregister_dev+0x13c>
41001054:	e51b0020 	ldr	r0, [fp, #-32]	; 0xffffffe0
41001058:	e7901003 	ldr	r1, [r0, r3]
4100105c:	e1a03082 	lsl	r3, r2, #1
41001060:	e2833001 	add	r3, r3, #1
41001064:	e7911183 	ldr	r1, [r1, r3, lsl #3]
41001068:	e59f3084 	ldr	r3, [pc, #132]	; 410010f4 <vu_unregister_dev+0x140>
4100106c:	e51b0020 	ldr	r0, [fp, #-32]	; 0xffffffe0
41001070:	e7902003 	ldr	r2, [r0, r3]
41001074:	e3e03000 	mvn	r3, #0
41001078:	e7823101 	str	r3, [r2, r1, lsl #2]
4100107c:	e51b2010 	ldr	r2, [fp, #-16]
41001080:	e59f3068 	ldr	r3, [pc, #104]	; 410010f0 <vu_unregister_dev+0x13c>
41001084:	e51b0020 	ldr	r0, [fp, #-32]	; 0xffffffe0
41001088:	e7901003 	ldr	r1, [r0, r3]
4100108c:	e1a03082 	lsl	r3, r2, #1
41001090:	e2832001 	add	r2, r3, #1
41001094:	e3e03000 	mvn	r3, #0
41001098:	e7813182 	str	r3, [r1, r2, lsl #3]
4100109c:	e51b2010 	ldr	r2, [fp, #-16]
410010a0:	e59f3048 	ldr	r3, [pc, #72]	; 410010f0 <vu_unregister_dev+0x13c>
410010a4:	e51b0020 	ldr	r0, [fp, #-32]	; 0xffffffe0
410010a8:	e7901003 	ldr	r1, [r0, r3]
410010ac:	e1a03082 	lsl	r3, r2, #1
410010b0:	e2833001 	add	r3, r3, #1
410010b4:	e3a02004 	mov	r2, #4
410010b8:	e1a03183 	lsl	r3, r3, #3
410010bc:	e0813003 	add	r3, r1, r3
410010c0:	e0832002 	add	r2, r3, r2
410010c4:	e3a03000 	mov	r3, #0
410010c8:	e5823000 	str	r3, [r2]
410010cc:	e59f3024 	ldr	r3, [pc, #36]	; 410010f8 <vu_unregister_dev+0x144>
410010d0:	e51b1020 	ldr	r1, [fp, #-32]	; 0xffffffe0
410010d4:	e0813003 	add	r3, r1, r3
410010d8:	e1a00003 	mov	r0, r3
410010dc:	e51b101c 	ldr	r1, [fp, #-28]	; 0xffffffe4
410010e0:	eb000e36 	bl	410049c0 <printk>
410010e4:	e24bd00c 	sub	sp, fp, #12
410010e8:	e89da800 	ldm	sp, {fp, sp, pc}
410010ec:	0000a0a8 	.word	0x0000a0a8
410010f0:	000000d0 	.word	0x000000d0
410010f4:	00000014 	.word	0x00000014
410010f8:	fffff5ac 	.word	0xfffff5ac

410010fc <open>:
410010fc:	e1a0c00d 	mov	ip, sp
41001100:	e92dd800 	push	{fp, ip, lr, pc}
41001104:	e24cb004 	sub	fp, ip, #4
41001108:	e24dd018 	sub	sp, sp, #24
4100110c:	e59f10d4 	ldr	r1, [pc, #212]	; 410011e8 <open+0xec>
41001110:	e50b1020 	str	r1, [fp, #-32]	; 0xffffffe0
41001114:	e51b2020 	ldr	r2, [fp, #-32]	; 0xffffffe0
41001118:	e08f2002 	add	r2, pc, r2
4100111c:	e50b2020 	str	r2, [fp, #-32]	; 0xffffffe0
41001120:	e50b0018 	str	r0, [fp, #-24]	; 0xffffffe8
41001124:	e3a03000 	mov	r3, #0
41001128:	e50b3010 	str	r3, [fp, #-16]
4100112c:	ea00001e 	b	410011ac <open+0xb0>
41001130:	e51b2010 	ldr	r2, [fp, #-16]
41001134:	e59f30b0 	ldr	r3, [pc, #176]	; 410011ec <open+0xf0>
41001138:	e51b0020 	ldr	r0, [fp, #-32]	; 0xffffffe0
4100113c:	e7903003 	ldr	r3, [r0, r3]
41001140:	e7933202 	ldr	r3, [r3, r2, lsl #4]
41001144:	e1a00003 	mov	r0, r3
41001148:	e51b1018 	ldr	r1, [fp, #-24]	; 0xffffffe8
4100114c:	eb001c1b 	bl	410081c0 <strcmp>
41001150:	e1a03000 	mov	r3, r0
41001154:	e3530000 	cmp	r3, #0
41001158:	1a000010 	bne	410011a0 <open+0xa4>
4100115c:	e51b2010 	ldr	r2, [fp, #-16]
41001160:	e59f3084 	ldr	r3, [pc, #132]	; 410011ec <open+0xf0>
41001164:	e51b0020 	ldr	r0, [fp, #-32]	; 0xffffffe0
41001168:	e7901003 	ldr	r1, [r0, r3]
4100116c:	e1a03082 	lsl	r3, r2, #1
41001170:	e2833001 	add	r3, r3, #1
41001174:	e3a02004 	mov	r2, #4
41001178:	e1a03183 	lsl	r3, r3, #3
4100117c:	e0813003 	add	r3, r1, r3
41001180:	e0833002 	add	r3, r3, r2
41001184:	e5933000 	ldr	r3, [r3]
41001188:	e5933000 	ldr	r3, [r3]
4100118c:	e51b0018 	ldr	r0, [fp, #-24]	; 0xffffffe8
41001190:	e12fff33 	blx	r3
41001194:	e51b1010 	ldr	r1, [fp, #-16]
41001198:	e50b101c 	str	r1, [fp, #-28]	; 0xffffffe4
4100119c:	ea00000d 	b	410011d8 <open+0xdc>
410011a0:	e51b3010 	ldr	r3, [fp, #-16]
410011a4:	e2833001 	add	r3, r3, #1
410011a8:	e50b3010 	str	r3, [fp, #-16]
410011ac:	e51b3010 	ldr	r3, [fp, #-16]
410011b0:	e353001d 	cmp	r3, #29
410011b4:	daffffdd 	ble	41001130 <open+0x34>
410011b8:	e59f3030 	ldr	r3, [pc, #48]	; 410011f0 <open+0xf4>
410011bc:	e51b2020 	ldr	r2, [fp, #-32]	; 0xffffffe0
410011c0:	e0823003 	add	r3, r2, r3
410011c4:	e1a00003 	mov	r0, r3
410011c8:	e51b1018 	ldr	r1, [fp, #-24]	; 0xffffffe8
410011cc:	eb000dfb 	bl	410049c0 <printk>
410011d0:	e3a03001 	mov	r3, #1
410011d4:	e50b301c 	str	r3, [fp, #-28]	; 0xffffffe4
410011d8:	e51b301c 	ldr	r3, [fp, #-28]	; 0xffffffe4
410011dc:	e1a00003 	mov	r0, r3
410011e0:	e24bd00c 	sub	sp, fp, #12
410011e4:	e89da800 	ldm	sp, {fp, sp, pc}
410011e8:	00009f60 	.word	0x00009f60
410011ec:	000000d0 	.word	0x000000d0
410011f0:	fffff5d0 	.word	0xfffff5d0

410011f4 <close>:
410011f4:	e1a0c00d 	mov	ip, sp
410011f8:	e92dd800 	push	{fp, ip, lr, pc}
410011fc:	e24cb004 	sub	fp, ip, #4
41001200:	e24dd008 	sub	sp, sp, #8
41001204:	e59f2048 	ldr	r2, [pc, #72]	; 41001254 <close+0x60>
41001208:	e08f2002 	add	r2, pc, r2
4100120c:	e50b0010 	str	r0, [fp, #-16]
41001210:	e51b1010 	ldr	r1, [fp, #-16]
41001214:	e59f303c 	ldr	r3, [pc, #60]	; 41001258 <close+0x64>
41001218:	e7920003 	ldr	r0, [r2, r3]
4100121c:	e1a03081 	lsl	r3, r1, #1
41001220:	e2833001 	add	r3, r3, #1
41001224:	e3a02004 	mov	r2, #4
41001228:	e1a03183 	lsl	r3, r3, #3
4100122c:	e0803003 	add	r3, r0, r3
41001230:	e0833002 	add	r3, r3, r2
41001234:	e5933000 	ldr	r3, [r3]
41001238:	e5933004 	ldr	r3, [r3, #4]
4100123c:	e51b0010 	ldr	r0, [fp, #-16]
41001240:	e12fff33 	blx	r3
41001244:	e3a03000 	mov	r3, #0
41001248:	e1a00003 	mov	r0, r3
4100124c:	e24bd00c 	sub	sp, fp, #12
41001250:	e89da800 	ldm	sp, {fp, sp, pc}
41001254:	00009e70 	.word	0x00009e70
41001258:	000000d0 	.word	0x000000d0

4100125c <read>:
4100125c:	e1a0c00d 	mov	ip, sp
41001260:	e92dd800 	push	{fp, ip, lr, pc}
41001264:	e24cb004 	sub	fp, ip, #4
41001268:	e24dd010 	sub	sp, sp, #16
4100126c:	e59fc058 	ldr	ip, [pc, #88]	; 410012cc <read+0x70>
41001270:	e08fc00c 	add	ip, pc, ip
41001274:	e50b0010 	str	r0, [fp, #-16]
41001278:	e50b1014 	str	r1, [fp, #-20]	; 0xffffffec
4100127c:	e50b2018 	str	r2, [fp, #-24]	; 0xffffffe8
41001280:	e51b2010 	ldr	r2, [fp, #-16]
41001284:	e59f3044 	ldr	r3, [pc, #68]	; 410012d0 <read+0x74>
41001288:	e79c1003 	ldr	r1, [ip, r3]
4100128c:	e1a03082 	lsl	r3, r2, #1
41001290:	e2833001 	add	r3, r3, #1
41001294:	e3a02004 	mov	r2, #4
41001298:	e1a03183 	lsl	r3, r3, #3
4100129c:	e0813003 	add	r3, r1, r3
410012a0:	e0833002 	add	r3, r3, r2
410012a4:	e5933000 	ldr	r3, [r3]
410012a8:	e5933008 	ldr	r3, [r3, #8]
410012ac:	e51b0010 	ldr	r0, [fp, #-16]
410012b0:	e51b1014 	ldr	r1, [fp, #-20]	; 0xffffffec
410012b4:	e51b2018 	ldr	r2, [fp, #-24]	; 0xffffffe8
410012b8:	e12fff33 	blx	r3
410012bc:	e3a03000 	mov	r3, #0
410012c0:	e1a00003 	mov	r0, r3
410012c4:	e24bd00c 	sub	sp, fp, #12
410012c8:	e89da800 	ldm	sp, {fp, sp, pc}
410012cc:	00009e08 	.word	0x00009e08
410012d0:	000000d0 	.word	0x000000d0

410012d4 <write>:
410012d4:	e1a0c00d 	mov	ip, sp
410012d8:	e92dd800 	push	{fp, ip, lr, pc}
410012dc:	e24cb004 	sub	fp, ip, #4
410012e0:	e24dd010 	sub	sp, sp, #16
410012e4:	e59fc058 	ldr	ip, [pc, #88]	; 41001344 <write+0x70>
410012e8:	e08fc00c 	add	ip, pc, ip
410012ec:	e50b0010 	str	r0, [fp, #-16]
410012f0:	e50b1014 	str	r1, [fp, #-20]	; 0xffffffec
410012f4:	e50b2018 	str	r2, [fp, #-24]	; 0xffffffe8
410012f8:	e51b2010 	ldr	r2, [fp, #-16]
410012fc:	e59f3044 	ldr	r3, [pc, #68]	; 41001348 <write+0x74>
41001300:	e79c1003 	ldr	r1, [ip, r3]
41001304:	e1a03082 	lsl	r3, r2, #1
41001308:	e2833001 	add	r3, r3, #1
4100130c:	e3a02004 	mov	r2, #4
41001310:	e1a03183 	lsl	r3, r3, #3
41001314:	e0813003 	add	r3, r1, r3
41001318:	e0833002 	add	r3, r3, r2
4100131c:	e5933000 	ldr	r3, [r3]
41001320:	e593300c 	ldr	r3, [r3, #12]
41001324:	e51b0010 	ldr	r0, [fp, #-16]
41001328:	e51b1014 	ldr	r1, [fp, #-20]	; 0xffffffec
4100132c:	e51b2018 	ldr	r2, [fp, #-24]	; 0xffffffe8
41001330:	e12fff33 	blx	r3
41001334:	e3a03000 	mov	r3, #0
41001338:	e1a00003 	mov	r0, r3
4100133c:	e24bd00c 	sub	sp, fp, #12
41001340:	e89da800 	ldm	sp, {fp, sp, pc}
41001344:	00009d90 	.word	0x00009d90
41001348:	000000d0 	.word	0x000000d0

4100134c <ioctl>:
4100134c:	e1a0c00d 	mov	ip, sp
41001350:	e92dd800 	push	{fp, ip, lr, pc}
41001354:	e24cb004 	sub	fp, ip, #4
41001358:	e24dd010 	sub	sp, sp, #16
4100135c:	e59fc058 	ldr	ip, [pc, #88]	; 410013bc <ioctl+0x70>
41001360:	e08fc00c 	add	ip, pc, ip
41001364:	e50b0010 	str	r0, [fp, #-16]
41001368:	e50b1014 	str	r1, [fp, #-20]	; 0xffffffec
4100136c:	e50b2018 	str	r2, [fp, #-24]	; 0xffffffe8
41001370:	e51b2010 	ldr	r2, [fp, #-16]
41001374:	e59f3044 	ldr	r3, [pc, #68]	; 410013c0 <ioctl+0x74>
41001378:	e79c1003 	ldr	r1, [ip, r3]
4100137c:	e1a03082 	lsl	r3, r2, #1
41001380:	e2833001 	add	r3, r3, #1
41001384:	e3a02004 	mov	r2, #4
41001388:	e1a03183 	lsl	r3, r3, #3
4100138c:	e0813003 	add	r3, r1, r3
41001390:	e0833002 	add	r3, r3, r2
41001394:	e5933000 	ldr	r3, [r3]
41001398:	e5933010 	ldr	r3, [r3, #16]
4100139c:	e51b0010 	ldr	r0, [fp, #-16]
410013a0:	e51b1014 	ldr	r1, [fp, #-20]	; 0xffffffec
410013a4:	e51b2018 	ldr	r2, [fp, #-24]	; 0xffffffe8
410013a8:	e12fff33 	blx	r3
410013ac:	e3a03000 	mov	r3, #0
410013b0:	e1a00003 	mov	r0, r3
410013b4:	e24bd00c 	sub	sp, fp, #12
410013b8:	e89da800 	ldm	sp, {fp, sp, pc}
410013bc:	00009d18 	.word	0x00009d18
410013c0:	000000d0 	.word	0x000000d0

410013c4 <copy_from_user>:
410013c4:	e1a0c00d 	mov	ip, sp
410013c8:	e92dd800 	push	{fp, ip, lr, pc}
410013cc:	e24cb004 	sub	fp, ip, #4
410013d0:	e24dd010 	sub	sp, sp, #16
410013d4:	e50b0010 	str	r0, [fp, #-16]
410013d8:	e50b1014 	str	r1, [fp, #-20]	; 0xffffffec
410013dc:	e50b2018 	str	r2, [fp, #-24]	; 0xffffffe8
410013e0:	e51b0010 	ldr	r0, [fp, #-16]
410013e4:	e51b1014 	ldr	r1, [fp, #-20]	; 0xffffffec
410013e8:	e51b2018 	ldr	r2, [fp, #-24]	; 0xffffffe8
410013ec:	eb0023af 	bl	4100a2b0 <memcpy>
410013f0:	e51b3018 	ldr	r3, [fp, #-24]	; 0xffffffe8
410013f4:	e1a00003 	mov	r0, r3
410013f8:	e24bd00c 	sub	sp, fp, #12
410013fc:	e89da800 	ldm	sp, {fp, sp, pc}

41001400 <copy_to_user>:
41001400:	e1a0c00d 	mov	ip, sp
41001404:	e92dd800 	push	{fp, ip, lr, pc}
41001408:	e24cb004 	sub	fp, ip, #4
4100140c:	e24dd010 	sub	sp, sp, #16
41001410:	e50b0010 	str	r0, [fp, #-16]
41001414:	e50b1014 	str	r1, [fp, #-20]	; 0xffffffec
41001418:	e50b2018 	str	r2, [fp, #-24]	; 0xffffffe8
4100141c:	e51b0010 	ldr	r0, [fp, #-16]
41001420:	e51b1014 	ldr	r1, [fp, #-20]	; 0xffffffec
41001424:	e51b2018 	ldr	r2, [fp, #-24]	; 0xffffffe8
41001428:	eb0023a0 	bl	4100a2b0 <memcpy>
4100142c:	e51b3018 	ldr	r3, [fp, #-24]	; 0xffffffe8
41001430:	e1a00003 	mov	r0, r3
41001434:	e24bd00c 	sub	sp, fp, #12
41001438:	e89da800 	ldm	sp, {fp, sp, pc}

4100143c <vk_undef_handler>:
4100143c:	e92d4800 	push	{fp, lr}
41001440:	e28db004 	add	fp, sp, #4
41001444:	e59f2024 	ldr	r2, [pc, #36]	; 41001470 <vk_undef_handler+0x34>
41001448:	e08f2002 	add	r2, pc, r2
4100144c:	e59f3020 	ldr	r3, [pc, #32]	; 41001474 <vk_undef_handler+0x38>
41001450:	e7923003 	ldr	r3, [r2, r3]
41001454:	e5933000 	ldr	r3, [r3]
41001458:	e1a01003 	mov	r1, r3
4100145c:	e59f3014 	ldr	r3, [pc, #20]	; 41001478 <vk_undef_handler+0x3c>
41001460:	e08f3003 	add	r3, pc, r3
41001464:	e1a00003 	mov	r0, r3
41001468:	eb000d54 	bl	410049c0 <printk>
4100146c:	eafffffe 	b	4100146c <vk_undef_handler+0x30>
41001470:	00009c30 	.word	0x00009c30
41001474:	00000070 	.word	0x00000070
41001478:	000091fc 	.word	0x000091fc

4100147c <vk_pabort_handler>:
4100147c:	e92d4800 	push	{fp, lr}
41001480:	e28db004 	add	fp, sp, #4
41001484:	e59f202c 	ldr	r2, [pc, #44]	; 410014b8 <vk_pabort_handler+0x3c>
41001488:	e08f2002 	add	r2, pc, r2
4100148c:	e59f3028 	ldr	r3, [pc, #40]	; 410014bc <vk_pabort_handler+0x40>
41001490:	e7923003 	ldr	r3, [r2, r3]
41001494:	e5933000 	ldr	r3, [r3]
41001498:	e2833004 	add	r3, r3, #4
4100149c:	e5933000 	ldr	r3, [r3]
410014a0:	e1a01003 	mov	r1, r3
410014a4:	e59f3014 	ldr	r3, [pc, #20]	; 410014c0 <vk_pabort_handler+0x44>
410014a8:	e08f3003 	add	r3, pc, r3
410014ac:	e1a00003 	mov	r0, r3
410014b0:	eb000d42 	bl	410049c0 <printk>
410014b4:	eafffffe 	b	410014b4 <vk_pabort_handler+0x38>
410014b8:	00009bf0 	.word	0x00009bf0
410014bc:	00000000 	.word	0x00000000
410014c0:	000091e8 	.word	0x000091e8

410014c4 <vk_dabort_handler>:
410014c4:	e92d4800 	push	{fp, lr}
410014c8:	e28db004 	add	fp, sp, #4
410014cc:	e59f2024 	ldr	r2, [pc, #36]	; 410014f8 <vk_dabort_handler+0x34>
410014d0:	e08f2002 	add	r2, pc, r2
410014d4:	e59f3020 	ldr	r3, [pc, #32]	; 410014fc <vk_dabort_handler+0x38>
410014d8:	e7923003 	ldr	r3, [r2, r3]
410014dc:	e5933000 	ldr	r3, [r3]
410014e0:	e1a01003 	mov	r1, r3
410014e4:	e59f3014 	ldr	r3, [pc, #20]	; 41001500 <vk_dabort_handler+0x3c>
410014e8:	e08f3003 	add	r3, pc, r3
410014ec:	e1a00003 	mov	r0, r3
410014f0:	eb000d32 	bl	410049c0 <printk>
410014f4:	eafffffe 	b	410014f4 <vk_dabort_handler+0x30>
410014f8:	00009ba8 	.word	0x00009ba8
410014fc:	00000070 	.word	0x00000070
41001500:	000091d4 	.word	0x000091d4

41001504 <vk_irq_handler>:
41001504:	e92d4800 	push	{fp, lr}
41001508:	e28db004 	add	fp, sp, #4
4100150c:	e24dd008 	sub	sp, sp, #8
41001510:	e3a0300c 	mov	r3, #12
41001514:	e3403801 	movt	r3, #2049	; 0x801
41001518:	e5933000 	ldr	r3, [r3]
4100151c:	e50b3008 	str	r3, [fp, #-8]
41001520:	e3a03010 	mov	r3, #16
41001524:	e3403801 	movt	r3, #2049	; 0x801
41001528:	e51b2008 	ldr	r2, [fp, #-8]
4100152c:	e5832000 	str	r2, [r3]
41001530:	e51b3008 	ldr	r3, [fp, #-8]
41001534:	e353001b 	cmp	r3, #27
41001538:	0a000004 	beq	41001550 <vk_irq_handler+0x4c>
4100153c:	e51b3008 	ldr	r3, [fp, #-8]
41001540:	e3530021 	cmp	r3, #33	; 0x21
41001544:	1a000003 	bne	41001558 <vk_irq_handler+0x54>
41001548:	eb0015ec 	bl	41006d00 <vh_serial_interrupt_handler>
4100154c:	ea000001 	b	41001558 <vk_irq_handler+0x54>
41001550:	eb002090 	bl	41009798 <vh_timer_interrupt_handler>
41001554:	e320f000 	nop	{0}
41001558:	e320f000 	nop	{0}
4100155c:	e24bd004 	sub	sp, fp, #4
41001560:	e8bd8800 	pop	{fp, pc}

41001564 <vk_fiq_handler>:
41001564:	e92d4800 	push	{fp, lr}
41001568:	e28db004 	add	fp, sp, #4
4100156c:	e59f300c 	ldr	r3, [pc, #12]	; 41001580 <vk_fiq_handler+0x1c>
41001570:	e08f3003 	add	r3, pc, r3
41001574:	e1a00003 	mov	r0, r3
41001578:	eb000d10 	bl	410049c0 <printk>
4100157c:	eafffffe 	b	4100157c <vk_fiq_handler+0x18>
41001580:	00009174 	.word	0x00009174

41001584 <vk_not_used_handler>:
41001584:	e92d4800 	push	{fp, lr}
41001588:	e28db004 	add	fp, sp, #4
4100158c:	e59f3010 	ldr	r3, [pc, #16]	; 410015a4 <vk_not_used_handler+0x20>
41001590:	e08f3003 	add	r3, pc, r3
41001594:	e1a00003 	mov	r0, r3
41001598:	eb000d08 	bl	410049c0 <printk>
4100159c:	e320f000 	nop	{0}
410015a0:	e8bd8800 	pop	{fp, pc}
410015a4:	0000916c 	.word	0x0000916c

410015a8 <vh_interrupt_mask>:
410015a8:	e1a0c00d 	mov	ip, sp
410015ac:	e92dd800 	push	{fp, ip, lr, pc}
410015b0:	e24cb004 	sub	fp, ip, #4
410015b4:	e24dd008 	sub	sp, sp, #8
410015b8:	e50b0010 	str	r0, [fp, #-16]
410015bc:	e24bd00c 	sub	sp, fp, #12
410015c0:	e89da800 	ldm	sp, {fp, sp, pc}

410015c4 <vh_interrupt_unmask>:
410015c4:	e1a0c00d 	mov	ip, sp
410015c8:	e92dd800 	push	{fp, ip, lr, pc}
410015cc:	e24cb004 	sub	fp, ip, #4
410015d0:	e24dd008 	sub	sp, sp, #8
410015d4:	e50b0010 	str	r0, [fp, #-16]
410015d8:	e24bd00c 	sub	sp, fp, #12
410015dc:	e89da800 	ldm	sp, {fp, sp, pc}

410015e0 <vk_swi_classifier>:
410015e0:	e92d4800 	push	{fp, lr}
410015e4:	e28db004 	add	fp, sp, #4
410015e8:	e24dd020 	sub	sp, sp, #32
410015ec:	e50b0020 	str	r0, [fp, #-32]	; 0xffffffe0
410015f0:	e59f30d4 	ldr	r3, [pc, #212]	; 410016cc <vk_swi_classifier+0xec>
410015f4:	e08f3003 	add	r3, pc, r3
410015f8:	e59f20d0 	ldr	r2, [pc, #208]	; 410016d0 <vk_swi_classifier+0xf0>
410015fc:	e7932002 	ldr	r2, [r3, r2]
41001600:	e5922000 	ldr	r2, [r2]
41001604:	e50b2008 	str	r2, [fp, #-8]
41001608:	e59f20c4 	ldr	r2, [pc, #196]	; 410016d4 <vk_swi_classifier+0xf4>
4100160c:	e7933002 	ldr	r3, [r3, r2]
41001610:	e5933000 	ldr	r3, [r3]
41001614:	e50b300c 	str	r3, [fp, #-12]
41001618:	e51b3020 	ldr	r3, [fp, #-32]	; 0xffffffe0
4100161c:	e50b3010 	str	r3, [fp, #-16]
41001620:	e51b3010 	ldr	r3, [fp, #-16]
41001624:	e5933034 	ldr	r3, [r3, #52]	; 0x34
41001628:	e50b3014 	str	r3, [fp, #-20]	; 0xffffffec
4100162c:	e51b3014 	ldr	r3, [fp, #-20]	; 0xffffffec
41001630:	e2433028 	sub	r3, r3, #40	; 0x28
41001634:	e3530004 	cmp	r3, #4
41001638:	908ff103 	addls	pc, pc, r3, lsl #2
4100163c:	ea00001f 	b	410016c0 <vk_swi_classifier+0xe0>
41001640:	ea000003 	b	41001654 <vk_swi_classifier+0x74>
41001644:	ea000008 	b	4100166c <vk_swi_classifier+0x8c>
41001648:	ea00000d 	b	41001684 <vk_swi_classifier+0xa4>
4100164c:	ea000011 	b	41001698 <vk_swi_classifier+0xb8>
41001650:	ea000018 	b	410016b8 <vk_swi_classifier+0xd8>
41001654:	e51b3010 	ldr	r3, [fp, #-16]
41001658:	e3a02000 	mov	r2, #0
4100165c:	e5832038 	str	r2, [r3, #56]	; 0x38
41001660:	e51b0010 	ldr	r0, [fp, #-16]
41001664:	eb00007f 	bl	41001868 <vh_enable_interrupt>
41001668:	ea000014 	b	410016c0 <vk_swi_classifier+0xe0>
4100166c:	e51b3010 	ldr	r3, [fp, #-16]
41001670:	e3a02001 	mov	r2, #1
41001674:	e5832038 	str	r2, [r3, #56]	; 0x38
41001678:	e51b0010 	ldr	r0, [fp, #-16]
4100167c:	eb000085 	bl	41001898 <vh_disable_interrupt>
41001680:	ea00000e 	b	410016c0 <vk_swi_classifier+0xe0>
41001684:	e51b3010 	ldr	r3, [fp, #-16]
41001688:	e5933020 	ldr	r3, [r3, #32]
4100168c:	e1a00003 	mov	r0, r3
41001690:	ebfffadc 	bl	41000208 <vh_save_thread_ctx>
41001694:	ea000009 	b	410016c0 <vk_swi_classifier+0xe0>
41001698:	e51b3010 	ldr	r3, [fp, #-16]
4100169c:	e5933028 	ldr	r3, [r3, #40]	; 0x28
410016a0:	e50b3018 	str	r3, [fp, #-24]	; 0xffffffe8
410016a4:	e51b3010 	ldr	r3, [fp, #-16]
410016a8:	e5933020 	ldr	r3, [r3, #32]
410016ac:	e1a00003 	mov	r0, r3
410016b0:	ebfffac7 	bl	410001d4 <vh_restore_thread_ctx>
410016b4:	ea000001 	b	410016c0 <vk_swi_classifier+0xe0>
410016b8:	eb0010bc 	bl	410059b0 <vk_scheduler>
410016bc:	e320f000 	nop	{0}
410016c0:	e320f000 	nop	{0}
410016c4:	e24bd004 	sub	sp, fp, #4
410016c8:	e8bd8800 	pop	{fp, pc}
410016cc:	00009a84 	.word	0x00009a84
410016d0:	00000094 	.word	0x00000094
410016d4:	000000cc 	.word	0x000000cc

410016d8 <vk_enable_interrupt>:
410016d8:	e92d4800 	push	{fp, lr}
410016dc:	e28db004 	add	fp, sp, #4
410016e0:	e24dd008 	sub	sp, sp, #8
410016e4:	e59f3038 	ldr	r3, [pc, #56]	; 41001724 <vk_enable_interrupt+0x4c>
410016e8:	e08f3003 	add	r3, pc, r3
410016ec:	e59f2034 	ldr	r2, [pc, #52]	; 41001728 <vk_enable_interrupt+0x50>
410016f0:	e7932002 	ldr	r2, [r3, r2]
410016f4:	e5922000 	ldr	r2, [r2]
410016f8:	e3a01028 	mov	r1, #40	; 0x28
410016fc:	e5821034 	str	r1, [r2, #52]	; 0x34
41001700:	e59f2020 	ldr	r2, [pc, #32]	; 41001728 <vk_enable_interrupt+0x50>
41001704:	e7933002 	ldr	r3, [r3, r2]
41001708:	e5933000 	ldr	r3, [r3]
4100170c:	e50b3008 	str	r3, [fp, #-8]
41001710:	e51b0008 	ldr	r0, [fp, #-8]
41001714:	eb00004a 	bl	41001844 <vh_swi>
41001718:	e320f000 	nop	{0}
4100171c:	e24bd004 	sub	sp, fp, #4
41001720:	e8bd8800 	pop	{fp, pc}
41001724:	00009990 	.word	0x00009990
41001728:	000000ac 	.word	0x000000ac

4100172c <vk_disable_interrupt>:
4100172c:	e92d4800 	push	{fp, lr}
41001730:	e28db004 	add	fp, sp, #4
41001734:	e24dd008 	sub	sp, sp, #8
41001738:	e59f3038 	ldr	r3, [pc, #56]	; 41001778 <vk_disable_interrupt+0x4c>
4100173c:	e08f3003 	add	r3, pc, r3
41001740:	e59f2034 	ldr	r2, [pc, #52]	; 4100177c <vk_disable_interrupt+0x50>
41001744:	e7932002 	ldr	r2, [r3, r2]
41001748:	e5922000 	ldr	r2, [r2]
4100174c:	e3a01029 	mov	r1, #41	; 0x29
41001750:	e5821034 	str	r1, [r2, #52]	; 0x34
41001754:	e59f2020 	ldr	r2, [pc, #32]	; 4100177c <vk_disable_interrupt+0x50>
41001758:	e7933002 	ldr	r3, [r3, r2]
4100175c:	e5933000 	ldr	r3, [r3]
41001760:	e50b3008 	str	r3, [fp, #-8]
41001764:	e51b0008 	ldr	r0, [fp, #-8]
41001768:	eb000035 	bl	41001844 <vh_swi>
4100176c:	e320f000 	nop	{0}
41001770:	e24bd004 	sub	sp, fp, #4
41001774:	e8bd8800 	pop	{fp, pc}
41001778:	0000993c 	.word	0x0000993c
4100177c:	000000ac 	.word	0x000000ac

41001780 <vk_swi_scheduler>:
41001780:	e92d4800 	push	{fp, lr}
41001784:	e28db004 	add	fp, sp, #4
41001788:	e24dd008 	sub	sp, sp, #8
4100178c:	e59f3038 	ldr	r3, [pc, #56]	; 410017cc <vk_swi_scheduler+0x4c>
41001790:	e08f3003 	add	r3, pc, r3
41001794:	e59f2034 	ldr	r2, [pc, #52]	; 410017d0 <vk_swi_scheduler+0x50>
41001798:	e7932002 	ldr	r2, [r3, r2]
4100179c:	e5922000 	ldr	r2, [r2]
410017a0:	e3a0102c 	mov	r1, #44	; 0x2c
410017a4:	e5821034 	str	r1, [r2, #52]	; 0x34
410017a8:	e59f2020 	ldr	r2, [pc, #32]	; 410017d0 <vk_swi_scheduler+0x50>
410017ac:	e7933002 	ldr	r3, [r3, r2]
410017b0:	e5933000 	ldr	r3, [r3]
410017b4:	e50b3008 	str	r3, [fp, #-8]
410017b8:	e51b0008 	ldr	r0, [fp, #-8]
410017bc:	eb000020 	bl	41001844 <vh_swi>
410017c0:	e320f000 	nop	{0}
410017c4:	e24bd004 	sub	sp, fp, #4
410017c8:	e8bd8800 	pop	{fp, pc}
410017cc:	000098e8 	.word	0x000098e8
410017d0:	000000ac 	.word	0x000000ac

410017d4 <vk_save_thread_ctx>:
410017d4:	e92d4800 	push	{fp, lr}
410017d8:	e28db004 	add	fp, sp, #4
410017dc:	e24dd010 	sub	sp, sp, #16
410017e0:	e50b0010 	str	r0, [fp, #-16]
410017e4:	e51b3010 	ldr	r3, [fp, #-16]
410017e8:	e3a0202a 	mov	r2, #42	; 0x2a
410017ec:	e5832034 	str	r2, [r3, #52]	; 0x34
410017f0:	e51b3010 	ldr	r3, [fp, #-16]
410017f4:	e50b3008 	str	r3, [fp, #-8]
410017f8:	e51b0008 	ldr	r0, [fp, #-8]
410017fc:	eb000010 	bl	41001844 <vh_swi>
41001800:	e320f000 	nop	{0}
41001804:	e24bd004 	sub	sp, fp, #4
41001808:	e8bd8800 	pop	{fp, pc}

4100180c <vk_restore_thread_ctx>:
4100180c:	e92d4800 	push	{fp, lr}
41001810:	e28db004 	add	fp, sp, #4
41001814:	e24dd010 	sub	sp, sp, #16
41001818:	e50b0010 	str	r0, [fp, #-16]
4100181c:	e51b3010 	ldr	r3, [fp, #-16]
41001820:	e3a0202b 	mov	r2, #43	; 0x2b
41001824:	e5832034 	str	r2, [r3, #52]	; 0x34
41001828:	e51b3010 	ldr	r3, [fp, #-16]
4100182c:	e50b3008 	str	r3, [fp, #-8]
41001830:	e51b0008 	ldr	r0, [fp, #-8]
41001834:	eb000002 	bl	41001844 <vh_swi>
41001838:	e320f000 	nop	{0}
4100183c:	e24bd004 	sub	sp, fp, #4
41001840:	e8bd8800 	pop	{fp, pc}

41001844 <vh_swi>:
41001844:	e52db004 	push	{fp}		; (str fp, [sp, #-4]!)
41001848:	e28db000 	add	fp, sp, #0
4100184c:	e24dd00c 	sub	sp, sp, #12
41001850:	e50b0008 	str	r0, [fp, #-8]
41001854:	ef000000 	svc	0x00000000
41001858:	e320f000 	nop	{0}
4100185c:	e28bd000 	add	sp, fp, #0
41001860:	e49db004 	pop	{fp}		; (ldr fp, [sp], #4)
41001864:	e12fff1e 	bx	lr

41001868 <vh_enable_interrupt>:
41001868:	e52db004 	push	{fp}		; (str fp, [sp, #-4]!)
4100186c:	e28db000 	add	fp, sp, #0
41001870:	e24dd014 	sub	sp, sp, #20
41001874:	e50b0010 	str	r0, [fp, #-16]
41001878:	e14f3000 	mrs	r3, SPSR
4100187c:	e3c330c0 	bic	r3, r3, #192	; 0xc0
41001880:	e161f003 	msr	SPSR_c, r3
41001884:	e50b3008 	str	r3, [fp, #-8]
41001888:	e320f000 	nop	{0}
4100188c:	e28bd000 	add	sp, fp, #0
41001890:	e49db004 	pop	{fp}		; (ldr fp, [sp], #4)
41001894:	e12fff1e 	bx	lr

41001898 <vh_disable_interrupt>:
41001898:	e52db004 	push	{fp}		; (str fp, [sp, #-4]!)
4100189c:	e28db000 	add	fp, sp, #0
410018a0:	e24dd014 	sub	sp, sp, #20
410018a4:	e50b0010 	str	r0, [fp, #-16]
410018a8:	e14f3000 	mrs	r3, SPSR
410018ac:	e3833080 	orr	r3, r3, #128	; 0x80
410018b0:	e161f003 	msr	SPSR_c, r3
410018b4:	e50b3008 	str	r3, [fp, #-8]
410018b8:	e320f000 	nop	{0}
410018bc:	e28bd000 	add	sp, fp, #0
410018c0:	e49db004 	pop	{fp}		; (ldr fp, [sp], #4)
410018c4:	e12fff1e 	bx	lr

410018c8 <__aeabi_unwind_cpp_pr0>:
410018c8:	e52db004 	push	{fp}		; (str fp, [sp, #-4]!)
410018cc:	e28db000 	add	fp, sp, #0
410018d0:	e320f000 	nop	{0}
410018d4:	e28bd000 	add	sp, fp, #0
410018d8:	e49db004 	pop	{fp}		; (ldr fp, [sp], #4)
410018dc:	e12fff1e 	bx	lr

410018e0 <set_interrupt>:
410018e0:	e92d4800 	push	{fp, lr}
410018e4:	e28db004 	add	fp, sp, #4
410018e8:	e3a03302 	mov	r3, #134217728	; 0x8000000
410018ec:	e3a02000 	mov	r2, #0
410018f0:	e5832000 	str	r2, [r3]
410018f4:	e3a03000 	mov	r3, #0
410018f8:	e3403801 	movt	r3, #2049	; 0x801
410018fc:	e3a02000 	mov	r2, #0
41001900:	e5832000 	str	r2, [r3]
41001904:	eb0014b8 	bl	41006bec <vh_serial_irq_enable>
41001908:	eb001f8c 	bl	41009740 <vh_timer_irq_enable>
4100190c:	e3a03004 	mov	r3, #4
41001910:	e3403801 	movt	r3, #2049	; 0x801
41001914:	e3a020ff 	mov	r2, #255	; 0xff
41001918:	e5832000 	str	r2, [r3]
4100191c:	e3a03302 	mov	r3, #134217728	; 0x8000000
41001920:	e3a02001 	mov	r2, #1
41001924:	e5832000 	str	r2, [r3]
41001928:	e3a03000 	mov	r3, #0
4100192c:	e3403801 	movt	r3, #2049	; 0x801
41001930:	e3a02001 	mov	r2, #1
41001934:	e5832000 	str	r2, [r3]
41001938:	e320f000 	nop	{0}
4100193c:	e8bd8800 	pop	{fp, pc}

41001940 <VPOS_kernel_main>:
41001940:	e92d4810 	push	{r4, fp, lr}
41001944:	e28db008 	add	fp, sp, #8
41001948:	e24dd024 	sub	sp, sp, #36	; 0x24
4100194c:	e59f40e0 	ldr	r4, [pc, #224]	; 41001a34 <VPOS_kernel_main+0xf4>
41001950:	e08f4004 	add	r4, pc, r4
41001954:	eb00113e 	bl	41005e54 <vk_scheduler_unlock>
41001958:	eb001c1a 	bl	410089c8 <init_thread_id>
4100195c:	eb001002 	bl	4100596c <init_thread_pointer>
41001960:	e59f30d0 	ldr	r3, [pc, #208]	; 41001a38 <VPOS_kernel_main+0xf8>
41001964:	e7943003 	ldr	r3, [r4, r3]
41001968:	e3a02010 	mov	r2, #16
4100196c:	e5832000 	str	r2, [r3]
41001970:	eb000c70 	bl	41004b38 <vk_init_kdata_struct>
41001974:	eb00015a 	bl	41001ee4 <vk_machine_init>
41001978:	ebffffd8 	bl	410018e0 <set_interrupt>
4100197c:	e59f30b8 	ldr	r3, [pc, #184]	; 41001a3c <VPOS_kernel_main+0xfc>
41001980:	e7943003 	ldr	r3, [r4, r3]
41001984:	e5931000 	ldr	r1, [r3]
41001988:	e59f30b0 	ldr	r3, [pc, #176]	; 41001a40 <VPOS_kernel_main+0x100>
4100198c:	e7943003 	ldr	r3, [r4, r3]
41001990:	e5932000 	ldr	r2, [r3]
41001994:	e59f30a8 	ldr	r3, [pc, #168]	; 41001a44 <VPOS_kernel_main+0x104>
41001998:	e7943003 	ldr	r3, [r4, r3]
4100199c:	e5933000 	ldr	r3, [r3]
410019a0:	e59f00a0 	ldr	r0, [pc, #160]	; 41001a48 <VPOS_kernel_main+0x108>
410019a4:	e08f0000 	add	r0, pc, r0
410019a8:	eb000c04 	bl	410049c0 <printk>
410019ac:	e59f3098 	ldr	r3, [pc, #152]	; 41001a4c <VPOS_kernel_main+0x10c>
410019b0:	e7943003 	ldr	r3, [r4, r3]
410019b4:	e3a02000 	mov	r2, #0
410019b8:	e5832000 	str	r2, [r3]
410019bc:	e24b0014 	sub	r0, fp, #20
410019c0:	e3a03000 	mov	r3, #0
410019c4:	e59f2084 	ldr	r2, [pc, #132]	; 41001a50 <VPOS_kernel_main+0x110>
410019c8:	e7942002 	ldr	r2, [r4, r2]
410019cc:	e3a01000 	mov	r1, #0
410019d0:	eb001c08 	bl	410089f8 <pthread_create>
410019d4:	e24b001c 	sub	r0, fp, #28
410019d8:	e3a03000 	mov	r3, #0
410019dc:	e59f2070 	ldr	r2, [pc, #112]	; 41001a54 <VPOS_kernel_main+0x114>
410019e0:	e7942002 	ldr	r2, [r4, r2]
410019e4:	e3a01000 	mov	r1, #0
410019e8:	eb001c02 	bl	410089f8 <pthread_create>
410019ec:	e24b0024 	sub	r0, fp, #36	; 0x24
410019f0:	e3a03000 	mov	r3, #0
410019f4:	e59f205c 	ldr	r2, [pc, #92]	; 41001a58 <VPOS_kernel_main+0x118>
410019f8:	e7942002 	ldr	r2, [r4, r2]
410019fc:	e3a01000 	mov	r1, #0
41001a00:	eb001bfc 	bl	410089f8 <pthread_create>
41001a04:	e24b002c 	sub	r0, fp, #44	; 0x2c
41001a08:	e3a03000 	mov	r3, #0
41001a0c:	e59f2048 	ldr	r2, [pc, #72]	; 41001a5c <VPOS_kernel_main+0x11c>
41001a10:	e7942002 	ldr	r2, [r4, r2]
41001a14:	e3a01000 	mov	r1, #0
41001a18:	eb001bf6 	bl	410089f8 <pthread_create>
41001a1c:	eb0010ed 	bl	41005dd8 <VPOS_start>
41001a20:	e59f3038 	ldr	r3, [pc, #56]	; 41001a60 <VPOS_kernel_main+0x120>
41001a24:	e08f3003 	add	r3, pc, r3
41001a28:	e1a00003 	mov	r0, r3
41001a2c:	eb000be3 	bl	410049c0 <printk>
41001a30:	eafffffe 	b	41001a30 <VPOS_kernel_main+0xf0>
41001a34:	00009728 	.word	0x00009728
41001a38:	000000a4 	.word	0x000000a4
41001a3c:	00000044 	.word	0x00000044
41001a40:	00000020 	.word	0x00000020
41001a44:	00000038 	.word	0x00000038
41001a48:	00008e6c 	.word	0x00008e6c
41001a4c:	00000030 	.word	0x00000030
41001a50:	00000068 	.word	0x00000068
41001a54:	0000000c 	.word	0x0000000c
41001a58:	00000024 	.word	0x00000024
41001a5c:	000000bc 	.word	0x000000bc
41001a60:	00008df8 	.word	0x00008df8

41001a64 <vk_malloc>:
41001a64:	e1a0c00d 	mov	ip, sp
41001a68:	e92dd800 	push	{fp, ip, lr, pc}
41001a6c:	e24cb004 	sub	fp, ip, #4
41001a70:	e24dd020 	sub	sp, sp, #32
41001a74:	e59f11d8 	ldr	r1, [pc, #472]	; 41001c54 <vk_malloc+0x1f0>
41001a78:	e50b1028 	str	r1, [fp, #-40]	; 0xffffffd8
41001a7c:	e51b2028 	ldr	r2, [fp, #-40]	; 0xffffffd8
41001a80:	e08f2002 	add	r2, pc, r2
41001a84:	e50b2028 	str	r2, [fp, #-40]	; 0xffffffd8
41001a88:	e50b0020 	str	r0, [fp, #-32]	; 0xffffffe0
41001a8c:	e59f31c4 	ldr	r3, [pc, #452]	; 41001c58 <vk_malloc+0x1f4>
41001a90:	e51b1028 	ldr	r1, [fp, #-40]	; 0xffffffd8
41001a94:	e0813003 	add	r3, r1, r3
41001a98:	e5933000 	ldr	r3, [r3]
41001a9c:	e3530001 	cmp	r3, #1
41001aa0:	1a000004 	bne	41001ab8 <vk_malloc+0x54>
41001aa4:	e59f31ac 	ldr	r3, [pc, #428]	; 41001c58 <vk_malloc+0x1f4>
41001aa8:	e51b1028 	ldr	r1, [fp, #-40]	; 0xffffffd8
41001aac:	e0812003 	add	r2, r1, r3
41001ab0:	e3a03000 	mov	r3, #0
41001ab4:	e5823000 	str	r3, [r2]
41001ab8:	e51b3020 	ldr	r3, [fp, #-32]	; 0xffffffe0
41001abc:	e2833007 	add	r3, r3, #7
41001ac0:	e1a031a3 	lsr	r3, r3, #3
41001ac4:	e2833001 	add	r3, r3, #1
41001ac8:	e50b3010 	str	r3, [fp, #-16]
41001acc:	e59f3184 	ldr	r3, [pc, #388]	; 41001c58 <vk_malloc+0x1f4>
41001ad0:	e51b2028 	ldr	r2, [fp, #-40]	; 0xffffffd8
41001ad4:	e0823003 	add	r3, r2, r3
41001ad8:	e5933000 	ldr	r3, [r3]
41001adc:	e50b3014 	str	r3, [fp, #-20]	; 0xffffffec
41001ae0:	e51b3014 	ldr	r3, [fp, #-20]	; 0xffffffec
41001ae4:	e3530000 	cmp	r3, #0
41001ae8:	1a000015 	bne	41001b44 <vk_malloc+0xe0>
41001aec:	e59f3168 	ldr	r3, [pc, #360]	; 41001c5c <vk_malloc+0x1f8>
41001af0:	e51b1028 	ldr	r1, [fp, #-40]	; 0xffffffd8
41001af4:	e0813003 	add	r3, r1, r3
41001af8:	e50b3014 	str	r3, [fp, #-20]	; 0xffffffec
41001afc:	e59f3154 	ldr	r3, [pc, #340]	; 41001c58 <vk_malloc+0x1f4>
41001b00:	e51b1028 	ldr	r1, [fp, #-40]	; 0xffffffd8
41001b04:	e0812003 	add	r2, r1, r3
41001b08:	e51b3014 	ldr	r3, [fp, #-20]	; 0xffffffec
41001b0c:	e5823000 	str	r3, [r2]
41001b10:	e59f3140 	ldr	r3, [pc, #320]	; 41001c58 <vk_malloc+0x1f4>
41001b14:	e51b2028 	ldr	r2, [fp, #-40]	; 0xffffffd8
41001b18:	e0823003 	add	r3, r2, r3
41001b1c:	e5932000 	ldr	r2, [r3]
41001b20:	e59f3134 	ldr	r3, [pc, #308]	; 41001c5c <vk_malloc+0x1f8>
41001b24:	e51b1028 	ldr	r1, [fp, #-40]	; 0xffffffd8
41001b28:	e0813003 	add	r3, r1, r3
41001b2c:	e5832000 	str	r2, [r3]
41001b30:	e59f3124 	ldr	r3, [pc, #292]	; 41001c5c <vk_malloc+0x1f8>
41001b34:	e51b1028 	ldr	r1, [fp, #-40]	; 0xffffffd8
41001b38:	e0812003 	add	r2, r1, r3
41001b3c:	e3a03000 	mov	r3, #0
41001b40:	e5823004 	str	r3, [r2, #4]
41001b44:	e51b3014 	ldr	r3, [fp, #-20]	; 0xffffffec
41001b48:	e5933000 	ldr	r3, [r3]
41001b4c:	e50b3018 	str	r3, [fp, #-24]	; 0xffffffe8
41001b50:	e51b3018 	ldr	r3, [fp, #-24]	; 0xffffffe8
41001b54:	e5932004 	ldr	r2, [r3, #4]
41001b58:	e51b3010 	ldr	r3, [fp, #-16]
41001b5c:	e1520003 	cmp	r2, r3
41001b60:	3a000021 	bcc	41001bec <vk_malloc+0x188>
41001b64:	e51b3018 	ldr	r3, [fp, #-24]	; 0xffffffe8
41001b68:	e5932004 	ldr	r2, [r3, #4]
41001b6c:	e51b3010 	ldr	r3, [fp, #-16]
41001b70:	e1520003 	cmp	r2, r3
41001b74:	1a000004 	bne	41001b8c <vk_malloc+0x128>
41001b78:	e51b3018 	ldr	r3, [fp, #-24]	; 0xffffffe8
41001b7c:	e5932000 	ldr	r2, [r3]
41001b80:	e51b3014 	ldr	r3, [fp, #-20]	; 0xffffffec
41001b84:	e5832000 	str	r2, [r3]
41001b88:	ea00000e 	b	41001bc8 <vk_malloc+0x164>
41001b8c:	e51b3018 	ldr	r3, [fp, #-24]	; 0xffffffe8
41001b90:	e5932004 	ldr	r2, [r3, #4]
41001b94:	e51b3010 	ldr	r3, [fp, #-16]
41001b98:	e0632002 	rsb	r2, r3, r2
41001b9c:	e51b3018 	ldr	r3, [fp, #-24]	; 0xffffffe8
41001ba0:	e5832004 	str	r2, [r3, #4]
41001ba4:	e51b3018 	ldr	r3, [fp, #-24]	; 0xffffffe8
41001ba8:	e5933004 	ldr	r3, [r3, #4]
41001bac:	e1a02183 	lsl	r2, r3, #3
41001bb0:	e51b3018 	ldr	r3, [fp, #-24]	; 0xffffffe8
41001bb4:	e0833002 	add	r3, r3, r2
41001bb8:	e50b3018 	str	r3, [fp, #-24]	; 0xffffffe8
41001bbc:	e51b2018 	ldr	r2, [fp, #-24]	; 0xffffffe8
41001bc0:	e51b3010 	ldr	r3, [fp, #-16]
41001bc4:	e5823004 	str	r3, [r2, #4]
41001bc8:	e59f3088 	ldr	r3, [pc, #136]	; 41001c58 <vk_malloc+0x1f4>
41001bcc:	e51b1028 	ldr	r1, [fp, #-40]	; 0xffffffd8
41001bd0:	e0812003 	add	r2, r1, r3
41001bd4:	e51b3014 	ldr	r3, [fp, #-20]	; 0xffffffec
41001bd8:	e5823000 	str	r3, [r2]
41001bdc:	e51b3018 	ldr	r3, [fp, #-24]	; 0xffffffe8
41001be0:	e2833008 	add	r3, r3, #8
41001be4:	e50b3024 	str	r3, [fp, #-36]	; 0xffffffdc
41001be8:	ea000015 	b	41001c44 <vk_malloc+0x1e0>
41001bec:	e59f3064 	ldr	r3, [pc, #100]	; 41001c58 <vk_malloc+0x1f4>
41001bf0:	e51b2028 	ldr	r2, [fp, #-40]	; 0xffffffd8
41001bf4:	e0823003 	add	r3, r2, r3
41001bf8:	e5932000 	ldr	r2, [r3]
41001bfc:	e51b3018 	ldr	r3, [fp, #-24]	; 0xffffffe8
41001c00:	e1530002 	cmp	r3, r2
41001c04:	1a000008 	bne	41001c2c <vk_malloc+0x1c8>
41001c08:	eb000014 	bl	41001c60 <heap_memory_alloc>
41001c0c:	e1a03000 	mov	r3, r0
41001c10:	e50b3018 	str	r3, [fp, #-24]	; 0xffffffe8
41001c14:	e51b3018 	ldr	r3, [fp, #-24]	; 0xffffffe8
41001c18:	e3530000 	cmp	r3, #0
41001c1c:	1a000002 	bne	41001c2c <vk_malloc+0x1c8>
41001c20:	e3a03000 	mov	r3, #0
41001c24:	e50b3024 	str	r3, [fp, #-36]	; 0xffffffdc
41001c28:	ea000005 	b	41001c44 <vk_malloc+0x1e0>
41001c2c:	e51b3018 	ldr	r3, [fp, #-24]	; 0xffffffe8
41001c30:	e50b3014 	str	r3, [fp, #-20]	; 0xffffffec
41001c34:	e51b3018 	ldr	r3, [fp, #-24]	; 0xffffffe8
41001c38:	e5933000 	ldr	r3, [r3]
41001c3c:	e50b3018 	str	r3, [fp, #-24]	; 0xffffffe8
41001c40:	eaffffc2 	b	41001b50 <vk_malloc+0xec>
41001c44:	e51b3024 	ldr	r3, [fp, #-36]	; 0xffffffdc
41001c48:	e1a00003 	mov	r0, r3
41001c4c:	e24bd00c 	sub	sp, fp, #12
41001c50:	e89da800 	ldm	sp, {fp, sp, pc}
41001c54:	000095f8 	.word	0x000095f8
41001c58:	fffffefc 	.word	0xfffffefc
41001c5c:	000f43a4 	.word	0x000f43a4

41001c60 <heap_memory_alloc>:
41001c60:	e1a0c00d 	mov	ip, sp
41001c64:	e92dd800 	push	{fp, ip, lr, pc}
41001c68:	e24cb004 	sub	fp, ip, #4
41001c6c:	e24dd010 	sub	sp, sp, #16
41001c70:	e59f10b0 	ldr	r1, [pc, #176]	; 41001d28 <heap_memory_alloc+0xc8>
41001c74:	e50b101c 	str	r1, [fp, #-28]	; 0xffffffe4
41001c78:	e51b201c 	ldr	r2, [fp, #-28]	; 0xffffffe4
41001c7c:	e08f2002 	add	r2, pc, r2
41001c80:	e50b201c 	str	r2, [fp, #-28]	; 0xffffffe4
41001c84:	e59f30a0 	ldr	r3, [pc, #160]	; 41001d2c <heap_memory_alloc+0xcc>
41001c88:	e51b101c 	ldr	r1, [fp, #-28]	; 0xffffffe4
41001c8c:	e0812003 	add	r2, r1, r3
41001c90:	e3a03000 	mov	r3, #0
41001c94:	e5823000 	str	r3, [r2]
41001c98:	e59f308c 	ldr	r3, [pc, #140]	; 41001d2c <heap_memory_alloc+0xcc>
41001c9c:	e51b201c 	ldr	r2, [fp, #-28]	; 0xffffffe4
41001ca0:	e0823003 	add	r3, r2, r3
41001ca4:	e5933000 	ldr	r3, [r3]
41001ca8:	e3530000 	cmp	r3, #0
41001cac:	1a000017 	bne	41001d10 <heap_memory_alloc+0xb0>
41001cb0:	e59f3074 	ldr	r3, [pc, #116]	; 41001d2c <heap_memory_alloc+0xcc>
41001cb4:	e51b101c 	ldr	r1, [fp, #-28]	; 0xffffffe4
41001cb8:	e0812003 	add	r2, r1, r3
41001cbc:	e3a03001 	mov	r3, #1
41001cc0:	e5823000 	str	r3, [r2]
41001cc4:	e59f3064 	ldr	r3, [pc, #100]	; 41001d30 <heap_memory_alloc+0xd0>
41001cc8:	e51b201c 	ldr	r2, [fp, #-28]	; 0xffffffe4
41001ccc:	e0823003 	add	r3, r2, r3
41001cd0:	e50b3014 	str	r3, [fp, #-20]	; 0xffffffec
41001cd4:	e51b3014 	ldr	r3, [fp, #-20]	; 0xffffffec
41001cd8:	e50b3010 	str	r3, [fp, #-16]
41001cdc:	e51b2010 	ldr	r2, [fp, #-16]
41001ce0:	e59f304c 	ldr	r3, [pc, #76]	; 41001d34 <heap_memory_alloc+0xd4>
41001ce4:	e5823004 	str	r3, [r2, #4]
41001ce8:	e51b3010 	ldr	r3, [fp, #-16]
41001cec:	e2833008 	add	r3, r3, #8
41001cf0:	e1a00003 	mov	r0, r3
41001cf4:	eb000010 	bl	41001d3c <vk_free>
41001cf8:	e59f3038 	ldr	r3, [pc, #56]	; 41001d38 <heap_memory_alloc+0xd8>
41001cfc:	e51b101c 	ldr	r1, [fp, #-28]	; 0xffffffe4
41001d00:	e0813003 	add	r3, r1, r3
41001d04:	e5933000 	ldr	r3, [r3]
41001d08:	e50b3018 	str	r3, [fp, #-24]	; 0xffffffe8
41001d0c:	ea000001 	b	41001d18 <heap_memory_alloc+0xb8>
41001d10:	e3a02000 	mov	r2, #0
41001d14:	e50b2018 	str	r2, [fp, #-24]	; 0xffffffe8
41001d18:	e51b3018 	ldr	r3, [fp, #-24]	; 0xffffffe8
41001d1c:	e1a00003 	mov	r0, r3
41001d20:	e24bd00c 	sub	sp, fp, #12
41001d24:	e89da800 	ldm	sp, {fp, sp, pc}
41001d28:	000093fc 	.word	0x000093fc
41001d2c:	000f43a0 	.word	0x000f43a0
41001d30:	00000160 	.word	0x00000160
41001d34:	0001e848 	.word	0x0001e848
41001d38:	fffffefc 	.word	0xfffffefc

41001d3c <vk_free>:
41001d3c:	e1a0c00d 	mov	ip, sp
41001d40:	e92dd800 	push	{fp, ip, lr, pc}
41001d44:	e24cb004 	sub	fp, ip, #4
41001d48:	e24dd010 	sub	sp, sp, #16
41001d4c:	e59f1188 	ldr	r1, [pc, #392]	; 41001edc <vk_free+0x1a0>
41001d50:	e50b101c 	str	r1, [fp, #-28]	; 0xffffffe4
41001d54:	e51b201c 	ldr	r2, [fp, #-28]	; 0xffffffe4
41001d58:	e08f2002 	add	r2, pc, r2
41001d5c:	e50b201c 	str	r2, [fp, #-28]	; 0xffffffe4
41001d60:	e50b0018 	str	r0, [fp, #-24]	; 0xffffffe8
41001d64:	e51b3018 	ldr	r3, [fp, #-24]	; 0xffffffe8
41001d68:	e2433008 	sub	r3, r3, #8
41001d6c:	e50b3014 	str	r3, [fp, #-20]	; 0xffffffec
41001d70:	e59f3168 	ldr	r3, [pc, #360]	; 41001ee0 <vk_free+0x1a4>
41001d74:	e51b101c 	ldr	r1, [fp, #-28]	; 0xffffffe4
41001d78:	e0813003 	add	r3, r1, r3
41001d7c:	e5933000 	ldr	r3, [r3]
41001d80:	e50b3010 	str	r3, [fp, #-16]
41001d84:	ea000010 	b	41001dcc <vk_free+0x90>
41001d88:	e51b3010 	ldr	r3, [fp, #-16]
41001d8c:	e5932000 	ldr	r2, [r3]
41001d90:	e51b3010 	ldr	r3, [fp, #-16]
41001d94:	e1520003 	cmp	r2, r3
41001d98:	8a000008 	bhi	41001dc0 <vk_free+0x84>
41001d9c:	e51b2014 	ldr	r2, [fp, #-20]	; 0xffffffec
41001da0:	e51b3010 	ldr	r3, [fp, #-16]
41001da4:	e1520003 	cmp	r2, r3
41001da8:	8a000010 	bhi	41001df0 <vk_free+0xb4>
41001dac:	e51b3010 	ldr	r3, [fp, #-16]
41001db0:	e5932000 	ldr	r2, [r3]
41001db4:	e51b3014 	ldr	r3, [fp, #-20]	; 0xffffffec
41001db8:	e1520003 	cmp	r2, r3
41001dbc:	8a00000b 	bhi	41001df0 <vk_free+0xb4>
41001dc0:	e51b3010 	ldr	r3, [fp, #-16]
41001dc4:	e5933000 	ldr	r3, [r3]
41001dc8:	e50b3010 	str	r3, [fp, #-16]
41001dcc:	e51b2014 	ldr	r2, [fp, #-20]	; 0xffffffec
41001dd0:	e51b3010 	ldr	r3, [fp, #-16]
41001dd4:	e1520003 	cmp	r2, r3
41001dd8:	9affffea 	bls	41001d88 <vk_free+0x4c>
41001ddc:	e51b3010 	ldr	r3, [fp, #-16]
41001de0:	e5932000 	ldr	r2, [r3]
41001de4:	e51b3014 	ldr	r3, [fp, #-20]	; 0xffffffec
41001de8:	e1520003 	cmp	r2, r3
41001dec:	9affffe5 	bls	41001d88 <vk_free+0x4c>
41001df0:	e51b3014 	ldr	r3, [fp, #-20]	; 0xffffffec
41001df4:	e5933004 	ldr	r3, [r3, #4]
41001df8:	e1a02183 	lsl	r2, r3, #3
41001dfc:	e51b3014 	ldr	r3, [fp, #-20]	; 0xffffffec
41001e00:	e0832002 	add	r2, r3, r2
41001e04:	e51b3010 	ldr	r3, [fp, #-16]
41001e08:	e5933000 	ldr	r3, [r3]
41001e0c:	e1520003 	cmp	r2, r3
41001e10:	1a00000d 	bne	41001e4c <vk_free+0x110>
41001e14:	e51b3014 	ldr	r3, [fp, #-20]	; 0xffffffec
41001e18:	e5932004 	ldr	r2, [r3, #4]
41001e1c:	e51b3010 	ldr	r3, [fp, #-16]
41001e20:	e5933000 	ldr	r3, [r3]
41001e24:	e5933004 	ldr	r3, [r3, #4]
41001e28:	e0822003 	add	r2, r2, r3
41001e2c:	e51b3014 	ldr	r3, [fp, #-20]	; 0xffffffec
41001e30:	e5832004 	str	r2, [r3, #4]
41001e34:	e51b3010 	ldr	r3, [fp, #-16]
41001e38:	e5933000 	ldr	r3, [r3]
41001e3c:	e5932000 	ldr	r2, [r3]
41001e40:	e51b3014 	ldr	r3, [fp, #-20]	; 0xffffffec
41001e44:	e5832000 	str	r2, [r3]
41001e48:	ea000003 	b	41001e5c <vk_free+0x120>
41001e4c:	e51b3010 	ldr	r3, [fp, #-16]
41001e50:	e5932000 	ldr	r2, [r3]
41001e54:	e51b3014 	ldr	r3, [fp, #-20]	; 0xffffffec
41001e58:	e5832000 	str	r2, [r3]
41001e5c:	e51b3010 	ldr	r3, [fp, #-16]
41001e60:	e5933004 	ldr	r3, [r3, #4]
41001e64:	e1a02183 	lsl	r2, r3, #3
41001e68:	e51b3010 	ldr	r3, [fp, #-16]
41001e6c:	e0832002 	add	r2, r3, r2
41001e70:	e51b3014 	ldr	r3, [fp, #-20]	; 0xffffffec
41001e74:	e1520003 	cmp	r2, r3
41001e78:	1a00000b 	bne	41001eac <vk_free+0x170>
41001e7c:	e51b3010 	ldr	r3, [fp, #-16]
41001e80:	e5932004 	ldr	r2, [r3, #4]
41001e84:	e51b3014 	ldr	r3, [fp, #-20]	; 0xffffffec
41001e88:	e5933004 	ldr	r3, [r3, #4]
41001e8c:	e0822003 	add	r2, r2, r3
41001e90:	e51b3010 	ldr	r3, [fp, #-16]
41001e94:	e5832004 	str	r2, [r3, #4]
41001e98:	e51b3014 	ldr	r3, [fp, #-20]	; 0xffffffec
41001e9c:	e5932000 	ldr	r2, [r3]
41001ea0:	e51b3010 	ldr	r3, [fp, #-16]
41001ea4:	e5832000 	str	r2, [r3]
41001ea8:	ea000002 	b	41001eb8 <vk_free+0x17c>
41001eac:	e51b2010 	ldr	r2, [fp, #-16]
41001eb0:	e51b3014 	ldr	r3, [fp, #-20]	; 0xffffffec
41001eb4:	e5823000 	str	r3, [r2]
41001eb8:	e59f3020 	ldr	r3, [pc, #32]	; 41001ee0 <vk_free+0x1a4>
41001ebc:	e51b101c 	ldr	r1, [fp, #-28]	; 0xffffffe4
41001ec0:	e0812003 	add	r2, r1, r3
41001ec4:	e51b3010 	ldr	r3, [fp, #-16]
41001ec8:	e5823000 	str	r3, [r2]
41001ecc:	e3a03000 	mov	r3, #0
41001ed0:	e50b3018 	str	r3, [fp, #-24]	; 0xffffffe8
41001ed4:	e24bd00c 	sub	sp, fp, #12
41001ed8:	e89da800 	ldm	sp, {fp, sp, pc}
41001edc:	00009320 	.word	0x00009320
41001ee0:	fffffefc 	.word	0xfffffefc

41001ee4 <vk_machine_init>:
41001ee4:	e92d4800 	push	{fp, lr}
41001ee8:	e28db004 	add	fp, sp, #4
41001eec:	eb0012ff 	bl	41006af0 <vh_serial_init>
41001ef0:	eb001dfe 	bl	410096f0 <vh_timer_init>
41001ef4:	e320f000 	nop	{0}
41001ef8:	e8bd8800 	pop	{fp, pc}

41001efc <malloc>:
41001efc:	e1a0c00d 	mov	ip, sp
41001f00:	e92dd800 	push	{fp, ip, lr, pc}
41001f04:	e24cb004 	sub	fp, ip, #4
41001f08:	e24dd010 	sub	sp, sp, #16
41001f0c:	e59f3058 	ldr	r3, [pc, #88]	; 41001f6c <malloc+0x70>
41001f10:	e08f3003 	add	r3, pc, r3
41001f14:	e50b0018 	str	r0, [fp, #-24]	; 0xffffffe8
41001f18:	e59f2050 	ldr	r2, [pc, #80]	; 41001f70 <malloc+0x74>
41001f1c:	e7933002 	ldr	r3, [r3, r2]
41001f20:	e5933000 	ldr	r3, [r3]
41001f24:	e5933038 	ldr	r3, [r3, #56]	; 0x38
41001f28:	e50b3010 	str	r3, [fp, #-16]
41001f2c:	e51b3010 	ldr	r3, [fp, #-16]
41001f30:	e3530000 	cmp	r3, #0
41001f34:	1a000000 	bne	41001f3c <malloc+0x40>
41001f38:	ebfffdfb 	bl	4100172c <vk_disable_interrupt>
41001f3c:	e51b0018 	ldr	r0, [fp, #-24]	; 0xffffffe8
41001f40:	ebfffec7 	bl	41001a64 <vk_malloc>
41001f44:	e1a03000 	mov	r3, r0
41001f48:	e50b3014 	str	r3, [fp, #-20]	; 0xffffffec
41001f4c:	e51b3010 	ldr	r3, [fp, #-16]
41001f50:	e3530000 	cmp	r3, #0
41001f54:	1a000000 	bne	41001f5c <malloc+0x60>
41001f58:	ebfffdde 	bl	410016d8 <vk_enable_interrupt>
41001f5c:	e51b3014 	ldr	r3, [fp, #-20]	; 0xffffffec
41001f60:	e1a00003 	mov	r0, r3
41001f64:	e24bd00c 	sub	sp, fp, #12
41001f68:	e89da800 	ldm	sp, {fp, sp, pc}
41001f6c:	00009168 	.word	0x00009168
41001f70:	000000ac 	.word	0x000000ac

41001f74 <free>:
41001f74:	e1a0c00d 	mov	ip, sp
41001f78:	e92dd800 	push	{fp, ip, lr, pc}
41001f7c:	e24cb004 	sub	fp, ip, #4
41001f80:	e24dd010 	sub	sp, sp, #16
41001f84:	e59f3048 	ldr	r3, [pc, #72]	; 41001fd4 <free+0x60>
41001f88:	e08f3003 	add	r3, pc, r3
41001f8c:	e50b0018 	str	r0, [fp, #-24]	; 0xffffffe8
41001f90:	e59f2040 	ldr	r2, [pc, #64]	; 41001fd8 <free+0x64>
41001f94:	e7933002 	ldr	r3, [r3, r2]
41001f98:	e5933000 	ldr	r3, [r3]
41001f9c:	e5933038 	ldr	r3, [r3, #56]	; 0x38
41001fa0:	e50b3010 	str	r3, [fp, #-16]
41001fa4:	e51b3010 	ldr	r3, [fp, #-16]
41001fa8:	e3530000 	cmp	r3, #0
41001fac:	1a000000 	bne	41001fb4 <free+0x40>
41001fb0:	ebfffddd 	bl	4100172c <vk_disable_interrupt>
41001fb4:	e51b0018 	ldr	r0, [fp, #-24]	; 0xffffffe8
41001fb8:	ebffff5f 	bl	41001d3c <vk_free>
41001fbc:	e51b3010 	ldr	r3, [fp, #-16]
41001fc0:	e3530000 	cmp	r3, #0
41001fc4:	1a000000 	bne	41001fcc <free+0x58>
41001fc8:	ebfffdc2 	bl	410016d8 <vk_enable_interrupt>
41001fcc:	e24bd00c 	sub	sp, fp, #12
41001fd0:	e89da800 	ldm	sp, {fp, sp, pc}
41001fd4:	000090f0 	.word	0x000090f0
41001fd8:	000000ac 	.word	0x000000ac

41001fdc <mq_open>:
41001fdc:	e1a0c00d 	mov	ip, sp
41001fe0:	e92dd800 	push	{fp, ip, lr, pc}
41001fe4:	e24cb004 	sub	fp, ip, #4
41001fe8:	e24dd018 	sub	sp, sp, #24
41001fec:	e59f22d8 	ldr	r2, [pc, #728]	; 410022cc <mq_open+0x2f0>
41001ff0:	e50b2024 	str	r2, [fp, #-36]	; 0xffffffdc
41001ff4:	e51b3024 	ldr	r3, [fp, #-36]	; 0xffffffdc
41001ff8:	e08f3003 	add	r3, pc, r3
41001ffc:	e50b3024 	str	r3, [fp, #-36]	; 0xffffffdc
41002000:	e50b0018 	str	r0, [fp, #-24]	; 0xffffffe8
41002004:	e50b101c 	str	r1, [fp, #-28]	; 0xffffffe4
41002008:	e59f32c0 	ldr	r3, [pc, #704]	; 410022d0 <mq_open+0x2f4>
4100200c:	e51bc024 	ldr	ip, [fp, #-36]	; 0xffffffdc
41002010:	e79c3003 	ldr	r3, [ip, r3]
41002014:	e5933000 	ldr	r3, [r3]
41002018:	e3530003 	cmp	r3, #3
4100201c:	1a000007 	bne	41002040 <mq_open+0x64>
41002020:	e59f32ac 	ldr	r3, [pc, #684]	; 410022d4 <mq_open+0x2f8>
41002024:	e51b0024 	ldr	r0, [fp, #-36]	; 0xffffffdc
41002028:	e0803003 	add	r3, r0, r3
4100202c:	e1a00003 	mov	r0, r3
41002030:	eb000a62 	bl	410049c0 <printk>
41002034:	e3e01000 	mvn	r1, #0
41002038:	e50b1020 	str	r1, [fp, #-32]	; 0xffffffe0
4100203c:	ea00009e 	b	410022bc <mq_open+0x2e0>
41002040:	e59f3288 	ldr	r3, [pc, #648]	; 410022d0 <mq_open+0x2f4>
41002044:	e51b2024 	ldr	r2, [fp, #-36]	; 0xffffffdc
41002048:	e7923003 	ldr	r3, [r2, r3]
4100204c:	e5933000 	ldr	r3, [r3]
41002050:	e1a02103 	lsl	r2, r3, #2
41002054:	e59f327c 	ldr	r3, [pc, #636]	; 410022d8 <mq_open+0x2fc>
41002058:	e51bc024 	ldr	ip, [fp, #-36]	; 0xffffffdc
4100205c:	e79c3003 	ldr	r3, [ip, r3]
41002060:	e0823003 	add	r3, r2, r3
41002064:	e1a00003 	mov	r0, r3
41002068:	e3a01000 	mov	r1, #0
4100206c:	e3a02000 	mov	r2, #0
41002070:	eb001038 	bl	41006158 <sem_init>
41002074:	e59f3254 	ldr	r3, [pc, #596]	; 410022d0 <mq_open+0x2f4>
41002078:	e51b0024 	ldr	r0, [fp, #-36]	; 0xffffffdc
4100207c:	e7903003 	ldr	r3, [r0, r3]
41002080:	e5932000 	ldr	r2, [r3]
41002084:	e59f3250 	ldr	r3, [pc, #592]	; 410022dc <mq_open+0x300>
41002088:	e51bc024 	ldr	ip, [fp, #-36]	; 0xffffffdc
4100208c:	e79c1003 	ldr	r1, [ip, r3]
41002090:	e3a00004 	mov	r0, #4
41002094:	e1a03002 	mov	r3, r2
41002098:	e1a02103 	lsl	r2, r3, #2
4100209c:	e1a03182 	lsl	r3, r2, #3
410020a0:	e0623003 	rsb	r3, r2, r3
410020a4:	e0813003 	add	r3, r1, r3
410020a8:	e0832000 	add	r2, r3, r0
410020ac:	e3a03000 	mov	r3, #0
410020b0:	e5823000 	str	r3, [r2]
410020b4:	e59f3214 	ldr	r3, [pc, #532]	; 410022d0 <mq_open+0x2f4>
410020b8:	e51b0024 	ldr	r0, [fp, #-36]	; 0xffffffdc
410020bc:	e7903003 	ldr	r3, [r0, r3]
410020c0:	e5932000 	ldr	r2, [r3]
410020c4:	e59f3210 	ldr	r3, [pc, #528]	; 410022dc <mq_open+0x300>
410020c8:	e51bc024 	ldr	ip, [fp, #-36]	; 0xffffffdc
410020cc:	e79c1003 	ldr	r1, [ip, r3]
410020d0:	e3a00008 	mov	r0, #8
410020d4:	e1a03002 	mov	r3, r2
410020d8:	e1a02103 	lsl	r2, r3, #2
410020dc:	e1a03182 	lsl	r3, r2, #3
410020e0:	e0623003 	rsb	r3, r2, r3
410020e4:	e0813003 	add	r3, r1, r3
410020e8:	e0832000 	add	r2, r3, r0
410020ec:	e3a03000 	mov	r3, #0
410020f0:	e5823000 	str	r3, [r2]
410020f4:	e59f31d4 	ldr	r3, [pc, #468]	; 410022d0 <mq_open+0x2f4>
410020f8:	e51b0024 	ldr	r0, [fp, #-36]	; 0xffffffdc
410020fc:	e7903003 	ldr	r3, [r0, r3]
41002100:	e5932000 	ldr	r2, [r3]
41002104:	e59f31d0 	ldr	r3, [pc, #464]	; 410022dc <mq_open+0x300>
41002108:	e51bc024 	ldr	ip, [fp, #-36]	; 0xffffffdc
4100210c:	e79c1003 	ldr	r1, [ip, r3]
41002110:	e3a0000c 	mov	r0, #12
41002114:	e1a03002 	mov	r3, r2
41002118:	e1a02103 	lsl	r2, r3, #2
4100211c:	e1a03182 	lsl	r3, r2, #3
41002120:	e0623003 	rsb	r3, r2, r3
41002124:	e0813003 	add	r3, r1, r3
41002128:	e0832000 	add	r2, r3, r0
4100212c:	e3a03007 	mov	r3, #7
41002130:	e5823000 	str	r3, [r2]
41002134:	e59f3194 	ldr	r3, [pc, #404]	; 410022d0 <mq_open+0x2f4>
41002138:	e51b0024 	ldr	r0, [fp, #-36]	; 0xffffffdc
4100213c:	e7903003 	ldr	r3, [r0, r3]
41002140:	e5932000 	ldr	r2, [r3]
41002144:	e59f3190 	ldr	r3, [pc, #400]	; 410022dc <mq_open+0x300>
41002148:	e51bc024 	ldr	ip, [fp, #-36]	; 0xffffffdc
4100214c:	e79c1003 	ldr	r1, [ip, r3]
41002150:	e3a00010 	mov	r0, #16
41002154:	e1a03002 	mov	r3, r2
41002158:	e1a02103 	lsl	r2, r3, #2
4100215c:	e1a03182 	lsl	r3, r2, #3
41002160:	e0623003 	rsb	r3, r2, r3
41002164:	e0813003 	add	r3, r1, r3
41002168:	e0832000 	add	r2, r3, r0
4100216c:	e3a03000 	mov	r3, #0
41002170:	e5823000 	str	r3, [r2]
41002174:	e59f3154 	ldr	r3, [pc, #340]	; 410022d0 <mq_open+0x2f4>
41002178:	e51b0024 	ldr	r0, [fp, #-36]	; 0xffffffdc
4100217c:	e7903003 	ldr	r3, [r0, r3]
41002180:	e5932000 	ldr	r2, [r3]
41002184:	e59f3150 	ldr	r3, [pc, #336]	; 410022dc <mq_open+0x300>
41002188:	e51bc024 	ldr	ip, [fp, #-36]	; 0xffffffdc
4100218c:	e79c1003 	ldr	r1, [ip, r3]
41002190:	e3a00014 	mov	r0, #20
41002194:	e1a03002 	mov	r3, r2
41002198:	e1a02103 	lsl	r2, r3, #2
4100219c:	e1a03182 	lsl	r3, r2, #3
410021a0:	e0623003 	rsb	r3, r2, r3
410021a4:	e0813003 	add	r3, r1, r3
410021a8:	e0832000 	add	r2, r3, r0
410021ac:	e3a03014 	mov	r3, #20
410021b0:	e5823000 	str	r3, [r2]
410021b4:	e59f3114 	ldr	r3, [pc, #276]	; 410022d0 <mq_open+0x2f4>
410021b8:	e51b0024 	ldr	r0, [fp, #-36]	; 0xffffffdc
410021bc:	e7903003 	ldr	r3, [r0, r3]
410021c0:	e5932000 	ldr	r2, [r3]
410021c4:	e59f3114 	ldr	r3, [pc, #276]	; 410022e0 <mq_open+0x304>
410021c8:	e51bc024 	ldr	ip, [fp, #-36]	; 0xffffffdc
410021cc:	e79c1003 	ldr	r1, [ip, r3]
410021d0:	e1a03002 	mov	r3, r2
410021d4:	e1a02103 	lsl	r2, r3, #2
410021d8:	e1a03102 	lsl	r3, r2, #2
410021dc:	e0623003 	rsb	r3, r2, r3
410021e0:	e0812003 	add	r2, r1, r3
410021e4:	e3a03003 	mov	r3, #3
410021e8:	e5823000 	str	r3, [r2]
410021ec:	e59f30dc 	ldr	r3, [pc, #220]	; 410022d0 <mq_open+0x2f4>
410021f0:	e51b0024 	ldr	r0, [fp, #-36]	; 0xffffffdc
410021f4:	e7903003 	ldr	r3, [r0, r3]
410021f8:	e5932000 	ldr	r2, [r3]
410021fc:	e59f30dc 	ldr	r3, [pc, #220]	; 410022e0 <mq_open+0x304>
41002200:	e51bc024 	ldr	ip, [fp, #-36]	; 0xffffffdc
41002204:	e79c1003 	ldr	r1, [ip, r3]
41002208:	e3a00004 	mov	r0, #4
4100220c:	e1a03002 	mov	r3, r2
41002210:	e1a02103 	lsl	r2, r3, #2
41002214:	e1a03102 	lsl	r3, r2, #2
41002218:	e0623003 	rsb	r3, r2, r3
4100221c:	e0813003 	add	r3, r1, r3
41002220:	e0832000 	add	r2, r3, r0
41002224:	e3a03014 	mov	r3, #20
41002228:	e5823000 	str	r3, [r2]
4100222c:	e59f309c 	ldr	r3, [pc, #156]	; 410022d0 <mq_open+0x2f4>
41002230:	e51b0024 	ldr	r0, [fp, #-36]	; 0xffffffdc
41002234:	e7903003 	ldr	r3, [r0, r3]
41002238:	e5932000 	ldr	r2, [r3]
4100223c:	e59f308c 	ldr	r3, [pc, #140]	; 410022d0 <mq_open+0x2f4>
41002240:	e51b1024 	ldr	r1, [fp, #-36]	; 0xffffffdc
41002244:	e7913003 	ldr	r3, [r1, r3]
41002248:	e5931000 	ldr	r1, [r3]
4100224c:	e59f308c 	ldr	r3, [pc, #140]	; 410022e0 <mq_open+0x304>
41002250:	e51bc024 	ldr	ip, [fp, #-36]	; 0xffffffdc
41002254:	e79c0003 	ldr	r0, [ip, r3]
41002258:	e3a0c008 	mov	ip, #8
4100225c:	e1a03002 	mov	r3, r2
41002260:	e1a02103 	lsl	r2, r3, #2
41002264:	e1a03102 	lsl	r3, r2, #2
41002268:	e0623003 	rsb	r3, r2, r3
4100226c:	e0803003 	add	r3, r0, r3
41002270:	e083300c 	add	r3, r3, ip
41002274:	e5831000 	str	r1, [r3]
41002278:	e59f3050 	ldr	r3, [pc, #80]	; 410022d0 <mq_open+0x2f4>
4100227c:	e51b0024 	ldr	r0, [fp, #-36]	; 0xffffffdc
41002280:	e7903003 	ldr	r3, [r0, r3]
41002284:	e5933000 	ldr	r3, [r3]
41002288:	e50b3010 	str	r3, [fp, #-16]
4100228c:	e59f303c 	ldr	r3, [pc, #60]	; 410022d0 <mq_open+0x2f4>
41002290:	e51b1024 	ldr	r1, [fp, #-36]	; 0xffffffdc
41002294:	e7913003 	ldr	r3, [r1, r3]
41002298:	e5933000 	ldr	r3, [r3]
4100229c:	e2832001 	add	r2, r3, #1
410022a0:	e59f3028 	ldr	r3, [pc, #40]	; 410022d0 <mq_open+0x2f4>
410022a4:	e51bc024 	ldr	ip, [fp, #-36]	; 0xffffffdc
410022a8:	e79c3003 	ldr	r3, [ip, r3]
410022ac:	e5832000 	str	r2, [r3]
410022b0:	eb000ee7 	bl	41005e54 <vk_scheduler_unlock>
410022b4:	e51b0010 	ldr	r0, [fp, #-16]
410022b8:	e50b0020 	str	r0, [fp, #-32]	; 0xffffffe0
410022bc:	e51b3020 	ldr	r3, [fp, #-32]	; 0xffffffe0
410022c0:	e1a00003 	mov	r0, r3
410022c4:	e24bd00c 	sub	sp, fp, #12
410022c8:	e89da800 	ldm	sp, {fp, sp, pc}
410022cc:	00009080 	.word	0x00009080
410022d0:	00000060 	.word	0x00000060
410022d4:	fffff7c8 	.word	0xfffff7c8
410022d8:	000000dc 	.word	0x000000dc
410022dc:	000000d8 	.word	0x000000d8
410022e0:	000000d4 	.word	0x000000d4

410022e4 <mq_send>:
410022e4:	e1a0c00d 	mov	ip, sp
410022e8:	e92dd830 	push	{r4, r5, fp, ip, lr, pc}
410022ec:	e24cb004 	sub	fp, ip, #4
410022f0:	e24dd020 	sub	sp, sp, #32
410022f4:	e59fc4f0 	ldr	ip, [pc, #1264]	; 410027ec <mq_send+0x508>
410022f8:	e50bc034 	str	ip, [fp, #-52]	; 0xffffffcc
410022fc:	e51bc034 	ldr	ip, [fp, #-52]	; 0xffffffcc
41002300:	e08fc00c 	add	ip, pc, ip
41002304:	e50bc034 	str	ip, [fp, #-52]	; 0xffffffcc
41002308:	e50b0020 	str	r0, [fp, #-32]	; 0xffffffe0
4100230c:	e50b1024 	str	r1, [fp, #-36]	; 0xffffffdc
41002310:	e50b2028 	str	r2, [fp, #-40]	; 0xffffffd8
41002314:	e50b302c 	str	r3, [fp, #-44]	; 0xffffffd4
41002318:	e51b3020 	ldr	r3, [fp, #-32]	; 0xffffffe0
4100231c:	e3530000 	cmp	r3, #0
41002320:	aa000007 	bge	41002344 <mq_send+0x60>
41002324:	e59f34c4 	ldr	r3, [pc, #1220]	; 410027f0 <mq_send+0x50c>
41002328:	e51b0034 	ldr	r0, [fp, #-52]	; 0xffffffcc
4100232c:	e0803003 	add	r3, r0, r3
41002330:	e1a00003 	mov	r0, r3
41002334:	eb0009a1 	bl	410049c0 <printk>
41002338:	e3e01000 	mvn	r1, #0
4100233c:	e50b1030 	str	r1, [fp, #-48]	; 0xffffffd0
41002340:	ea000125 	b	410027dc <mq_send+0x4f8>
41002344:	e59f34a8 	ldr	r3, [pc, #1192]	; 410027f4 <mq_send+0x510>
41002348:	e51b2034 	ldr	r2, [fp, #-52]	; 0xffffffcc
4100234c:	e0823003 	add	r3, r2, r3
41002350:	e1a00003 	mov	r0, r3
41002354:	e59f349c 	ldr	r3, [pc, #1180]	; 410027f8 <mq_send+0x514>
41002358:	e51bc034 	ldr	ip, [fp, #-52]	; 0xffffffcc
4100235c:	e08c3003 	add	r3, ip, r3
41002360:	e1a01003 	mov	r1, r3
41002364:	e51b2020 	ldr	r2, [fp, #-32]	; 0xffffffe0
41002368:	eb000994 	bl	410049c0 <printk>
4100236c:	e51b2020 	ldr	r2, [fp, #-32]	; 0xffffffe0
41002370:	e59f3484 	ldr	r3, [pc, #1156]	; 410027fc <mq_send+0x518>
41002374:	e51b0034 	ldr	r0, [fp, #-52]	; 0xffffffcc
41002378:	e7901003 	ldr	r1, [r0, r3]
4100237c:	e3a00010 	mov	r0, #16
41002380:	e1a03002 	mov	r3, r2
41002384:	e1a02103 	lsl	r2, r3, #2
41002388:	e1a03182 	lsl	r3, r2, #3
4100238c:	e0623003 	rsb	r3, r2, r3
41002390:	e0813003 	add	r3, r1, r3
41002394:	e0833000 	add	r3, r3, r0
41002398:	e5933000 	ldr	r3, [r3]
4100239c:	e3530006 	cmp	r3, #6
410023a0:	da00000c 	ble	410023d8 <mq_send+0xf4>
410023a4:	e59f3454 	ldr	r3, [pc, #1108]	; 41002800 <mq_send+0x51c>
410023a8:	e51b1034 	ldr	r1, [fp, #-52]	; 0xffffffcc
410023ac:	e0813003 	add	r3, r1, r3
410023b0:	e1a00003 	mov	r0, r3
410023b4:	e59f343c 	ldr	r3, [pc, #1084]	; 410027f8 <mq_send+0x514>
410023b8:	e51b2034 	ldr	r2, [fp, #-52]	; 0xffffffcc
410023bc:	e0823003 	add	r3, r2, r3
410023c0:	e1a01003 	mov	r1, r3
410023c4:	e3a0203d 	mov	r2, #61	; 0x3d
410023c8:	eb00097c 	bl	410049c0 <printk>
410023cc:	e3a03001 	mov	r3, #1
410023d0:	e50b3030 	str	r3, [fp, #-48]	; 0xffffffd0
410023d4:	ea000100 	b	410027dc <mq_send+0x4f8>
410023d8:	e51b2020 	ldr	r2, [fp, #-32]	; 0xffffffe0
410023dc:	e59f3418 	ldr	r3, [pc, #1048]	; 410027fc <mq_send+0x518>
410023e0:	e51bc034 	ldr	ip, [fp, #-52]	; 0xffffffcc
410023e4:	e79c1003 	ldr	r1, [ip, r3]
410023e8:	e3a00014 	mov	r0, #20
410023ec:	e1a03002 	mov	r3, r2
410023f0:	e1a02103 	lsl	r2, r3, #2
410023f4:	e1a03182 	lsl	r3, r2, #3
410023f8:	e0623003 	rsb	r3, r2, r3
410023fc:	e0813003 	add	r3, r1, r3
41002400:	e0833000 	add	r3, r3, r0
41002404:	e5933000 	ldr	r3, [r3]
41002408:	e1a02003 	mov	r2, r3
4100240c:	e51b3028 	ldr	r3, [fp, #-40]	; 0xffffffd8
41002410:	e1520003 	cmp	r2, r3
41002414:	3a0000e9 	bcc	410027c0 <mq_send+0x4dc>
41002418:	e59f33e4 	ldr	r3, [pc, #996]	; 41002804 <mq_send+0x520>
4100241c:	e51b0034 	ldr	r0, [fp, #-52]	; 0xffffffcc
41002420:	e0803003 	add	r3, r0, r3
41002424:	e1a00003 	mov	r0, r3
41002428:	e59f33c8 	ldr	r3, [pc, #968]	; 410027f8 <mq_send+0x514>
4100242c:	e51b1034 	ldr	r1, [fp, #-52]	; 0xffffffcc
41002430:	e0813003 	add	r3, r1, r3
41002434:	e1a01003 	mov	r1, r3
41002438:	eb000960 	bl	410049c0 <printk>
4100243c:	e3a03000 	mov	r3, #0
41002440:	e50b3018 	str	r3, [fp, #-24]	; 0xffffffe8
41002444:	ea000050 	b	4100258c <mq_send+0x2a8>
41002448:	e51bc020 	ldr	ip, [fp, #-32]	; 0xffffffe0
4100244c:	e51b2020 	ldr	r2, [fp, #-32]	; 0xffffffe0
41002450:	e59f33a4 	ldr	r3, [pc, #932]	; 410027fc <mq_send+0x518>
41002454:	e51b0034 	ldr	r0, [fp, #-52]	; 0xffffffcc
41002458:	e7901003 	ldr	r1, [r0, r3]
4100245c:	e3a00004 	mov	r0, #4
41002460:	e1a03002 	mov	r3, r2
41002464:	e1a02103 	lsl	r2, r3, #2
41002468:	e1a03182 	lsl	r3, r2, #3
4100246c:	e0623003 	rsb	r3, r2, r3
41002470:	e0813003 	add	r3, r1, r3
41002474:	e0833000 	add	r3, r3, r0
41002478:	e5931000 	ldr	r1, [r3]
4100247c:	e51b0018 	ldr	r0, [fp, #-24]	; 0xffffffe8
41002480:	e51b2018 	ldr	r2, [fp, #-24]	; 0xffffffe8
41002484:	e51b3024 	ldr	r3, [fp, #-36]	; 0xffffffdc
41002488:	e0833002 	add	r3, r3, r2
4100248c:	e5d3e000 	ldrb	lr, [r3]
41002490:	e59f3370 	ldr	r3, [pc, #880]	; 41002808 <mq_send+0x524>
41002494:	e51b2034 	ldr	r2, [fp, #-52]	; 0xffffffcc
41002498:	e7924003 	ldr	r4, [r2, r3]
4100249c:	e3a05010 	mov	r5, #16
410024a0:	e1a03001 	mov	r3, r1
410024a4:	e1a01183 	lsl	r1, r3, #3
410024a8:	e1a03101 	lsl	r3, r1, #2
410024ac:	e0811003 	add	r1, r1, r3
410024b0:	e1a0300c 	mov	r3, ip
410024b4:	e1a02183 	lsl	r2, r3, #3
410024b8:	e1a03102 	lsl	r3, r2, #2
410024bc:	e0822003 	add	r2, r2, r3
410024c0:	e1a03182 	lsl	r3, r2, #3
410024c4:	e0623003 	rsb	r3, r2, r3
410024c8:	e0813003 	add	r3, r1, r3
410024cc:	e0843003 	add	r3, r4, r3
410024d0:	e0833000 	add	r3, r3, r0
410024d4:	e0832005 	add	r2, r3, r5
410024d8:	e1a0300e 	mov	r3, lr
410024dc:	e5c23002 	strb	r3, [r2, #2]
410024e0:	e51bc020 	ldr	ip, [fp, #-32]	; 0xffffffe0
410024e4:	e51b2020 	ldr	r2, [fp, #-32]	; 0xffffffe0
410024e8:	e59f330c 	ldr	r3, [pc, #780]	; 410027fc <mq_send+0x518>
410024ec:	e51b0034 	ldr	r0, [fp, #-52]	; 0xffffffcc
410024f0:	e7901003 	ldr	r1, [r0, r3]
410024f4:	e3a00004 	mov	r0, #4
410024f8:	e1a03002 	mov	r3, r2
410024fc:	e1a02103 	lsl	r2, r3, #2
41002500:	e1a03182 	lsl	r3, r2, #3
41002504:	e0623003 	rsb	r3, r2, r3
41002508:	e0813003 	add	r3, r1, r3
4100250c:	e0833000 	add	r3, r3, r0
41002510:	e5932000 	ldr	r2, [r3]
41002514:	e51b0018 	ldr	r0, [fp, #-24]	; 0xffffffe8
41002518:	e59f32e8 	ldr	r3, [pc, #744]	; 41002808 <mq_send+0x524>
4100251c:	e51b1034 	ldr	r1, [fp, #-52]	; 0xffffffcc
41002520:	e791e003 	ldr	lr, [r1, r3]
41002524:	e3a04010 	mov	r4, #16
41002528:	e1a03002 	mov	r3, r2
4100252c:	e1a01183 	lsl	r1, r3, #3
41002530:	e1a03101 	lsl	r3, r1, #2
41002534:	e0811003 	add	r1, r1, r3
41002538:	e1a0300c 	mov	r3, ip
4100253c:	e1a02183 	lsl	r2, r3, #3
41002540:	e1a03102 	lsl	r3, r2, #2
41002544:	e0822003 	add	r2, r2, r3
41002548:	e1a03182 	lsl	r3, r2, #3
4100254c:	e0623003 	rsb	r3, r2, r3
41002550:	e0813003 	add	r3, r1, r3
41002554:	e08e3003 	add	r3, lr, r3
41002558:	e0833000 	add	r3, r3, r0
4100255c:	e0833004 	add	r3, r3, r4
41002560:	e5d33002 	ldrb	r3, [r3, #2]
41002564:	e1a02003 	mov	r2, r3
41002568:	e59f329c 	ldr	r3, [pc, #668]	; 4100280c <mq_send+0x528>
4100256c:	e51bc034 	ldr	ip, [fp, #-52]	; 0xffffffcc
41002570:	e08c3003 	add	r3, ip, r3
41002574:	e1a00003 	mov	r0, r3
41002578:	e1a01002 	mov	r1, r2
4100257c:	eb00090f 	bl	410049c0 <printk>
41002580:	e51b3018 	ldr	r3, [fp, #-24]	; 0xffffffe8
41002584:	e2833001 	add	r3, r3, #1
41002588:	e50b3018 	str	r3, [fp, #-24]	; 0xffffffe8
4100258c:	e51b2018 	ldr	r2, [fp, #-24]	; 0xffffffe8
41002590:	e51b3028 	ldr	r3, [fp, #-40]	; 0xffffffd8
41002594:	e1520003 	cmp	r2, r3
41002598:	3affffaa 	bcc	41002448 <mq_send+0x164>
4100259c:	e59f326c 	ldr	r3, [pc, #620]	; 41002810 <mq_send+0x52c>
410025a0:	e51b0034 	ldr	r0, [fp, #-52]	; 0xffffffcc
410025a4:	e0803003 	add	r3, r0, r3
410025a8:	e1a00003 	mov	r0, r3
410025ac:	eb000903 	bl	410049c0 <printk>
410025b0:	e51bc020 	ldr	ip, [fp, #-32]	; 0xffffffe0
410025b4:	e51b2020 	ldr	r2, [fp, #-32]	; 0xffffffe0
410025b8:	e59f323c 	ldr	r3, [pc, #572]	; 410027fc <mq_send+0x518>
410025bc:	e51b0034 	ldr	r0, [fp, #-52]	; 0xffffffcc
410025c0:	e7901003 	ldr	r1, [r0, r3]
410025c4:	e3a00004 	mov	r0, #4
410025c8:	e1a03002 	mov	r3, r2
410025cc:	e1a02103 	lsl	r2, r3, #2
410025d0:	e1a03182 	lsl	r3, r2, #3
410025d4:	e0623003 	rsb	r3, r2, r3
410025d8:	e0813003 	add	r3, r1, r3
410025dc:	e0833000 	add	r3, r3, r0
410025e0:	e5932000 	ldr	r2, [r3]
410025e4:	e51b0018 	ldr	r0, [fp, #-24]	; 0xffffffe8
410025e8:	e59f3218 	ldr	r3, [pc, #536]	; 41002808 <mq_send+0x524>
410025ec:	e51b1034 	ldr	r1, [fp, #-52]	; 0xffffffcc
410025f0:	e7914003 	ldr	r4, [r1, r3]
410025f4:	e3a05010 	mov	r5, #16
410025f8:	e1a03002 	mov	r3, r2
410025fc:	e1a01183 	lsl	r1, r3, #3
41002600:	e1a03101 	lsl	r3, r1, #2
41002604:	e0811003 	add	r1, r1, r3
41002608:	e1a0300c 	mov	r3, ip
4100260c:	e1a02183 	lsl	r2, r3, #3
41002610:	e1a03102 	lsl	r3, r2, #2
41002614:	e0822003 	add	r2, r2, r3
41002618:	e1a03182 	lsl	r3, r2, #3
4100261c:	e0623003 	rsb	r3, r2, r3
41002620:	e0813003 	add	r3, r1, r3
41002624:	e0843003 	add	r3, r4, r3
41002628:	e0833000 	add	r3, r3, r0
4100262c:	e0832005 	add	r2, r3, r5
41002630:	e3a03000 	mov	r3, #0
41002634:	e5c23002 	strb	r3, [r2, #2]
41002638:	e51b1020 	ldr	r1, [fp, #-32]	; 0xffffffe0
4100263c:	e59f31b8 	ldr	r3, [pc, #440]	; 410027fc <mq_send+0x518>
41002640:	e51b2034 	ldr	r2, [fp, #-52]	; 0xffffffcc
41002644:	e7920003 	ldr	r0, [r2, r3]
41002648:	e3a0c004 	mov	ip, #4
4100264c:	e1a03001 	mov	r3, r1
41002650:	e1a02103 	lsl	r2, r3, #2
41002654:	e1a03182 	lsl	r3, r2, #3
41002658:	e0623003 	rsb	r3, r2, r3
4100265c:	e0803003 	add	r3, r0, r3
41002660:	e083300c 	add	r3, r3, ip
41002664:	e5933000 	ldr	r3, [r3]
41002668:	e2830001 	add	r0, r3, #1
4100266c:	e59f3188 	ldr	r3, [pc, #392]	; 410027fc <mq_send+0x518>
41002670:	e51b2034 	ldr	r2, [fp, #-52]	; 0xffffffcc
41002674:	e792c003 	ldr	ip, [r2, r3]
41002678:	e3a04004 	mov	r4, #4
4100267c:	e1a03001 	mov	r3, r1
41002680:	e1a02103 	lsl	r2, r3, #2
41002684:	e1a03182 	lsl	r3, r2, #3
41002688:	e0623003 	rsb	r3, r2, r3
4100268c:	e08c3003 	add	r3, ip, r3
41002690:	e0833004 	add	r3, r3, r4
41002694:	e5830000 	str	r0, [r3]
41002698:	e51b2020 	ldr	r2, [fp, #-32]	; 0xffffffe0
4100269c:	e59f3158 	ldr	r3, [pc, #344]	; 410027fc <mq_send+0x518>
410026a0:	e51bc034 	ldr	ip, [fp, #-52]	; 0xffffffcc
410026a4:	e79c1003 	ldr	r1, [ip, r3]
410026a8:	e3a00004 	mov	r0, #4
410026ac:	e1a03002 	mov	r3, r2
410026b0:	e1a02103 	lsl	r2, r3, #2
410026b4:	e1a03182 	lsl	r3, r2, #3
410026b8:	e0623003 	rsb	r3, r2, r3
410026bc:	e0813003 	add	r3, r1, r3
410026c0:	e0833000 	add	r3, r3, r0
410026c4:	e593c000 	ldr	ip, [r3]
410026c8:	e51b2020 	ldr	r2, [fp, #-32]	; 0xffffffe0
410026cc:	e59f3128 	ldr	r3, [pc, #296]	; 410027fc <mq_send+0x518>
410026d0:	e51b0034 	ldr	r0, [fp, #-52]	; 0xffffffcc
410026d4:	e7901003 	ldr	r1, [r0, r3]
410026d8:	e3a0000c 	mov	r0, #12
410026dc:	e1a03002 	mov	r3, r2
410026e0:	e1a02103 	lsl	r2, r3, #2
410026e4:	e1a03182 	lsl	r3, r2, #3
410026e8:	e0623003 	rsb	r3, r2, r3
410026ec:	e0813003 	add	r3, r1, r3
410026f0:	e0833000 	add	r3, r3, r0
410026f4:	e5933000 	ldr	r3, [r3]
410026f8:	e15c0003 	cmp	ip, r3
410026fc:	1a00000c 	bne	41002734 <mq_send+0x450>
41002700:	e51b2020 	ldr	r2, [fp, #-32]	; 0xffffffe0
41002704:	e59f30f0 	ldr	r3, [pc, #240]	; 410027fc <mq_send+0x518>
41002708:	e51bc034 	ldr	ip, [fp, #-52]	; 0xffffffcc
4100270c:	e79c1003 	ldr	r1, [ip, r3]
41002710:	e3a00004 	mov	r0, #4
41002714:	e1a03002 	mov	r3, r2
41002718:	e1a02103 	lsl	r2, r3, #2
4100271c:	e1a03182 	lsl	r3, r2, #3
41002720:	e0623003 	rsb	r3, r2, r3
41002724:	e0813003 	add	r3, r1, r3
41002728:	e0832000 	add	r2, r3, r0
4100272c:	e3a03000 	mov	r3, #0
41002730:	e5823000 	str	r3, [r2]
41002734:	e51b1020 	ldr	r1, [fp, #-32]	; 0xffffffe0
41002738:	e59f30bc 	ldr	r3, [pc, #188]	; 410027fc <mq_send+0x518>
4100273c:	e51b2034 	ldr	r2, [fp, #-52]	; 0xffffffcc
41002740:	e7920003 	ldr	r0, [r2, r3]
41002744:	e3a0c010 	mov	ip, #16
41002748:	e1a03001 	mov	r3, r1
4100274c:	e1a02103 	lsl	r2, r3, #2
41002750:	e1a03182 	lsl	r3, r2, #3
41002754:	e0623003 	rsb	r3, r2, r3
41002758:	e0803003 	add	r3, r0, r3
4100275c:	e083300c 	add	r3, r3, ip
41002760:	e5933000 	ldr	r3, [r3]
41002764:	e2830001 	add	r0, r3, #1
41002768:	e59f308c 	ldr	r3, [pc, #140]	; 410027fc <mq_send+0x518>
4100276c:	e51b2034 	ldr	r2, [fp, #-52]	; 0xffffffcc
41002770:	e792c003 	ldr	ip, [r2, r3]
41002774:	e3a0e010 	mov	lr, #16
41002778:	e1a03001 	mov	r3, r1
4100277c:	e1a02103 	lsl	r2, r3, #2
41002780:	e1a03182 	lsl	r3, r2, #3
41002784:	e0623003 	rsb	r3, r2, r3
41002788:	e08c3003 	add	r3, ip, r3
4100278c:	e083300e 	add	r3, r3, lr
41002790:	e5830000 	str	r0, [r3]
41002794:	e51b3020 	ldr	r3, [fp, #-32]	; 0xffffffe0
41002798:	e1a02103 	lsl	r2, r3, #2
4100279c:	e59f3070 	ldr	r3, [pc, #112]	; 41002814 <mq_send+0x530>
410027a0:	e51bc034 	ldr	ip, [fp, #-52]	; 0xffffffcc
410027a4:	e79c3003 	ldr	r3, [ip, r3]
410027a8:	e0823003 	add	r3, r2, r3
410027ac:	e1a00003 	mov	r0, r3
410027b0:	eb000fd2 	bl	41006700 <sem_post>
410027b4:	e3a00000 	mov	r0, #0
410027b8:	e50b0030 	str	r0, [fp, #-48]	; 0xffffffd0
410027bc:	ea000006 	b	410027dc <mq_send+0x4f8>
410027c0:	e59f3050 	ldr	r3, [pc, #80]	; 41002818 <mq_send+0x534>
410027c4:	e51b1034 	ldr	r1, [fp, #-52]	; 0xffffffcc
410027c8:	e0813003 	add	r3, r1, r3
410027cc:	e1a00003 	mov	r0, r3
410027d0:	eb00087a 	bl	410049c0 <printk>
410027d4:	e3e02000 	mvn	r2, #0
410027d8:	e50b2030 	str	r2, [fp, #-48]	; 0xffffffd0
410027dc:	e51b3030 	ldr	r3, [fp, #-48]	; 0xffffffd0
410027e0:	e1a00003 	mov	r0, r3
410027e4:	e24bd014 	sub	sp, fp, #20
410027e8:	e89da830 	ldm	sp, {r4, r5, fp, sp, pc}
410027ec:	00008d78 	.word	0x00008d78
410027f0:	fffff7e8 	.word	0xfffff7e8
410027f4:	fffff800 	.word	0xfffff800
410027f8:	fffff7e0 	.word	0xfffff7e0
410027fc:	000000d8 	.word	0x000000d8
41002800:	fffff818 	.word	0xfffff818
41002804:	fffff83c 	.word	0xfffff83c
41002808:	00000088 	.word	0x00000088
4100280c:	fffff85c 	.word	0xfffff85c
41002810:	fffff860 	.word	0xfffff860
41002814:	000000dc 	.word	0x000000dc
41002818:	fffff864 	.word	0xfffff864

4100281c <mq_receive>:
4100281c:	e1a0c00d 	mov	ip, sp
41002820:	e92dd830 	push	{r4, r5, fp, ip, lr, pc}
41002824:	e24cb004 	sub	fp, ip, #4
41002828:	e24dd020 	sub	sp, sp, #32
4100282c:	e59fc40c 	ldr	ip, [pc, #1036]	; 41002c40 <mq_receive+0x424>
41002830:	e50bc034 	str	ip, [fp, #-52]	; 0xffffffcc
41002834:	e51bc034 	ldr	ip, [fp, #-52]	; 0xffffffcc
41002838:	e08fc00c 	add	ip, pc, ip
4100283c:	e50bc034 	str	ip, [fp, #-52]	; 0xffffffcc
41002840:	e50b0020 	str	r0, [fp, #-32]	; 0xffffffe0
41002844:	e50b1024 	str	r1, [fp, #-36]	; 0xffffffdc
41002848:	e50b2028 	str	r2, [fp, #-40]	; 0xffffffd8
4100284c:	e50b302c 	str	r3, [fp, #-44]	; 0xffffffd4
41002850:	e3a03000 	mov	r3, #0
41002854:	e50b3018 	str	r3, [fp, #-24]	; 0xffffffe8
41002858:	e51b3020 	ldr	r3, [fp, #-32]	; 0xffffffe0
4100285c:	e3530000 	cmp	r3, #0
41002860:	aa000007 	bge	41002884 <mq_receive+0x68>
41002864:	e59f33d8 	ldr	r3, [pc, #984]	; 41002c44 <mq_receive+0x428>
41002868:	e51b0034 	ldr	r0, [fp, #-52]	; 0xffffffcc
4100286c:	e0803003 	add	r3, r0, r3
41002870:	e1a00003 	mov	r0, r3
41002874:	eb000851 	bl	410049c0 <printk>
41002878:	e3e01000 	mvn	r1, #0
4100287c:	e50b1030 	str	r1, [fp, #-48]	; 0xffffffd0
41002880:	ea0000ea 	b	41002c30 <mq_receive+0x414>
41002884:	e51b3020 	ldr	r3, [fp, #-32]	; 0xffffffe0
41002888:	e1a02103 	lsl	r2, r3, #2
4100288c:	e59f33b4 	ldr	r3, [pc, #948]	; 41002c48 <mq_receive+0x42c>
41002890:	e51bc034 	ldr	ip, [fp, #-52]	; 0xffffffcc
41002894:	e79c3003 	ldr	r3, [ip, r3]
41002898:	e0823003 	add	r3, r2, r3
4100289c:	e1a00003 	mov	r0, r3
410028a0:	eb000ebe 	bl	410063a0 <sem_wait>
410028a4:	e51b2020 	ldr	r2, [fp, #-32]	; 0xffffffe0
410028a8:	e59f339c 	ldr	r3, [pc, #924]	; 41002c4c <mq_receive+0x430>
410028ac:	e51b0034 	ldr	r0, [fp, #-52]	; 0xffffffcc
410028b0:	e7901003 	ldr	r1, [r0, r3]
410028b4:	e3a00010 	mov	r0, #16
410028b8:	e1a03002 	mov	r3, r2
410028bc:	e1a02103 	lsl	r2, r3, #2
410028c0:	e1a03182 	lsl	r3, r2, #3
410028c4:	e0623003 	rsb	r3, r2, r3
410028c8:	e0813003 	add	r3, r1, r3
410028cc:	e0833000 	add	r3, r3, r0
410028d0:	e5933000 	ldr	r3, [r3]
410028d4:	e3530000 	cmp	r3, #0
410028d8:	da0000cd 	ble	41002c14 <mq_receive+0x3f8>
410028dc:	e51b2020 	ldr	r2, [fp, #-32]	; 0xffffffe0
410028e0:	e59f3364 	ldr	r3, [pc, #868]	; 41002c4c <mq_receive+0x430>
410028e4:	e51bc034 	ldr	ip, [fp, #-52]	; 0xffffffcc
410028e8:	e79c1003 	ldr	r1, [ip, r3]
410028ec:	e3a00014 	mov	r0, #20
410028f0:	e1a03002 	mov	r3, r2
410028f4:	e1a02103 	lsl	r2, r3, #2
410028f8:	e1a03182 	lsl	r3, r2, #3
410028fc:	e0623003 	rsb	r3, r2, r3
41002900:	e0813003 	add	r3, r1, r3
41002904:	e0833000 	add	r3, r3, r0
41002908:	e5933000 	ldr	r3, [r3]
4100290c:	e1a02003 	mov	r2, r3
41002910:	e51b3028 	ldr	r3, [fp, #-40]	; 0xffffffd8
41002914:	e1520003 	cmp	r2, r3
41002918:	8a0000b5 	bhi	41002bf4 <mq_receive+0x3d8>
4100291c:	e3a03000 	mov	r3, #0
41002920:	e50b301c 	str	r3, [fp, #-28]	; 0xffffffe4
41002924:	ea000035 	b	41002a00 <mq_receive+0x1e4>
41002928:	e51b201c 	ldr	r2, [fp, #-28]	; 0xffffffe4
4100292c:	e51b3024 	ldr	r3, [fp, #-36]	; 0xffffffdc
41002930:	e083c002 	add	ip, r3, r2
41002934:	e51be020 	ldr	lr, [fp, #-32]	; 0xffffffe0
41002938:	e51b2020 	ldr	r2, [fp, #-32]	; 0xffffffe0
4100293c:	e59f3308 	ldr	r3, [pc, #776]	; 41002c4c <mq_receive+0x430>
41002940:	e51b0034 	ldr	r0, [fp, #-52]	; 0xffffffcc
41002944:	e7901003 	ldr	r1, [r0, r3]
41002948:	e3a00008 	mov	r0, #8
4100294c:	e1a03002 	mov	r3, r2
41002950:	e1a02103 	lsl	r2, r3, #2
41002954:	e1a03182 	lsl	r3, r2, #3
41002958:	e0623003 	rsb	r3, r2, r3
4100295c:	e0813003 	add	r3, r1, r3
41002960:	e0833000 	add	r3, r3, r0
41002964:	e5932000 	ldr	r2, [r3]
41002968:	e51b001c 	ldr	r0, [fp, #-28]	; 0xffffffe4
4100296c:	e59f32dc 	ldr	r3, [pc, #732]	; 41002c50 <mq_receive+0x434>
41002970:	e51b1034 	ldr	r1, [fp, #-52]	; 0xffffffcc
41002974:	e7914003 	ldr	r4, [r1, r3]
41002978:	e3a05010 	mov	r5, #16
4100297c:	e1a03002 	mov	r3, r2
41002980:	e1a01183 	lsl	r1, r3, #3
41002984:	e1a03101 	lsl	r3, r1, #2
41002988:	e0811003 	add	r1, r1, r3
4100298c:	e1a0300e 	mov	r3, lr
41002990:	e1a02183 	lsl	r2, r3, #3
41002994:	e1a03102 	lsl	r3, r2, #2
41002998:	e0822003 	add	r2, r2, r3
4100299c:	e1a03182 	lsl	r3, r2, #3
410029a0:	e0623003 	rsb	r3, r2, r3
410029a4:	e0813003 	add	r3, r1, r3
410029a8:	e0843003 	add	r3, r4, r3
410029ac:	e0833000 	add	r3, r3, r0
410029b0:	e0833005 	add	r3, r3, r5
410029b4:	e5d33002 	ldrb	r3, [r3, #2]
410029b8:	e5cc3000 	strb	r3, [ip]
410029bc:	e51b201c 	ldr	r2, [fp, #-28]	; 0xffffffe4
410029c0:	e51b3024 	ldr	r3, [fp, #-36]	; 0xffffffdc
410029c4:	e0833002 	add	r3, r3, r2
410029c8:	e5d33000 	ldrb	r3, [r3]
410029cc:	e1a02003 	mov	r2, r3
410029d0:	e59f327c 	ldr	r3, [pc, #636]	; 41002c54 <mq_receive+0x438>
410029d4:	e51bc034 	ldr	ip, [fp, #-52]	; 0xffffffcc
410029d8:	e08c3003 	add	r3, ip, r3
410029dc:	e1a00003 	mov	r0, r3
410029e0:	e1a01002 	mov	r1, r2
410029e4:	eb0007f5 	bl	410049c0 <printk>
410029e8:	e51b3018 	ldr	r3, [fp, #-24]	; 0xffffffe8
410029ec:	e2833001 	add	r3, r3, #1
410029f0:	e50b3018 	str	r3, [fp, #-24]	; 0xffffffe8
410029f4:	e51b301c 	ldr	r3, [fp, #-28]	; 0xffffffe4
410029f8:	e2833001 	add	r3, r3, #1
410029fc:	e50b301c 	str	r3, [fp, #-28]	; 0xffffffe4
41002a00:	e51bc020 	ldr	ip, [fp, #-32]	; 0xffffffe0
41002a04:	e51b2020 	ldr	r2, [fp, #-32]	; 0xffffffe0
41002a08:	e59f323c 	ldr	r3, [pc, #572]	; 41002c4c <mq_receive+0x430>
41002a0c:	e51b0034 	ldr	r0, [fp, #-52]	; 0xffffffcc
41002a10:	e7901003 	ldr	r1, [r0, r3]
41002a14:	e3a00008 	mov	r0, #8
41002a18:	e1a03002 	mov	r3, r2
41002a1c:	e1a02103 	lsl	r2, r3, #2
41002a20:	e1a03182 	lsl	r3, r2, #3
41002a24:	e0623003 	rsb	r3, r2, r3
41002a28:	e0813003 	add	r3, r1, r3
41002a2c:	e0833000 	add	r3, r3, r0
41002a30:	e5932000 	ldr	r2, [r3]
41002a34:	e51b001c 	ldr	r0, [fp, #-28]	; 0xffffffe4
41002a38:	e59f3210 	ldr	r3, [pc, #528]	; 41002c50 <mq_receive+0x434>
41002a3c:	e51b1034 	ldr	r1, [fp, #-52]	; 0xffffffcc
41002a40:	e7914003 	ldr	r4, [r1, r3]
41002a44:	e3a05010 	mov	r5, #16
41002a48:	e1a03002 	mov	r3, r2
41002a4c:	e1a01183 	lsl	r1, r3, #3
41002a50:	e1a03101 	lsl	r3, r1, #2
41002a54:	e0811003 	add	r1, r1, r3
41002a58:	e1a0300c 	mov	r3, ip
41002a5c:	e1a02183 	lsl	r2, r3, #3
41002a60:	e1a03102 	lsl	r3, r2, #2
41002a64:	e0822003 	add	r2, r2, r3
41002a68:	e1a03182 	lsl	r3, r2, #3
41002a6c:	e0623003 	rsb	r3, r2, r3
41002a70:	e0813003 	add	r3, r1, r3
41002a74:	e0843003 	add	r3, r4, r3
41002a78:	e0833000 	add	r3, r3, r0
41002a7c:	e0833005 	add	r3, r3, r5
41002a80:	e5d33002 	ldrb	r3, [r3, #2]
41002a84:	e3530000 	cmp	r3, #0
41002a88:	1affffa6 	bne	41002928 <mq_receive+0x10c>
41002a8c:	e51b1020 	ldr	r1, [fp, #-32]	; 0xffffffe0
41002a90:	e59f31b4 	ldr	r3, [pc, #436]	; 41002c4c <mq_receive+0x430>
41002a94:	e51b2034 	ldr	r2, [fp, #-52]	; 0xffffffcc
41002a98:	e7920003 	ldr	r0, [r2, r3]
41002a9c:	e3a0c008 	mov	ip, #8
41002aa0:	e1a03001 	mov	r3, r1
41002aa4:	e1a02103 	lsl	r2, r3, #2
41002aa8:	e1a03182 	lsl	r3, r2, #3
41002aac:	e0623003 	rsb	r3, r2, r3
41002ab0:	e0803003 	add	r3, r0, r3
41002ab4:	e083300c 	add	r3, r3, ip
41002ab8:	e5933000 	ldr	r3, [r3]
41002abc:	e2830001 	add	r0, r3, #1
41002ac0:	e59f3184 	ldr	r3, [pc, #388]	; 41002c4c <mq_receive+0x430>
41002ac4:	e51b2034 	ldr	r2, [fp, #-52]	; 0xffffffcc
41002ac8:	e792c003 	ldr	ip, [r2, r3]
41002acc:	e3a04008 	mov	r4, #8
41002ad0:	e1a03001 	mov	r3, r1
41002ad4:	e1a02103 	lsl	r2, r3, #2
41002ad8:	e1a03182 	lsl	r3, r2, #3
41002adc:	e0623003 	rsb	r3, r2, r3
41002ae0:	e08c3003 	add	r3, ip, r3
41002ae4:	e0833004 	add	r3, r3, r4
41002ae8:	e5830000 	str	r0, [r3]
41002aec:	e51b1020 	ldr	r1, [fp, #-32]	; 0xffffffe0
41002af0:	e59f3154 	ldr	r3, [pc, #340]	; 41002c4c <mq_receive+0x430>
41002af4:	e51bc034 	ldr	ip, [fp, #-52]	; 0xffffffcc
41002af8:	e79c0003 	ldr	r0, [ip, r3]
41002afc:	e3a0c010 	mov	ip, #16
41002b00:	e1a03001 	mov	r3, r1
41002b04:	e1a02103 	lsl	r2, r3, #2
41002b08:	e1a03182 	lsl	r3, r2, #3
41002b0c:	e0623003 	rsb	r3, r2, r3
41002b10:	e0803003 	add	r3, r0, r3
41002b14:	e083300c 	add	r3, r3, ip
41002b18:	e5933000 	ldr	r3, [r3]
41002b1c:	e2430001 	sub	r0, r3, #1
41002b20:	e59f3124 	ldr	r3, [pc, #292]	; 41002c4c <mq_receive+0x430>
41002b24:	e51b2034 	ldr	r2, [fp, #-52]	; 0xffffffcc
41002b28:	e792c003 	ldr	ip, [r2, r3]
41002b2c:	e3a04010 	mov	r4, #16
41002b30:	e1a03001 	mov	r3, r1
41002b34:	e1a02103 	lsl	r2, r3, #2
41002b38:	e1a03182 	lsl	r3, r2, #3
41002b3c:	e0623003 	rsb	r3, r2, r3
41002b40:	e08c3003 	add	r3, ip, r3
41002b44:	e0833004 	add	r3, r3, r4
41002b48:	e5830000 	str	r0, [r3]
41002b4c:	e51b2020 	ldr	r2, [fp, #-32]	; 0xffffffe0
41002b50:	e59f30f4 	ldr	r3, [pc, #244]	; 41002c4c <mq_receive+0x430>
41002b54:	e51bc034 	ldr	ip, [fp, #-52]	; 0xffffffcc
41002b58:	e79c1003 	ldr	r1, [ip, r3]
41002b5c:	e3a00008 	mov	r0, #8
41002b60:	e1a03002 	mov	r3, r2
41002b64:	e1a02103 	lsl	r2, r3, #2
41002b68:	e1a03182 	lsl	r3, r2, #3
41002b6c:	e0623003 	rsb	r3, r2, r3
41002b70:	e0813003 	add	r3, r1, r3
41002b74:	e0833000 	add	r3, r3, r0
41002b78:	e593c000 	ldr	ip, [r3]
41002b7c:	e51b2020 	ldr	r2, [fp, #-32]	; 0xffffffe0
41002b80:	e59f30c4 	ldr	r3, [pc, #196]	; 41002c4c <mq_receive+0x430>
41002b84:	e51b0034 	ldr	r0, [fp, #-52]	; 0xffffffcc
41002b88:	e7901003 	ldr	r1, [r0, r3]
41002b8c:	e3a0000c 	mov	r0, #12
41002b90:	e1a03002 	mov	r3, r2
41002b94:	e1a02103 	lsl	r2, r3, #2
41002b98:	e1a03182 	lsl	r3, r2, #3
41002b9c:	e0623003 	rsb	r3, r2, r3
41002ba0:	e0813003 	add	r3, r1, r3
41002ba4:	e0833000 	add	r3, r3, r0
41002ba8:	e5933000 	ldr	r3, [r3]
41002bac:	e15c0003 	cmp	ip, r3
41002bb0:	1a00000c 	bne	41002be8 <mq_receive+0x3cc>
41002bb4:	e51b2020 	ldr	r2, [fp, #-32]	; 0xffffffe0
41002bb8:	e59f308c 	ldr	r3, [pc, #140]	; 41002c4c <mq_receive+0x430>
41002bbc:	e51bc034 	ldr	ip, [fp, #-52]	; 0xffffffcc
41002bc0:	e79c1003 	ldr	r1, [ip, r3]
41002bc4:	e3a00008 	mov	r0, #8
41002bc8:	e1a03002 	mov	r3, r2
41002bcc:	e1a02103 	lsl	r2, r3, #2
41002bd0:	e1a03182 	lsl	r3, r2, #3
41002bd4:	e0623003 	rsb	r3, r2, r3
41002bd8:	e0813003 	add	r3, r1, r3
41002bdc:	e0832000 	add	r2, r3, r0
41002be0:	e3a03000 	mov	r3, #0
41002be4:	e5823000 	str	r3, [r2]
41002be8:	e51b0018 	ldr	r0, [fp, #-24]	; 0xffffffe8
41002bec:	e50b0030 	str	r0, [fp, #-48]	; 0xffffffd0
41002bf0:	ea00000e 	b	41002c30 <mq_receive+0x414>
41002bf4:	e59f305c 	ldr	r3, [pc, #92]	; 41002c58 <mq_receive+0x43c>
41002bf8:	e51b1034 	ldr	r1, [fp, #-52]	; 0xffffffcc
41002bfc:	e0813003 	add	r3, r1, r3
41002c00:	e1a00003 	mov	r0, r3
41002c04:	eb00076d 	bl	410049c0 <printk>
41002c08:	e3e02000 	mvn	r2, #0
41002c0c:	e50b2030 	str	r2, [fp, #-48]	; 0xffffffd0
41002c10:	ea000006 	b	41002c30 <mq_receive+0x414>
41002c14:	e59f3040 	ldr	r3, [pc, #64]	; 41002c5c <mq_receive+0x440>
41002c18:	e51bc034 	ldr	ip, [fp, #-52]	; 0xffffffcc
41002c1c:	e08c3003 	add	r3, ip, r3
41002c20:	e1a00003 	mov	r0, r3
41002c24:	eb000765 	bl	410049c0 <printk>
41002c28:	e3e00000 	mvn	r0, #0
41002c2c:	e50b0030 	str	r0, [fp, #-48]	; 0xffffffd0
41002c30:	e51b3030 	ldr	r3, [fp, #-48]	; 0xffffffd0
41002c34:	e1a00003 	mov	r0, r3
41002c38:	e24bd014 	sub	sp, fp, #20
41002c3c:	e89da830 	ldm	sp, {r4, r5, fp, sp, pc}
41002c40:	00008840 	.word	0x00008840
41002c44:	fffff7e8 	.word	0xfffff7e8
41002c48:	000000dc 	.word	0x000000dc
41002c4c:	000000d8 	.word	0x000000d8
41002c50:	00000088 	.word	0x00000088
41002c54:	fffff85c 	.word	0xfffff85c
41002c58:	fffff878 	.word	0xfffff878
41002c5c:	fffff890 	.word	0xfffff890

41002c60 <mq_getattr>:
41002c60:	e1a0c00d 	mov	ip, sp
41002c64:	e92dd800 	push	{fp, ip, lr, pc}
41002c68:	e24cb004 	sub	fp, ip, #4
41002c6c:	e24dd010 	sub	sp, sp, #16
41002c70:	e59f20f8 	ldr	r2, [pc, #248]	; 41002d70 <mq_getattr+0x110>
41002c74:	e50b201c 	str	r2, [fp, #-28]	; 0xffffffe4
41002c78:	e51b301c 	ldr	r3, [fp, #-28]	; 0xffffffe4
41002c7c:	e08f3003 	add	r3, pc, r3
41002c80:	e50b301c 	str	r3, [fp, #-28]	; 0xffffffe4
41002c84:	e50b0010 	str	r0, [fp, #-16]
41002c88:	e50b1014 	str	r1, [fp, #-20]	; 0xffffffec
41002c8c:	e51b3010 	ldr	r3, [fp, #-16]
41002c90:	e3530000 	cmp	r3, #0
41002c94:	aa000007 	bge	41002cb8 <mq_getattr+0x58>
41002c98:	e59f30d4 	ldr	r3, [pc, #212]	; 41002d74 <mq_getattr+0x114>
41002c9c:	e51b001c 	ldr	r0, [fp, #-28]	; 0xffffffe4
41002ca0:	e0803003 	add	r3, r0, r3
41002ca4:	e1a00003 	mov	r0, r3
41002ca8:	eb000744 	bl	410049c0 <printk>
41002cac:	e3e02000 	mvn	r2, #0
41002cb0:	e50b2018 	str	r2, [fp, #-24]	; 0xffffffe8
41002cb4:	ea000029 	b	41002d60 <mq_getattr+0x100>
41002cb8:	e51b2010 	ldr	r2, [fp, #-16]
41002cbc:	e59f30b4 	ldr	r3, [pc, #180]	; 41002d78 <mq_getattr+0x118>
41002cc0:	e51b001c 	ldr	r0, [fp, #-28]	; 0xffffffe4
41002cc4:	e7901003 	ldr	r1, [r0, r3]
41002cc8:	e1a03002 	mov	r3, r2
41002ccc:	e1a02103 	lsl	r2, r3, #2
41002cd0:	e1a03102 	lsl	r3, r2, #2
41002cd4:	e0623003 	rsb	r3, r2, r3
41002cd8:	e0813003 	add	r3, r1, r3
41002cdc:	e5932000 	ldr	r2, [r3]
41002ce0:	e51b3014 	ldr	r3, [fp, #-20]	; 0xffffffec
41002ce4:	e5832000 	str	r2, [r3]
41002ce8:	e51b2010 	ldr	r2, [fp, #-16]
41002cec:	e59f3084 	ldr	r3, [pc, #132]	; 41002d78 <mq_getattr+0x118>
41002cf0:	e51b001c 	ldr	r0, [fp, #-28]	; 0xffffffe4
41002cf4:	e7901003 	ldr	r1, [r0, r3]
41002cf8:	e3a00004 	mov	r0, #4
41002cfc:	e1a03002 	mov	r3, r2
41002d00:	e1a02103 	lsl	r2, r3, #2
41002d04:	e1a03102 	lsl	r3, r2, #2
41002d08:	e0623003 	rsb	r3, r2, r3
41002d0c:	e0813003 	add	r3, r1, r3
41002d10:	e0833000 	add	r3, r3, r0
41002d14:	e5932000 	ldr	r2, [r3]
41002d18:	e51b3014 	ldr	r3, [fp, #-20]	; 0xffffffec
41002d1c:	e5832004 	str	r2, [r3, #4]
41002d20:	e51b2010 	ldr	r2, [fp, #-16]
41002d24:	e59f304c 	ldr	r3, [pc, #76]	; 41002d78 <mq_getattr+0x118>
41002d28:	e51b001c 	ldr	r0, [fp, #-28]	; 0xffffffe4
41002d2c:	e7901003 	ldr	r1, [r0, r3]
41002d30:	e3a00008 	mov	r0, #8
41002d34:	e1a03002 	mov	r3, r2
41002d38:	e1a02103 	lsl	r2, r3, #2
41002d3c:	e1a03102 	lsl	r3, r2, #2
41002d40:	e0623003 	rsb	r3, r2, r3
41002d44:	e0813003 	add	r3, r1, r3
41002d48:	e0833000 	add	r3, r3, r0
41002d4c:	e5932000 	ldr	r2, [r3]
41002d50:	e51b3014 	ldr	r3, [fp, #-20]	; 0xffffffec
41002d54:	e5832008 	str	r2, [r3, #8]
41002d58:	e3a02000 	mov	r2, #0
41002d5c:	e50b2018 	str	r2, [fp, #-24]	; 0xffffffe8
41002d60:	e51b3018 	ldr	r3, [fp, #-24]	; 0xffffffe8
41002d64:	e1a00003 	mov	r0, r3
41002d68:	e24bd00c 	sub	sp, fp, #12
41002d6c:	e89da800 	ldm	sp, {fp, sp, pc}
41002d70:	000083fc 	.word	0x000083fc
41002d74:	fffff8b0 	.word	0xfffff8b0
41002d78:	000000d4 	.word	0x000000d4

41002d7c <mq_close>:
41002d7c:	e1a0c00d 	mov	ip, sp
41002d80:	e92dd810 	push	{r4, fp, ip, lr, pc}
41002d84:	e24cb004 	sub	fp, ip, #4
41002d88:	e24dd00c 	sub	sp, sp, #12
41002d8c:	e59f41b8 	ldr	r4, [pc, #440]	; 41002f4c <mq_close+0x1d0>
41002d90:	e08f4004 	add	r4, pc, r4
41002d94:	e50b0018 	str	r0, [fp, #-24]	; 0xffffffe8
41002d98:	eb000c13 	bl	41005dec <vk_scheduler_lock>
41002d9c:	e51b2018 	ldr	r2, [fp, #-24]	; 0xffffffe8
41002da0:	e59f31a8 	ldr	r3, [pc, #424]	; 41002f50 <mq_close+0x1d4>
41002da4:	e7941003 	ldr	r1, [r4, r3]
41002da8:	e3a00004 	mov	r0, #4
41002dac:	e1a03002 	mov	r3, r2
41002db0:	e1a02103 	lsl	r2, r3, #2
41002db4:	e1a03182 	lsl	r3, r2, #3
41002db8:	e0623003 	rsb	r3, r2, r3
41002dbc:	e0813003 	add	r3, r1, r3
41002dc0:	e0832000 	add	r2, r3, r0
41002dc4:	e3a03000 	mov	r3, #0
41002dc8:	e5823000 	str	r3, [r2]
41002dcc:	e51b2018 	ldr	r2, [fp, #-24]	; 0xffffffe8
41002dd0:	e59f3178 	ldr	r3, [pc, #376]	; 41002f50 <mq_close+0x1d4>
41002dd4:	e7941003 	ldr	r1, [r4, r3]
41002dd8:	e3a00008 	mov	r0, #8
41002ddc:	e1a03002 	mov	r3, r2
41002de0:	e1a02103 	lsl	r2, r3, #2
41002de4:	e1a03182 	lsl	r3, r2, #3
41002de8:	e0623003 	rsb	r3, r2, r3
41002dec:	e0813003 	add	r3, r1, r3
41002df0:	e0832000 	add	r2, r3, r0
41002df4:	e3a03000 	mov	r3, #0
41002df8:	e5823000 	str	r3, [r2]
41002dfc:	e51b2018 	ldr	r2, [fp, #-24]	; 0xffffffe8
41002e00:	e59f3148 	ldr	r3, [pc, #328]	; 41002f50 <mq_close+0x1d4>
41002e04:	e7941003 	ldr	r1, [r4, r3]
41002e08:	e3a0000c 	mov	r0, #12
41002e0c:	e1a03002 	mov	r3, r2
41002e10:	e1a02103 	lsl	r2, r3, #2
41002e14:	e1a03182 	lsl	r3, r2, #3
41002e18:	e0623003 	rsb	r3, r2, r3
41002e1c:	e0813003 	add	r3, r1, r3
41002e20:	e0832000 	add	r2, r3, r0
41002e24:	e3a03000 	mov	r3, #0
41002e28:	e5823000 	str	r3, [r2]
41002e2c:	e51b2018 	ldr	r2, [fp, #-24]	; 0xffffffe8
41002e30:	e59f3118 	ldr	r3, [pc, #280]	; 41002f50 <mq_close+0x1d4>
41002e34:	e7941003 	ldr	r1, [r4, r3]
41002e38:	e3a00010 	mov	r0, #16
41002e3c:	e1a03002 	mov	r3, r2
41002e40:	e1a02103 	lsl	r2, r3, #2
41002e44:	e1a03182 	lsl	r3, r2, #3
41002e48:	e0623003 	rsb	r3, r2, r3
41002e4c:	e0813003 	add	r3, r1, r3
41002e50:	e0832000 	add	r2, r3, r0
41002e54:	e3a03000 	mov	r3, #0
41002e58:	e5823000 	str	r3, [r2]
41002e5c:	e51b2018 	ldr	r2, [fp, #-24]	; 0xffffffe8
41002e60:	e59f30ec 	ldr	r3, [pc, #236]	; 41002f54 <mq_close+0x1d8>
41002e64:	e7941003 	ldr	r1, [r4, r3]
41002e68:	e1a03002 	mov	r3, r2
41002e6c:	e1a02103 	lsl	r2, r3, #2
41002e70:	e1a03102 	lsl	r3, r2, #2
41002e74:	e0623003 	rsb	r3, r2, r3
41002e78:	e0812003 	add	r2, r1, r3
41002e7c:	e3a03000 	mov	r3, #0
41002e80:	e5823000 	str	r3, [r2]
41002e84:	e51b2018 	ldr	r2, [fp, #-24]	; 0xffffffe8
41002e88:	e59f30c4 	ldr	r3, [pc, #196]	; 41002f54 <mq_close+0x1d8>
41002e8c:	e7941003 	ldr	r1, [r4, r3]
41002e90:	e3a00004 	mov	r0, #4
41002e94:	e1a03002 	mov	r3, r2
41002e98:	e1a02103 	lsl	r2, r3, #2
41002e9c:	e1a03102 	lsl	r3, r2, #2
41002ea0:	e0623003 	rsb	r3, r2, r3
41002ea4:	e0813003 	add	r3, r1, r3
41002ea8:	e0832000 	add	r2, r3, r0
41002eac:	e3a03000 	mov	r3, #0
41002eb0:	e5823000 	str	r3, [r2]
41002eb4:	e51b2018 	ldr	r2, [fp, #-24]	; 0xffffffe8
41002eb8:	e59f3094 	ldr	r3, [pc, #148]	; 41002f54 <mq_close+0x1d8>
41002ebc:	e7941003 	ldr	r1, [r4, r3]
41002ec0:	e3a00008 	mov	r0, #8
41002ec4:	e1a03002 	mov	r3, r2
41002ec8:	e1a02103 	lsl	r2, r3, #2
41002ecc:	e1a03102 	lsl	r3, r2, #2
41002ed0:	e0623003 	rsb	r3, r2, r3
41002ed4:	e0813003 	add	r3, r1, r3
41002ed8:	e0832000 	add	r2, r3, r0
41002edc:	e3a03000 	mov	r3, #0
41002ee0:	e5823000 	str	r3, [r2]
41002ee4:	e51b3018 	ldr	r3, [fp, #-24]	; 0xffffffe8
41002ee8:	e1a02103 	lsl	r2, r3, #2
41002eec:	e59f3064 	ldr	r3, [pc, #100]	; 41002f58 <mq_close+0x1dc>
41002ef0:	e7943003 	ldr	r3, [r4, r3]
41002ef4:	e0823003 	add	r3, r2, r3
41002ef8:	e1a00003 	mov	r0, r3
41002efc:	eb000ccd 	bl	41006238 <sem_destory>
41002f00:	e51b3018 	ldr	r3, [fp, #-24]	; 0xffffffe8
41002f04:	e2433001 	sub	r3, r3, #1
41002f08:	e50b3018 	str	r3, [fp, #-24]	; 0xffffffe8
41002f0c:	e59f3048 	ldr	r3, [pc, #72]	; 41002f5c <mq_close+0x1e0>
41002f10:	e7943003 	ldr	r3, [r4, r3]
41002f14:	e5933000 	ldr	r3, [r3]
41002f18:	e2432001 	sub	r2, r3, #1
41002f1c:	e59f3038 	ldr	r3, [pc, #56]	; 41002f5c <mq_close+0x1e0>
41002f20:	e7943003 	ldr	r3, [r4, r3]
41002f24:	e5832000 	str	r2, [r3]
41002f28:	eb000bc9 	bl	41005e54 <vk_scheduler_unlock>
41002f2c:	e59f302c 	ldr	r3, [pc, #44]	; 41002f60 <mq_close+0x1e4>
41002f30:	e0843003 	add	r3, r4, r3
41002f34:	e1a00003 	mov	r0, r3
41002f38:	eb0006a0 	bl	410049c0 <printk>
41002f3c:	e3a03000 	mov	r3, #0
41002f40:	e1a00003 	mov	r0, r3
41002f44:	e24bd010 	sub	sp, fp, #16
41002f48:	e89da810 	ldm	sp, {r4, fp, sp, pc}
41002f4c:	000082e8 	.word	0x000082e8
41002f50:	000000d8 	.word	0x000000d8
41002f54:	000000d4 	.word	0x000000d4
41002f58:	000000dc 	.word	0x000000dc
41002f5c:	00000060 	.word	0x00000060
41002f60:	fffff8c8 	.word	0xfffff8c8

41002f64 <pthread_mutex_init>:
41002f64:	e1a0c00d 	mov	ip, sp
41002f68:	e92dd800 	push	{fp, ip, lr, pc}
41002f6c:	e24cb004 	sub	fp, ip, #4
41002f70:	e24dd010 	sub	sp, sp, #16
41002f74:	e50b0018 	str	r0, [fp, #-24]	; 0xffffffe8
41002f78:	e50b101c 	str	r1, [fp, #-28]	; 0xffffffe4
41002f7c:	e3a0002c 	mov	r0, #44	; 0x2c
41002f80:	ebfffbdd 	bl	41001efc <malloc>
41002f84:	e1a03000 	mov	r3, r0
41002f88:	e50b3010 	str	r3, [fp, #-16]
41002f8c:	e51b2010 	ldr	r2, [fp, #-16]
41002f90:	e3a03000 	mov	r3, #0
41002f94:	e5823010 	str	r3, [r2, #16]
41002f98:	e51b2010 	ldr	r2, [fp, #-16]
41002f9c:	e3a03000 	mov	r3, #0
41002fa0:	e5823014 	str	r3, [r2, #20]
41002fa4:	e51b2010 	ldr	r2, [fp, #-16]
41002fa8:	e3a03001 	mov	r3, #1
41002fac:	e5823018 	str	r3, [r2, #24]
41002fb0:	e51b2010 	ldr	r2, [fp, #-16]
41002fb4:	e3a03000 	mov	r3, #0
41002fb8:	e582301c 	str	r3, [r2, #28]
41002fbc:	e51b2010 	ldr	r2, [fp, #-16]
41002fc0:	e3a03000 	mov	r3, #0
41002fc4:	e5823020 	str	r3, [r2, #32]
41002fc8:	e51b2010 	ldr	r2, [fp, #-16]
41002fcc:	e3a03000 	mov	r3, #0
41002fd0:	e5823024 	str	r3, [r2, #36]	; 0x24
41002fd4:	e51b2010 	ldr	r2, [fp, #-16]
41002fd8:	e3a03000 	mov	r3, #0
41002fdc:	e5823028 	str	r3, [r2, #40]	; 0x28
41002fe0:	e51b2018 	ldr	r2, [fp, #-24]	; 0xffffffe8
41002fe4:	e51b3010 	ldr	r3, [fp, #-16]
41002fe8:	e5823000 	str	r3, [r2]
41002fec:	e3a03000 	mov	r3, #0
41002ff0:	e1a00003 	mov	r0, r3
41002ff4:	e24bd00c 	sub	sp, fp, #12
41002ff8:	e89da800 	ldm	sp, {fp, sp, pc}

41002ffc <pthread_mutex_destroy>:
41002ffc:	e1a0c00d 	mov	ip, sp
41003000:	e92dd800 	push	{fp, ip, lr, pc}
41003004:	e24cb004 	sub	fp, ip, #4
41003008:	e24dd018 	sub	sp, sp, #24
4100300c:	e59f10bc 	ldr	r1, [pc, #188]	; 410030d0 <pthread_mutex_destroy+0xd4>
41003010:	e50b1020 	str	r1, [fp, #-32]	; 0xffffffe0
41003014:	e51b2020 	ldr	r2, [fp, #-32]	; 0xffffffe0
41003018:	e08f2002 	add	r2, pc, r2
4100301c:	e50b2020 	str	r2, [fp, #-32]	; 0xffffffe0
41003020:	e50b0018 	str	r0, [fp, #-24]	; 0xffffffe8
41003024:	e51b3018 	ldr	r3, [fp, #-24]	; 0xffffffe8
41003028:	e5933000 	ldr	r3, [r3]
4100302c:	e50b3010 	str	r3, [fp, #-16]
41003030:	e51b3010 	ldr	r3, [fp, #-16]
41003034:	e5933014 	ldr	r3, [r3, #20]
41003038:	e3530000 	cmp	r3, #0
4100303c:	1a000008 	bne	41003064 <pthread_mutex_destroy+0x68>
41003040:	e51b3010 	ldr	r3, [fp, #-16]
41003044:	e5933018 	ldr	r3, [r3, #24]
41003048:	e3530001 	cmp	r3, #1
4100304c:	1a000004 	bne	41003064 <pthread_mutex_destroy+0x68>
41003050:	e51b0010 	ldr	r0, [fp, #-16]
41003054:	ebfffbc6 	bl	41001f74 <free>
41003058:	e3a03000 	mov	r3, #0
4100305c:	e50b301c 	str	r3, [fp, #-28]	; 0xffffffe4
41003060:	ea000016 	b	410030c0 <pthread_mutex_destroy+0xc4>
41003064:	e51b3010 	ldr	r3, [fp, #-16]
41003068:	e5932014 	ldr	r2, [r3, #20]
4100306c:	e59f3060 	ldr	r3, [pc, #96]	; 410030d4 <pthread_mutex_destroy+0xd8>
41003070:	e51b1020 	ldr	r1, [fp, #-32]	; 0xffffffe0
41003074:	e0813003 	add	r3, r1, r3
41003078:	e1a00003 	mov	r0, r3
4100307c:	e1a01002 	mov	r1, r2
41003080:	eb00064e 	bl	410049c0 <printk>
41003084:	e51b3010 	ldr	r3, [fp, #-16]
41003088:	e5932018 	ldr	r2, [r3, #24]
4100308c:	e59f3044 	ldr	r3, [pc, #68]	; 410030d8 <pthread_mutex_destroy+0xdc>
41003090:	e51b1020 	ldr	r1, [fp, #-32]	; 0xffffffe0
41003094:	e0813003 	add	r3, r1, r3
41003098:	e1a00003 	mov	r0, r3
4100309c:	e1a01002 	mov	r1, r2
410030a0:	eb000646 	bl	410049c0 <printk>
410030a4:	e59f3030 	ldr	r3, [pc, #48]	; 410030dc <pthread_mutex_destroy+0xe0>
410030a8:	e51b2020 	ldr	r2, [fp, #-32]	; 0xffffffe0
410030ac:	e0823003 	add	r3, r2, r3
410030b0:	e1a00003 	mov	r0, r3
410030b4:	eb000641 	bl	410049c0 <printk>
410030b8:	e3a03001 	mov	r3, #1
410030bc:	e50b301c 	str	r3, [fp, #-28]	; 0xffffffe4
410030c0:	e51b301c 	ldr	r3, [fp, #-28]	; 0xffffffe4
410030c4:	e1a00003 	mov	r0, r3
410030c8:	e24bd00c 	sub	sp, fp, #12
410030cc:	e89da800 	ldm	sp, {fp, sp, pc}
410030d0:	00008060 	.word	0x00008060
410030d4:	fffff8d4 	.word	0xfffff8d4
410030d8:	fffff8e4 	.word	0xfffff8e4
410030dc:	fffff8f0 	.word	0xfffff8f0

410030e0 <pthread_mutex_lock>:
410030e0:	e1a0c00d 	mov	ip, sp
410030e4:	e92dd800 	push	{fp, ip, lr, pc}
410030e8:	e24cb004 	sub	fp, ip, #4
410030ec:	e24dd020 	sub	sp, sp, #32
410030f0:	e59f22b4 	ldr	r2, [pc, #692]	; 410033ac <pthread_mutex_lock+0x2cc>
410030f4:	e50b2028 	str	r2, [fp, #-40]	; 0xffffffd8
410030f8:	e51b3028 	ldr	r3, [fp, #-40]	; 0xffffffd8
410030fc:	e08f3003 	add	r3, pc, r3
41003100:	e50b3028 	str	r3, [fp, #-40]	; 0xffffffd8
41003104:	e50b0020 	str	r0, [fp, #-32]	; 0xffffffe0
41003108:	e51b3020 	ldr	r3, [fp, #-32]	; 0xffffffe0
4100310c:	e3530000 	cmp	r3, #0
41003110:	1a000002 	bne	41003120 <pthread_mutex_lock+0x40>
41003114:	e3e02000 	mvn	r2, #0
41003118:	e50b2024 	str	r2, [fp, #-36]	; 0xffffffdc
4100311c:	ea00009e 	b	4100339c <pthread_mutex_lock+0x2bc>
41003120:	e59f3288 	ldr	r3, [pc, #648]	; 410033b0 <pthread_mutex_lock+0x2d0>
41003124:	e51b2028 	ldr	r2, [fp, #-40]	; 0xffffffd8
41003128:	e7923003 	ldr	r3, [r2, r3]
4100312c:	e5933000 	ldr	r3, [r3]
41003130:	e5933038 	ldr	r3, [r3, #56]	; 0x38
41003134:	e50b3010 	str	r3, [fp, #-16]
41003138:	eb000b2b 	bl	41005dec <vk_scheduler_lock>
4100313c:	e51b3010 	ldr	r3, [fp, #-16]
41003140:	e3530000 	cmp	r3, #0
41003144:	1a000000 	bne	4100314c <pthread_mutex_lock+0x6c>
41003148:	ebfff977 	bl	4100172c <vk_disable_interrupt>
4100314c:	e51b3020 	ldr	r3, [fp, #-32]	; 0xffffffe0
41003150:	e5933000 	ldr	r3, [r3]
41003154:	e50b3018 	str	r3, [fp, #-24]	; 0xffffffe8
41003158:	ea00006e 	b	41003318 <pthread_mutex_lock+0x238>
4100315c:	e51b3018 	ldr	r3, [fp, #-24]	; 0xffffffe8
41003160:	e593301c 	ldr	r3, [r3, #28]
41003164:	e3530000 	cmp	r3, #0
41003168:	1a000006 	bne	41003188 <pthread_mutex_lock+0xa8>
4100316c:	e59f323c 	ldr	r3, [pc, #572]	; 410033b0 <pthread_mutex_lock+0x2d0>
41003170:	e51b2028 	ldr	r2, [fp, #-40]	; 0xffffffd8
41003174:	e7923003 	ldr	r3, [r2, r3]
41003178:	e5932000 	ldr	r2, [r3]
4100317c:	e51b3018 	ldr	r3, [fp, #-24]	; 0xffffffe8
41003180:	e583201c 	str	r2, [r3, #28]
41003184:	ea00001d 	b	41003200 <pthread_mutex_lock+0x120>
41003188:	e51b3018 	ldr	r3, [fp, #-24]	; 0xffffffe8
4100318c:	e5933020 	ldr	r3, [r3, #32]
41003190:	e3530000 	cmp	r3, #0
41003194:	1a000006 	bne	410031b4 <pthread_mutex_lock+0xd4>
41003198:	e59f3210 	ldr	r3, [pc, #528]	; 410033b0 <pthread_mutex_lock+0x2d0>
4100319c:	e51b2028 	ldr	r2, [fp, #-40]	; 0xffffffd8
410031a0:	e7923003 	ldr	r3, [r2, r3]
410031a4:	e5932000 	ldr	r2, [r3]
410031a8:	e51b3018 	ldr	r3, [fp, #-24]	; 0xffffffe8
410031ac:	e5832020 	str	r2, [r3, #32]
410031b0:	ea000012 	b	41003200 <pthread_mutex_lock+0x120>
410031b4:	e51b3018 	ldr	r3, [fp, #-24]	; 0xffffffe8
410031b8:	e5933024 	ldr	r3, [r3, #36]	; 0x24
410031bc:	e3530000 	cmp	r3, #0
410031c0:	1a000006 	bne	410031e0 <pthread_mutex_lock+0x100>
410031c4:	e59f31e4 	ldr	r3, [pc, #484]	; 410033b0 <pthread_mutex_lock+0x2d0>
410031c8:	e51b2028 	ldr	r2, [fp, #-40]	; 0xffffffd8
410031cc:	e7923003 	ldr	r3, [r2, r3]
410031d0:	e5932000 	ldr	r2, [r3]
410031d4:	e51b3018 	ldr	r3, [fp, #-24]	; 0xffffffe8
410031d8:	e5832024 	str	r2, [r3, #36]	; 0x24
410031dc:	ea000007 	b	41003200 <pthread_mutex_lock+0x120>
410031e0:	e59f31cc 	ldr	r3, [pc, #460]	; 410033b4 <pthread_mutex_lock+0x2d4>
410031e4:	e51b2028 	ldr	r2, [fp, #-40]	; 0xffffffd8
410031e8:	e0823003 	add	r3, r2, r3
410031ec:	e1a00003 	mov	r0, r3
410031f0:	eb0005f2 	bl	410049c0 <printk>
410031f4:	e3e03000 	mvn	r3, #0
410031f8:	e50b3024 	str	r3, [fp, #-36]	; 0xffffffdc
410031fc:	ea000066 	b	4100339c <pthread_mutex_lock+0x2bc>
41003200:	e59f31a8 	ldr	r3, [pc, #424]	; 410033b0 <pthread_mutex_lock+0x2d0>
41003204:	e51b2028 	ldr	r2, [fp, #-40]	; 0xffffffd8
41003208:	e7923003 	ldr	r3, [r2, r3]
4100320c:	e5932000 	ldr	r2, [r3]
41003210:	e3a03002 	mov	r3, #2
41003214:	e5823000 	str	r3, [r2]
41003218:	e59f3190 	ldr	r3, [pc, #400]	; 410033b0 <pthread_mutex_lock+0x2d0>
4100321c:	e51b2028 	ldr	r2, [fp, #-40]	; 0xffffffd8
41003220:	e7923003 	ldr	r3, [r2, r3]
41003224:	e5933000 	ldr	r3, [r3]
41003228:	e1a00003 	mov	r0, r3
4100322c:	e59f3184 	ldr	r3, [pc, #388]	; 410033b8 <pthread_mutex_lock+0x2d8>
41003230:	e51b2028 	ldr	r2, [fp, #-40]	; 0xffffffd8
41003234:	e7923003 	ldr	r3, [r2, r3]
41003238:	e1a01003 	mov	r1, r3
4100323c:	eb0007cf 	bl	41005180 <vk_thread_dequeue>
41003240:	e51b3018 	ldr	r3, [fp, #-24]	; 0xffffffe8
41003244:	e5933014 	ldr	r3, [r3, #20]
41003248:	e2832001 	add	r2, r3, #1
4100324c:	e51b3018 	ldr	r3, [fp, #-24]	; 0xffffffe8
41003250:	e5832014 	str	r2, [r3, #20]
41003254:	e59f3154 	ldr	r3, [pc, #340]	; 410033b0 <pthread_mutex_lock+0x2d0>
41003258:	e51b2028 	ldr	r2, [fp, #-40]	; 0xffffffd8
4100325c:	e7923003 	ldr	r3, [r2, r3]
41003260:	e5933000 	ldr	r3, [r3]
41003264:	e5932008 	ldr	r2, [r3, #8]
41003268:	e51b3018 	ldr	r3, [fp, #-24]	; 0xffffffe8
4100326c:	e5933010 	ldr	r3, [r3, #16]
41003270:	e1520003 	cmp	r2, r3
41003274:	9a000006 	bls	41003294 <pthread_mutex_lock+0x1b4>
41003278:	e59f3130 	ldr	r3, [pc, #304]	; 410033b0 <pthread_mutex_lock+0x2d0>
4100327c:	e51b2028 	ldr	r2, [fp, #-40]	; 0xffffffd8
41003280:	e7923003 	ldr	r3, [r2, r3]
41003284:	e5933000 	ldr	r3, [r3]
41003288:	e5932008 	ldr	r2, [r3, #8]
4100328c:	e51b3018 	ldr	r3, [fp, #-24]	; 0xffffffe8
41003290:	e5832010 	str	r2, [r3, #16]
41003294:	e51b3018 	ldr	r3, [fp, #-24]	; 0xffffffe8
41003298:	e5933028 	ldr	r3, [r3, #40]	; 0x28
4100329c:	e3530000 	cmp	r3, #0
410032a0:	0a00001b 	beq	41003314 <pthread_mutex_lock+0x234>
410032a4:	e51b3018 	ldr	r3, [fp, #-24]	; 0xffffffe8
410032a8:	e5933028 	ldr	r3, [r3, #40]	; 0x28
410032ac:	e5932008 	ldr	r2, [r3, #8]
410032b0:	e51b3018 	ldr	r3, [fp, #-24]	; 0xffffffe8
410032b4:	e5933010 	ldr	r3, [r3, #16]
410032b8:	e1520003 	cmp	r2, r3
410032bc:	2a000014 	bcs	41003314 <pthread_mutex_lock+0x234>
410032c0:	e51b3018 	ldr	r3, [fp, #-24]	; 0xffffffe8
410032c4:	e5933028 	ldr	r3, [r3, #40]	; 0x28
410032c8:	e1a00003 	mov	r0, r3
410032cc:	e59f30e4 	ldr	r3, [pc, #228]	; 410033b8 <pthread_mutex_lock+0x2d8>
410032d0:	e51b2028 	ldr	r2, [fp, #-40]	; 0xffffffd8
410032d4:	e7923003 	ldr	r3, [r2, r3]
410032d8:	e1a01003 	mov	r1, r3
410032dc:	eb0007a7 	bl	41005180 <vk_thread_dequeue>
410032e0:	e51b3018 	ldr	r3, [fp, #-24]	; 0xffffffe8
410032e4:	e5932028 	ldr	r2, [r3, #40]	; 0x28
410032e8:	e51b3018 	ldr	r3, [fp, #-24]	; 0xffffffe8
410032ec:	e5933010 	ldr	r3, [r3, #16]
410032f0:	e5823008 	str	r3, [r2, #8]
410032f4:	e51b3018 	ldr	r3, [fp, #-24]	; 0xffffffe8
410032f8:	e5933028 	ldr	r3, [r3, #40]	; 0x28
410032fc:	e1a00003 	mov	r0, r3
41003300:	e59f30b0 	ldr	r3, [pc, #176]	; 410033b8 <pthread_mutex_lock+0x2d8>
41003304:	e51b2028 	ldr	r2, [fp, #-40]	; 0xffffffd8
41003308:	e7923003 	ldr	r3, [r2, r3]
4100330c:	e1a01003 	mov	r1, r3
41003310:	eb00072c 	bl	41004fc8 <vk_thread_enqueue>
41003314:	ebfff919 	bl	41001780 <vk_swi_scheduler>
41003318:	e51b3018 	ldr	r3, [fp, #-24]	; 0xffffffe8
4100331c:	e5933018 	ldr	r3, [r3, #24]
41003320:	e3530000 	cmp	r3, #0
41003324:	0affff8c 	beq	4100315c <pthread_mutex_lock+0x7c>
41003328:	e51b3018 	ldr	r3, [fp, #-24]	; 0xffffffe8
4100332c:	e3a02000 	mov	r2, #0
41003330:	e5832018 	str	r2, [r3, #24]
41003334:	e3a03000 	mov	r3, #0
41003338:	e50b3014 	str	r3, [fp, #-20]	; 0xffffffec
4100333c:	ea00000c 	b	41003374 <pthread_mutex_lock+0x294>
41003340:	e51b3018 	ldr	r3, [fp, #-24]	; 0xffffffe8
41003344:	e5933028 	ldr	r3, [r3, #40]	; 0x28
41003348:	e3530000 	cmp	r3, #0
4100334c:	1a000005 	bne	41003368 <pthread_mutex_lock+0x288>
41003350:	e59f3058 	ldr	r3, [pc, #88]	; 410033b0 <pthread_mutex_lock+0x2d0>
41003354:	e51b2028 	ldr	r2, [fp, #-40]	; 0xffffffd8
41003358:	e7923003 	ldr	r3, [r2, r3]
4100335c:	e5932000 	ldr	r2, [r3]
41003360:	e51b3018 	ldr	r3, [fp, #-24]	; 0xffffffe8
41003364:	e5832028 	str	r2, [r3, #40]	; 0x28
41003368:	e51b3014 	ldr	r3, [fp, #-20]	; 0xffffffec
4100336c:	e2833001 	add	r3, r3, #1
41003370:	e50b3014 	str	r3, [fp, #-20]	; 0xffffffec
41003374:	e51b3014 	ldr	r3, [fp, #-20]	; 0xffffffec
41003378:	e3530002 	cmp	r3, #2
4100337c:	9affffef 	bls	41003340 <pthread_mutex_lock+0x260>
41003380:	e51b3010 	ldr	r3, [fp, #-16]
41003384:	e3530000 	cmp	r3, #0
41003388:	1a000000 	bne	41003390 <pthread_mutex_lock+0x2b0>
4100338c:	ebfff8d1 	bl	410016d8 <vk_enable_interrupt>
41003390:	eb000aaf 	bl	41005e54 <vk_scheduler_unlock>
41003394:	e3a03000 	mov	r3, #0
41003398:	e50b3024 	str	r3, [fp, #-36]	; 0xffffffdc
4100339c:	e51b3024 	ldr	r3, [fp, #-36]	; 0xffffffdc
410033a0:	e1a00003 	mov	r0, r3
410033a4:	e24bd00c 	sub	sp, fp, #12
410033a8:	e89da800 	ldm	sp, {fp, sp, pc}
410033ac:	00007f7c 	.word	0x00007f7c
410033b0:	000000ac 	.word	0x000000ac
410033b4:	fffff948 	.word	0xfffff948
410033b8:	0000007c 	.word	0x0000007c

410033bc <pthread_mutex_trylock>:
410033bc:	e1a0c00d 	mov	ip, sp
410033c0:	e92dd800 	push	{fp, ip, lr, pc}
410033c4:	e24cb004 	sub	fp, ip, #4
410033c8:	e24dd010 	sub	sp, sp, #16
410033cc:	e50b0018 	str	r0, [fp, #-24]	; 0xffffffe8
410033d0:	ebfff8d5 	bl	4100172c <vk_disable_interrupt>
410033d4:	e51b3018 	ldr	r3, [fp, #-24]	; 0xffffffe8
410033d8:	e5933000 	ldr	r3, [r3]
410033dc:	e50b3014 	str	r3, [fp, #-20]	; 0xffffffec
410033e0:	e51b3014 	ldr	r3, [fp, #-20]	; 0xffffffec
410033e4:	e5933018 	ldr	r3, [r3, #24]
410033e8:	e3530001 	cmp	r3, #1
410033ec:	1a000006 	bne	4100340c <pthread_mutex_trylock+0x50>
410033f0:	e51b0018 	ldr	r0, [fp, #-24]	; 0xffffffe8
410033f4:	ebffff39 	bl	410030e0 <pthread_mutex_lock>
410033f8:	e1a03000 	mov	r3, r0
410033fc:	e50b3010 	str	r3, [fp, #-16]
41003400:	e51b3010 	ldr	r3, [fp, #-16]
41003404:	e50b301c 	str	r3, [fp, #-28]	; 0xffffffe4
41003408:	ea000002 	b	41003418 <pthread_mutex_trylock+0x5c>
4100340c:	ebfff8b1 	bl	410016d8 <vk_enable_interrupt>
41003410:	e3e03000 	mvn	r3, #0
41003414:	e50b301c 	str	r3, [fp, #-28]	; 0xffffffe4
41003418:	e51b301c 	ldr	r3, [fp, #-28]	; 0xffffffe4
4100341c:	e1a00003 	mov	r0, r3
41003420:	e24bd00c 	sub	sp, fp, #12
41003424:	e89da800 	ldm	sp, {fp, sp, pc}

41003428 <pthread_mutex_unlock>:
41003428:	e1a0c00d 	mov	ip, sp
4100342c:	e92dd800 	push	{fp, ip, lr, pc}
41003430:	e24cb004 	sub	fp, ip, #4
41003434:	e24dd020 	sub	sp, sp, #32
41003438:	e59f12a4 	ldr	r1, [pc, #676]	; 410036e4 <pthread_mutex_unlock+0x2bc>
4100343c:	e50b1028 	str	r1, [fp, #-40]	; 0xffffffd8
41003440:	e51b2028 	ldr	r2, [fp, #-40]	; 0xffffffd8
41003444:	e08f2002 	add	r2, pc, r2
41003448:	e50b2028 	str	r2, [fp, #-40]	; 0xffffffd8
4100344c:	e50b0020 	str	r0, [fp, #-32]	; 0xffffffe0
41003450:	e51b3020 	ldr	r3, [fp, #-32]	; 0xffffffe0
41003454:	e3530000 	cmp	r3, #0
41003458:	1a000002 	bne	41003468 <pthread_mutex_unlock+0x40>
4100345c:	e3e03000 	mvn	r3, #0
41003460:	e50b3024 	str	r3, [fp, #-36]	; 0xffffffdc
41003464:	ea00009a 	b	410036d4 <pthread_mutex_unlock+0x2ac>
41003468:	e59f3278 	ldr	r3, [pc, #632]	; 410036e8 <pthread_mutex_unlock+0x2c0>
4100346c:	e51b1028 	ldr	r1, [fp, #-40]	; 0xffffffd8
41003470:	e7913003 	ldr	r3, [r1, r3]
41003474:	e5933000 	ldr	r3, [r3]
41003478:	e5933038 	ldr	r3, [r3, #56]	; 0x38
4100347c:	e50b3010 	str	r3, [fp, #-16]
41003480:	eb000a59 	bl	41005dec <vk_scheduler_lock>
41003484:	e51b3020 	ldr	r3, [fp, #-32]	; 0xffffffe0
41003488:	e5933000 	ldr	r3, [r3]
4100348c:	e50b3018 	str	r3, [fp, #-24]	; 0xffffffe8
41003490:	e51b3018 	ldr	r3, [fp, #-24]	; 0xffffffe8
41003494:	e5932028 	ldr	r2, [r3, #40]	; 0x28
41003498:	e59f3248 	ldr	r3, [pc, #584]	; 410036e8 <pthread_mutex_unlock+0x2c0>
4100349c:	e51b1028 	ldr	r1, [fp, #-40]	; 0xffffffd8
410034a0:	e7913003 	ldr	r3, [r1, r3]
410034a4:	e5933000 	ldr	r3, [r3]
410034a8:	e1520003 	cmp	r2, r3
410034ac:	0a000002 	beq	410034bc <pthread_mutex_unlock+0x94>
410034b0:	e3e02000 	mvn	r2, #0
410034b4:	e50b2024 	str	r2, [fp, #-36]	; 0xffffffdc
410034b8:	ea000085 	b	410036d4 <pthread_mutex_unlock+0x2ac>
410034bc:	e51b3018 	ldr	r3, [fp, #-24]	; 0xffffffe8
410034c0:	e593301c 	ldr	r3, [r3, #28]
410034c4:	e3530000 	cmp	r3, #0
410034c8:	0a00000e 	beq	41003508 <pthread_mutex_unlock+0xe0>
410034cc:	e51b3018 	ldr	r3, [fp, #-24]	; 0xffffffe8
410034d0:	e593201c 	ldr	r2, [r3, #28]
410034d4:	e3a03001 	mov	r3, #1
410034d8:	e5823000 	str	r3, [r2]
410034dc:	e51b3018 	ldr	r3, [fp, #-24]	; 0xffffffe8
410034e0:	e593301c 	ldr	r3, [r3, #28]
410034e4:	e1a00003 	mov	r0, r3
410034e8:	e59f31fc 	ldr	r3, [pc, #508]	; 410036ec <pthread_mutex_unlock+0x2c4>
410034ec:	e51b1028 	ldr	r1, [fp, #-40]	; 0xffffffd8
410034f0:	e7913003 	ldr	r3, [r1, r3]
410034f4:	e1a01003 	mov	r1, r3
410034f8:	eb0006b2 	bl	41004fc8 <vk_thread_enqueue>
410034fc:	e51b2018 	ldr	r2, [fp, #-24]	; 0xffffffe8
41003500:	e3a03000 	mov	r3, #0
41003504:	e582301c 	str	r3, [r2, #28]
41003508:	e51b3018 	ldr	r3, [fp, #-24]	; 0xffffffe8
4100350c:	e5933020 	ldr	r3, [r3, #32]
41003510:	e3530000 	cmp	r3, #0
41003514:	0a00000e 	beq	41003554 <pthread_mutex_unlock+0x12c>
41003518:	e51b3018 	ldr	r3, [fp, #-24]	; 0xffffffe8
4100351c:	e593201c 	ldr	r2, [r3, #28]
41003520:	e3a03001 	mov	r3, #1
41003524:	e5823000 	str	r3, [r2]
41003528:	e51b3018 	ldr	r3, [fp, #-24]	; 0xffffffe8
4100352c:	e5933020 	ldr	r3, [r3, #32]
41003530:	e1a00003 	mov	r0, r3
41003534:	e59f31b0 	ldr	r3, [pc, #432]	; 410036ec <pthread_mutex_unlock+0x2c4>
41003538:	e51b2028 	ldr	r2, [fp, #-40]	; 0xffffffd8
4100353c:	e7923003 	ldr	r3, [r2, r3]
41003540:	e1a01003 	mov	r1, r3
41003544:	eb00069f 	bl	41004fc8 <vk_thread_enqueue>
41003548:	e51b2018 	ldr	r2, [fp, #-24]	; 0xffffffe8
4100354c:	e3a03000 	mov	r3, #0
41003550:	e5823020 	str	r3, [r2, #32]
41003554:	e51b3018 	ldr	r3, [fp, #-24]	; 0xffffffe8
41003558:	e5933024 	ldr	r3, [r3, #36]	; 0x24
4100355c:	e3530000 	cmp	r3, #0
41003560:	0a00000e 	beq	410035a0 <pthread_mutex_unlock+0x178>
41003564:	e51b3018 	ldr	r3, [fp, #-24]	; 0xffffffe8
41003568:	e593201c 	ldr	r2, [r3, #28]
4100356c:	e3a03001 	mov	r3, #1
41003570:	e5823000 	str	r3, [r2]
41003574:	e51b3018 	ldr	r3, [fp, #-24]	; 0xffffffe8
41003578:	e5933024 	ldr	r3, [r3, #36]	; 0x24
4100357c:	e1a00003 	mov	r0, r3
41003580:	e59f3164 	ldr	r3, [pc, #356]	; 410036ec <pthread_mutex_unlock+0x2c4>
41003584:	e51b1028 	ldr	r1, [fp, #-40]	; 0xffffffd8
41003588:	e7913003 	ldr	r3, [r1, r3]
4100358c:	e1a01003 	mov	r1, r3
41003590:	eb00068c 	bl	41004fc8 <vk_thread_enqueue>
41003594:	e51b2018 	ldr	r2, [fp, #-24]	; 0xffffffe8
41003598:	e3a03000 	mov	r3, #0
4100359c:	e5823024 	str	r3, [r2, #36]	; 0x24
410035a0:	e51b2018 	ldr	r2, [fp, #-24]	; 0xffffffe8
410035a4:	e3a03000 	mov	r3, #0
410035a8:	e5823014 	str	r3, [r2, #20]
410035ac:	e59f3134 	ldr	r3, [pc, #308]	; 410036e8 <pthread_mutex_unlock+0x2c0>
410035b0:	e51b2028 	ldr	r2, [fp, #-40]	; 0xffffffd8
410035b4:	e7923003 	ldr	r3, [r2, r3]
410035b8:	e5933000 	ldr	r3, [r3]
410035bc:	e5932008 	ldr	r2, [r3, #8]
410035c0:	e59f3120 	ldr	r3, [pc, #288]	; 410036e8 <pthread_mutex_unlock+0x2c0>
410035c4:	e51b1028 	ldr	r1, [fp, #-40]	; 0xffffffd8
410035c8:	e7913003 	ldr	r3, [r1, r3]
410035cc:	e5933000 	ldr	r3, [r3]
410035d0:	e593300c 	ldr	r3, [r3, #12]
410035d4:	e1520003 	cmp	r2, r3
410035d8:	0a000022 	beq	41003668 <pthread_mutex_unlock+0x240>
410035dc:	e59f3104 	ldr	r3, [pc, #260]	; 410036e8 <pthread_mutex_unlock+0x2c0>
410035e0:	e51b2028 	ldr	r2, [fp, #-40]	; 0xffffffd8
410035e4:	e7923003 	ldr	r3, [r2, r3]
410035e8:	e5933000 	ldr	r3, [r3]
410035ec:	e1a00003 	mov	r0, r3
410035f0:	e59f30f4 	ldr	r3, [pc, #244]	; 410036ec <pthread_mutex_unlock+0x2c4>
410035f4:	e51b1028 	ldr	r1, [fp, #-40]	; 0xffffffd8
410035f8:	e7913003 	ldr	r3, [r1, r3]
410035fc:	e1a01003 	mov	r1, r3
41003600:	eb0006de 	bl	41005180 <vk_thread_dequeue>
41003604:	e1a03000 	mov	r3, r0
41003608:	e50b3014 	str	r3, [fp, #-20]	; 0xffffffec
4100360c:	e59f30d4 	ldr	r3, [pc, #212]	; 410036e8 <pthread_mutex_unlock+0x2c0>
41003610:	e51b2028 	ldr	r2, [fp, #-40]	; 0xffffffd8
41003614:	e7923003 	ldr	r3, [r2, r3]
41003618:	e5932000 	ldr	r2, [r3]
4100361c:	e59f30c4 	ldr	r3, [pc, #196]	; 410036e8 <pthread_mutex_unlock+0x2c0>
41003620:	e51b1028 	ldr	r1, [fp, #-40]	; 0xffffffd8
41003624:	e7913003 	ldr	r3, [r1, r3]
41003628:	e5933000 	ldr	r3, [r3]
4100362c:	e593300c 	ldr	r3, [r3, #12]
41003630:	e5823008 	str	r3, [r2, #8]
41003634:	e51b3014 	ldr	r3, [fp, #-20]	; 0xffffffec
41003638:	e3530000 	cmp	r3, #0
4100363c:	0a000009 	beq	41003668 <pthread_mutex_unlock+0x240>
41003640:	e59f30a0 	ldr	r3, [pc, #160]	; 410036e8 <pthread_mutex_unlock+0x2c0>
41003644:	e51b2028 	ldr	r2, [fp, #-40]	; 0xffffffd8
41003648:	e7923003 	ldr	r3, [r2, r3]
4100364c:	e5933000 	ldr	r3, [r3]
41003650:	e1a00003 	mov	r0, r3
41003654:	e59f3090 	ldr	r3, [pc, #144]	; 410036ec <pthread_mutex_unlock+0x2c4>
41003658:	e51b1028 	ldr	r1, [fp, #-40]	; 0xffffffd8
4100365c:	e7913003 	ldr	r3, [r1, r3]
41003660:	e1a01003 	mov	r1, r3
41003664:	eb000657 	bl	41004fc8 <vk_thread_enqueue>
41003668:	e51b3018 	ldr	r3, [fp, #-24]	; 0xffffffe8
4100366c:	e3a02001 	mov	r2, #1
41003670:	e5832018 	str	r2, [r3, #24]
41003674:	e3a03000 	mov	r3, #0
41003678:	e50b301c 	str	r3, [fp, #-28]	; 0xffffffe4
4100367c:	ea00000d 	b	410036b8 <pthread_mutex_unlock+0x290>
41003680:	e51b3018 	ldr	r3, [fp, #-24]	; 0xffffffe8
41003684:	e5932028 	ldr	r2, [r3, #40]	; 0x28
41003688:	e59f3058 	ldr	r3, [pc, #88]	; 410036e8 <pthread_mutex_unlock+0x2c0>
4100368c:	e51b1028 	ldr	r1, [fp, #-40]	; 0xffffffd8
41003690:	e7913003 	ldr	r3, [r1, r3]
41003694:	e5933000 	ldr	r3, [r3]
41003698:	e1520003 	cmp	r2, r3
4100369c:	1a000002 	bne	410036ac <pthread_mutex_unlock+0x284>
410036a0:	e51b2018 	ldr	r2, [fp, #-24]	; 0xffffffe8
410036a4:	e3a03000 	mov	r3, #0
410036a8:	e5823028 	str	r3, [r2, #40]	; 0x28
410036ac:	e51b301c 	ldr	r3, [fp, #-28]	; 0xffffffe4
410036b0:	e2833001 	add	r3, r3, #1
410036b4:	e50b301c 	str	r3, [fp, #-28]	; 0xffffffe4
410036b8:	e51b301c 	ldr	r3, [fp, #-28]	; 0xffffffe4
410036bc:	e3530002 	cmp	r3, #2
410036c0:	9affffee 	bls	41003680 <pthread_mutex_unlock+0x258>
410036c4:	eb0009e2 	bl	41005e54 <vk_scheduler_unlock>
410036c8:	ebfff82c 	bl	41001780 <vk_swi_scheduler>
410036cc:	e3a02000 	mov	r2, #0
410036d0:	e50b2024 	str	r2, [fp, #-36]	; 0xffffffdc
410036d4:	e51b3024 	ldr	r3, [fp, #-36]	; 0xffffffdc
410036d8:	e1a00003 	mov	r0, r3
410036dc:	e24bd00c 	sub	sp, fp, #12
410036e0:	e89da800 	ldm	sp, {fp, sp, pc}
410036e4:	00007c34 	.word	0x00007c34
410036e8:	000000ac 	.word	0x000000ac
410036ec:	0000007c 	.word	0x0000007c

410036f0 <parse_args>:
410036f0:	e1a0c00d 	mov	ip, sp
410036f4:	e92dd800 	push	{fp, ip, lr, pc}
410036f8:	e24cb004 	sub	fp, ip, #4
410036fc:	e24dd018 	sub	sp, sp, #24
41003700:	e59f20b8 	ldr	r2, [pc, #184]	; 410037c0 <parse_args+0xd0>
41003704:	e50b2020 	str	r2, [fp, #-32]	; 0xffffffe0
41003708:	e51b3020 	ldr	r3, [fp, #-32]	; 0xffffffe0
4100370c:	e08f3003 	add	r3, pc, r3
41003710:	e50b3020 	str	r3, [fp, #-32]	; 0xffffffe0
41003714:	e50b0018 	str	r0, [fp, #-24]	; 0xffffffe8
41003718:	e50b101c 	str	r1, [fp, #-28]	; 0xffffffe4
4100371c:	e3a03000 	mov	r3, #0
41003720:	e50b3010 	str	r3, [fp, #-16]
41003724:	e51b3010 	ldr	r3, [fp, #-16]
41003728:	e1a02103 	lsl	r2, r3, #2
4100372c:	e51b301c 	ldr	r3, [fp, #-28]	; 0xffffffe4
41003730:	e0832002 	add	r2, r3, r2
41003734:	e3a03000 	mov	r3, #0
41003738:	e5823000 	str	r3, [r2]
4100373c:	e51b0018 	ldr	r0, [fp, #-24]	; 0xffffffe8
41003740:	e59f307c 	ldr	r3, [pc, #124]	; 410037c4 <parse_args+0xd4>
41003744:	e51b2020 	ldr	r2, [fp, #-32]	; 0xffffffe0
41003748:	e7923003 	ldr	r3, [r2, r3]
4100374c:	e1a01003 	mov	r1, r3
41003750:	eb00138a 	bl	41008580 <strtok>
41003754:	e1a03000 	mov	r3, r0
41003758:	e50b3014 	str	r3, [fp, #-20]	; 0xffffffec
4100375c:	ea000010 	b	410037a4 <parse_args+0xb4>
41003760:	e51b3010 	ldr	r3, [fp, #-16]
41003764:	e1a02103 	lsl	r2, r3, #2
41003768:	e51b301c 	ldr	r3, [fp, #-28]	; 0xffffffe4
4100376c:	e0832002 	add	r2, r3, r2
41003770:	e51b3014 	ldr	r3, [fp, #-20]	; 0xffffffec
41003774:	e5823000 	str	r3, [r2]
41003778:	e51b3010 	ldr	r3, [fp, #-16]
4100377c:	e2833001 	add	r3, r3, #1
41003780:	e50b3010 	str	r3, [fp, #-16]
41003784:	e3a00000 	mov	r0, #0
41003788:	e59f3034 	ldr	r3, [pc, #52]	; 410037c4 <parse_args+0xd4>
4100378c:	e51b2020 	ldr	r2, [fp, #-32]	; 0xffffffe0
41003790:	e7923003 	ldr	r3, [r2, r3]
41003794:	e1a01003 	mov	r1, r3
41003798:	eb001378 	bl	41008580 <strtok>
4100379c:	e1a03000 	mov	r3, r0
410037a0:	e50b3014 	str	r3, [fp, #-20]	; 0xffffffec
410037a4:	e51b3014 	ldr	r3, [fp, #-20]	; 0xffffffec
410037a8:	e3530000 	cmp	r3, #0
410037ac:	1affffeb 	bne	41003760 <parse_args+0x70>
410037b0:	e51b3010 	ldr	r3, [fp, #-16]
410037b4:	e1a00003 	mov	r0, r3
410037b8:	e24bd00c 	sub	sp, fp, #12
410037bc:	e89da800 	ldm	sp, {fp, sp, pc}
410037c0:	0000796c 	.word	0x0000796c
410037c4:	00000008 	.word	0x00000008

410037c8 <skip_atoi>:
410037c8:	e1a0c00d 	mov	ip, sp
410037cc:	e92dd800 	push	{fp, ip, lr, pc}
410037d0:	e24cb004 	sub	fp, ip, #4
410037d4:	e24dd010 	sub	sp, sp, #16
410037d8:	e59f108c 	ldr	r1, [pc, #140]	; 4100386c <skip_atoi+0xa4>
410037dc:	e50b101c 	str	r1, [fp, #-28]	; 0xffffffe4
410037e0:	e51b301c 	ldr	r3, [fp, #-28]	; 0xffffffe4
410037e4:	e08f3003 	add	r3, pc, r3
410037e8:	e50b301c 	str	r3, [fp, #-28]	; 0xffffffe4
410037ec:	e50b0018 	str	r0, [fp, #-24]	; 0xffffffe8
410037f0:	e3a03000 	mov	r3, #0
410037f4:	e50b3010 	str	r3, [fp, #-16]
410037f8:	ea00000c 	b	41003830 <skip_atoi+0x68>
410037fc:	e51b3010 	ldr	r3, [fp, #-16]
41003800:	e1a02083 	lsl	r2, r3, #1
41003804:	e1a03102 	lsl	r3, r2, #2
41003808:	e0822003 	add	r2, r2, r3
4100380c:	e51b3018 	ldr	r3, [fp, #-24]	; 0xffffffe8
41003810:	e5931000 	ldr	r1, [r3]
41003814:	e5d13000 	ldrb	r3, [r1]
41003818:	e0823003 	add	r3, r2, r3
4100381c:	e2433030 	sub	r3, r3, #48	; 0x30
41003820:	e50b3010 	str	r3, [fp, #-16]
41003824:	e2812001 	add	r2, r1, #1
41003828:	e51b3018 	ldr	r3, [fp, #-24]	; 0xffffffe8
4100382c:	e5832000 	str	r2, [r3]
41003830:	e51b3018 	ldr	r3, [fp, #-24]	; 0xffffffe8
41003834:	e5933000 	ldr	r3, [r3]
41003838:	e5d33000 	ldrb	r3, [r3]
4100383c:	e1a02003 	mov	r2, r3
41003840:	e59f3028 	ldr	r3, [pc, #40]	; 41003870 <skip_atoi+0xa8>
41003844:	e51b101c 	ldr	r1, [fp, #-28]	; 0xffffffe4
41003848:	e7913003 	ldr	r3, [r1, r3]
4100384c:	e7d33002 	ldrb	r3, [r3, r2]
41003850:	e2033004 	and	r3, r3, #4
41003854:	e3530000 	cmp	r3, #0
41003858:	1affffe7 	bne	410037fc <skip_atoi+0x34>
4100385c:	e51b3010 	ldr	r3, [fp, #-16]
41003860:	e1a00003 	mov	r0, r3
41003864:	e24bd00c 	sub	sp, fp, #12
41003868:	e89da800 	ldm	sp, {fp, sp, pc}
4100386c:	00007894 	.word	0x00007894
41003870:	0000006c 	.word	0x0000006c

41003874 <number>:
41003874:	e1a0c00d 	mov	ip, sp
41003878:	e92dd830 	push	{r4, r5, fp, ip, lr, pc}
4100387c:	e24cb004 	sub	fp, ip, #4
41003880:	e24dd0c0 	sub	sp, sp, #192	; 0xc0
41003884:	e59f45c0 	ldr	r4, [pc, #1472]	; 41003e4c <number+0x5d8>
41003888:	e08f4004 	add	r4, pc, r4
4100388c:	e50b00b8 	str	r0, [fp, #-184]	; 0xffffff48
41003890:	e50b10bc 	str	r1, [fp, #-188]	; 0xffffff44
41003894:	e50b20c4 	str	r2, [fp, #-196]	; 0xffffff3c
41003898:	e50b30c0 	str	r3, [fp, #-192]	; 0xffffff40
4100389c:	e59f35ac 	ldr	r3, [pc, #1452]	; 41003e50 <number+0x5dc>
410038a0:	e0843003 	add	r3, r4, r3
410038a4:	e24b2089 	sub	r2, fp, #137	; 0x89
410038a8:	e3a0c025 	mov	ip, #37	; 0x25
410038ac:	e1a00002 	mov	r0, r2
410038b0:	e1a01003 	mov	r1, r3
410038b4:	e1a0200c 	mov	r2, ip
410038b8:	eb001a7c 	bl	4100a2b0 <memcpy>
410038bc:	e59f3590 	ldr	r3, [pc, #1424]	; 41003e54 <number+0x5e0>
410038c0:	e0843003 	add	r3, r4, r3
410038c4:	e24b20ae 	sub	r2, fp, #174	; 0xae
410038c8:	e3a0c025 	mov	ip, #37	; 0x25
410038cc:	e1a00002 	mov	r0, r2
410038d0:	e1a01003 	mov	r1, r3
410038d4:	e1a0200c 	mov	r2, ip
410038d8:	eb001a74 	bl	4100a2b0 <memcpy>
410038dc:	e59b3010 	ldr	r3, [fp, #16]
410038e0:	e2033040 	and	r3, r3, #64	; 0x40
410038e4:	e3530000 	cmp	r3, #0
410038e8:	0a000002 	beq	410038f8 <number+0x84>
410038ec:	e24b00ae 	sub	r0, fp, #174	; 0xae
410038f0:	e50b00d0 	str	r0, [fp, #-208]	; 0xffffff30
410038f4:	ea000001 	b	41003900 <number+0x8c>
410038f8:	e24b1089 	sub	r1, fp, #137	; 0x89
410038fc:	e50b10d0 	str	r1, [fp, #-208]	; 0xffffff30
41003900:	e51b20d0 	ldr	r2, [fp, #-208]	; 0xffffff30
41003904:	e50b2020 	str	r2, [fp, #-32]	; 0xffffffe0
41003908:	e59b3010 	ldr	r3, [fp, #16]
4100390c:	e2033010 	and	r3, r3, #16
41003910:	e3530000 	cmp	r3, #0
41003914:	0a000002 	beq	41003924 <number+0xb0>
41003918:	e59b3010 	ldr	r3, [fp, #16]
4100391c:	e3c33001 	bic	r3, r3, #1
41003920:	e58b3010 	str	r3, [fp, #16]
41003924:	e59b3004 	ldr	r3, [fp, #4]
41003928:	e3530001 	cmp	r3, #1
4100392c:	da000002 	ble	4100393c <number+0xc8>
41003930:	e59b3004 	ldr	r3, [fp, #4]
41003934:	e3530024 	cmp	r3, #36	; 0x24
41003938:	da000002 	ble	41003948 <number+0xd4>
4100393c:	e3a03000 	mov	r3, #0
41003940:	e50b30cc 	str	r3, [fp, #-204]	; 0xffffff34
41003944:	ea00013c 	b	41003e3c <number+0x5c8>
41003948:	e59b3010 	ldr	r3, [fp, #16]
4100394c:	e2033001 	and	r3, r3, #1
41003950:	e20330ff 	and	r3, r3, #255	; 0xff
41003954:	e3530000 	cmp	r3, #0
41003958:	0a000002 	beq	41003968 <number+0xf4>
4100395c:	e3a00030 	mov	r0, #48	; 0x30
41003960:	e50b00c8 	str	r0, [fp, #-200]	; 0xffffff38
41003964:	ea000001 	b	41003970 <number+0xfc>
41003968:	e3a01020 	mov	r1, #32
4100396c:	e50b10c8 	str	r1, [fp, #-200]	; 0xffffff38
41003970:	e51b20c8 	ldr	r2, [fp, #-200]	; 0xffffff38
41003974:	e1a03002 	mov	r3, r2
41003978:	e54b3022 	strb	r3, [fp, #-34]	; 0xffffffde
4100397c:	e3a03000 	mov	r3, #0
41003980:	e54b3021 	strb	r3, [fp, #-33]	; 0xffffffdf
41003984:	e59b3010 	ldr	r3, [fp, #16]
41003988:	e2033002 	and	r3, r3, #2
4100398c:	e3530000 	cmp	r3, #0
41003990:	0a000027 	beq	41003a34 <number+0x1c0>
41003994:	e51b30c0 	ldr	r3, [fp, #-192]	; 0xffffff40
41003998:	e3530000 	cmp	r3, #0
4100399c:	ba000005 	blt	410039b8 <number+0x144>
410039a0:	e51b30c0 	ldr	r3, [fp, #-192]	; 0xffffff40
410039a4:	e3530000 	cmp	r3, #0
410039a8:	1a00000e 	bne	410039e8 <number+0x174>
410039ac:	e51b30c4 	ldr	r3, [fp, #-196]	; 0xffffff3c
410039b0:	e3530000 	cmp	r3, #0
410039b4:	ea00000b 	b	410039e8 <number+0x174>
410039b8:	e3a0302d 	mov	r3, #45	; 0x2d
410039bc:	e54b3021 	strb	r3, [fp, #-33]	; 0xffffffdf
410039c0:	e24b30c4 	sub	r3, fp, #196	; 0xc4
410039c4:	e8930018 	ldm	r3, {r3, r4}
410039c8:	e2733000 	rsbs	r3, r3, #0
410039cc:	e2e44000 	rsc	r4, r4, #0
410039d0:	e50b30c4 	str	r3, [fp, #-196]	; 0xffffff3c
410039d4:	e50b40c0 	str	r4, [fp, #-192]	; 0xffffff40
410039d8:	e59b3008 	ldr	r3, [fp, #8]
410039dc:	e2433001 	sub	r3, r3, #1
410039e0:	e58b3008 	str	r3, [fp, #8]
410039e4:	ea000012 	b	41003a34 <number+0x1c0>
410039e8:	e59b3010 	ldr	r3, [fp, #16]
410039ec:	e2033004 	and	r3, r3, #4
410039f0:	e3530000 	cmp	r3, #0
410039f4:	0a000005 	beq	41003a10 <number+0x19c>
410039f8:	e3a0302b 	mov	r3, #43	; 0x2b
410039fc:	e54b3021 	strb	r3, [fp, #-33]	; 0xffffffdf
41003a00:	e59b3008 	ldr	r3, [fp, #8]
41003a04:	e2433001 	sub	r3, r3, #1
41003a08:	e58b3008 	str	r3, [fp, #8]
41003a0c:	ea000008 	b	41003a34 <number+0x1c0>
41003a10:	e59b3010 	ldr	r3, [fp, #16]
41003a14:	e2033008 	and	r3, r3, #8
41003a18:	e3530000 	cmp	r3, #0
41003a1c:	0a000004 	beq	41003a34 <number+0x1c0>
41003a20:	e3a03020 	mov	r3, #32
41003a24:	e54b3021 	strb	r3, [fp, #-33]	; 0xffffffdf
41003a28:	e59b3008 	ldr	r3, [fp, #8]
41003a2c:	e2433001 	sub	r3, r3, #1
41003a30:	e58b3008 	str	r3, [fp, #8]
41003a34:	e59b3010 	ldr	r3, [fp, #16]
41003a38:	e2033020 	and	r3, r3, #32
41003a3c:	e3530000 	cmp	r3, #0
41003a40:	0a00000c 	beq	41003a78 <number+0x204>
41003a44:	e59b3004 	ldr	r3, [fp, #4]
41003a48:	e3530010 	cmp	r3, #16
41003a4c:	1a000003 	bne	41003a60 <number+0x1ec>
41003a50:	e59b3008 	ldr	r3, [fp, #8]
41003a54:	e2433002 	sub	r3, r3, #2
41003a58:	e58b3008 	str	r3, [fp, #8]
41003a5c:	ea000005 	b	41003a78 <number+0x204>
41003a60:	e59b3004 	ldr	r3, [fp, #4]
41003a64:	e3530008 	cmp	r3, #8
41003a68:	1a000002 	bne	41003a78 <number+0x204>
41003a6c:	e59b3008 	ldr	r3, [fp, #8]
41003a70:	e2433001 	sub	r3, r3, #1
41003a74:	e58b3008 	str	r3, [fp, #8]
41003a78:	e3a03000 	mov	r3, #0
41003a7c:	e50b301c 	str	r3, [fp, #-28]	; 0xffffffe4
41003a80:	e51b30c4 	ldr	r3, [fp, #-196]	; 0xffffff3c
41003a84:	e51b20c0 	ldr	r2, [fp, #-192]	; 0xffffff40
41003a88:	e1833002 	orr	r3, r3, r2
41003a8c:	e3530000 	cmp	r3, #0
41003a90:	1a000029 	bne	41003b3c <number+0x2c8>
41003a94:	e51b301c 	ldr	r3, [fp, #-28]	; 0xffffffe4
41003a98:	e3e0204f 	mvn	r2, #79	; 0x4f
41003a9c:	e24b0014 	sub	r0, fp, #20
41003aa0:	e0803003 	add	r3, r0, r3
41003aa4:	e0832002 	add	r2, r3, r2
41003aa8:	e3a03030 	mov	r3, #48	; 0x30
41003aac:	e5c23000 	strb	r3, [r2]
41003ab0:	e51b301c 	ldr	r3, [fp, #-28]	; 0xffffffe4
41003ab4:	e2833001 	add	r3, r3, #1
41003ab8:	e50b301c 	str	r3, [fp, #-28]	; 0xffffffe4
41003abc:	ea000023 	b	41003b50 <number+0x2dc>
41003ac0:	e51b501c 	ldr	r5, [fp, #-28]	; 0xffffffe4
41003ac4:	e51b30c4 	ldr	r3, [fp, #-196]	; 0xffffff3c
41003ac8:	e59b2004 	ldr	r2, [fp, #4]
41003acc:	e1a00003 	mov	r0, r3
41003ad0:	e1a01002 	mov	r1, r2
41003ad4:	eb0019ec 	bl	4100a28c <__aeabi_uidivmod>
41003ad8:	e1a03001 	mov	r3, r1
41003adc:	e50b3018 	str	r3, [fp, #-24]	; 0xffffffe8
41003ae0:	e51b30c4 	ldr	r3, [fp, #-196]	; 0xffffff3c
41003ae4:	e59b2004 	ldr	r2, [fp, #4]
41003ae8:	e1a00003 	mov	r0, r3
41003aec:	e1a01002 	mov	r1, r2
41003af0:	eb0019a8 	bl	4100a198 <__udivsi3>
41003af4:	e1a03000 	mov	r3, r0
41003af8:	e3a04000 	mov	r4, #0
41003afc:	e50b30c4 	str	r3, [fp, #-196]	; 0xffffff3c
41003b00:	e50b40c0 	str	r4, [fp, #-192]	; 0xffffff40
41003b04:	e51b3018 	ldr	r3, [fp, #-24]	; 0xffffffe8
41003b08:	e1a02003 	mov	r2, r3
41003b0c:	e51b3020 	ldr	r3, [fp, #-32]	; 0xffffffe0
41003b10:	e0833002 	add	r3, r3, r2
41003b14:	e5d31000 	ldrb	r1, [r3]
41003b18:	e3e0204f 	mvn	r2, #79	; 0x4f
41003b1c:	e24b0014 	sub	r0, fp, #20
41003b20:	e0803005 	add	r3, r0, r5
41003b24:	e0832002 	add	r2, r3, r2
41003b28:	e1a03001 	mov	r3, r1
41003b2c:	e5c23000 	strb	r3, [r2]
41003b30:	e51b301c 	ldr	r3, [fp, #-28]	; 0xffffffe4
41003b34:	e2833001 	add	r3, r3, #1
41003b38:	e50b301c 	str	r3, [fp, #-28]	; 0xffffffe4
41003b3c:	e51b30c4 	ldr	r3, [fp, #-196]	; 0xffffff3c
41003b40:	e51b20c0 	ldr	r2, [fp, #-192]	; 0xffffff40
41003b44:	e1833002 	orr	r3, r3, r2
41003b48:	e3530000 	cmp	r3, #0
41003b4c:	1affffdb 	bne	41003ac0 <number+0x24c>
41003b50:	e51b201c 	ldr	r2, [fp, #-28]	; 0xffffffe4
41003b54:	e59b300c 	ldr	r3, [fp, #12]
41003b58:	e1520003 	cmp	r2, r3
41003b5c:	da000001 	ble	41003b68 <number+0x2f4>
41003b60:	e51b301c 	ldr	r3, [fp, #-28]	; 0xffffffe4
41003b64:	e58b300c 	str	r3, [fp, #12]
41003b68:	e59b2008 	ldr	r2, [fp, #8]
41003b6c:	e59b300c 	ldr	r3, [fp, #12]
41003b70:	e0633002 	rsb	r3, r3, r2
41003b74:	e58b3008 	str	r3, [fp, #8]
41003b78:	e59b3010 	ldr	r3, [fp, #16]
41003b7c:	e2033011 	and	r3, r3, #17
41003b80:	e3530000 	cmp	r3, #0
41003b84:	1a000014 	bne	41003bdc <number+0x368>
41003b88:	ea000009 	b	41003bb4 <number+0x340>
41003b8c:	e51b20b8 	ldr	r2, [fp, #-184]	; 0xffffff48
41003b90:	e51b30bc 	ldr	r3, [fp, #-188]	; 0xffffff44
41003b94:	e1520003 	cmp	r2, r3
41003b98:	8a000002 	bhi	41003ba8 <number+0x334>
41003b9c:	e51b30b8 	ldr	r3, [fp, #-184]	; 0xffffff48
41003ba0:	e3a02020 	mov	r2, #32
41003ba4:	e5c32000 	strb	r2, [r3]
41003ba8:	e51b30b8 	ldr	r3, [fp, #-184]	; 0xffffff48
41003bac:	e2833001 	add	r3, r3, #1
41003bb0:	e50b30b8 	str	r3, [fp, #-184]	; 0xffffff48
41003bb4:	e59b3008 	ldr	r3, [fp, #8]
41003bb8:	e3530000 	cmp	r3, #0
41003bbc:	d3a03000 	movle	r3, #0
41003bc0:	c3a03001 	movgt	r3, #1
41003bc4:	e20320ff 	and	r2, r3, #255	; 0xff
41003bc8:	e59b3008 	ldr	r3, [fp, #8]
41003bcc:	e2433001 	sub	r3, r3, #1
41003bd0:	e58b3008 	str	r3, [fp, #8]
41003bd4:	e3520000 	cmp	r2, #0
41003bd8:	1affffeb 	bne	41003b8c <number+0x318>
41003bdc:	e55b3021 	ldrb	r3, [fp, #-33]	; 0xffffffdf
41003be0:	e3530000 	cmp	r3, #0
41003be4:	0a000009 	beq	41003c10 <number+0x39c>
41003be8:	e51b20b8 	ldr	r2, [fp, #-184]	; 0xffffff48
41003bec:	e51b30bc 	ldr	r3, [fp, #-188]	; 0xffffff44
41003bf0:	e1520003 	cmp	r2, r3
41003bf4:	8a000002 	bhi	41003c04 <number+0x390>
41003bf8:	e51b20b8 	ldr	r2, [fp, #-184]	; 0xffffff48
41003bfc:	e55b3021 	ldrb	r3, [fp, #-33]	; 0xffffffdf
41003c00:	e5c23000 	strb	r3, [r2]
41003c04:	e51b30b8 	ldr	r3, [fp, #-184]	; 0xffffff48
41003c08:	e2833001 	add	r3, r3, #1
41003c0c:	e50b30b8 	str	r3, [fp, #-184]	; 0xffffff48
41003c10:	e59b3010 	ldr	r3, [fp, #16]
41003c14:	e2033020 	and	r3, r3, #32
41003c18:	e3530000 	cmp	r3, #0
41003c1c:	0a000026 	beq	41003cbc <number+0x448>
41003c20:	e59b3004 	ldr	r3, [fp, #4]
41003c24:	e3530008 	cmp	r3, #8
41003c28:	1a00000a 	bne	41003c58 <number+0x3e4>
41003c2c:	e51b20b8 	ldr	r2, [fp, #-184]	; 0xffffff48
41003c30:	e51b30bc 	ldr	r3, [fp, #-188]	; 0xffffff44
41003c34:	e1520003 	cmp	r2, r3
41003c38:	8a000002 	bhi	41003c48 <number+0x3d4>
41003c3c:	e51b30b8 	ldr	r3, [fp, #-184]	; 0xffffff48
41003c40:	e3a02030 	mov	r2, #48	; 0x30
41003c44:	e5c32000 	strb	r2, [r3]
41003c48:	e51b30b8 	ldr	r3, [fp, #-184]	; 0xffffff48
41003c4c:	e2833001 	add	r3, r3, #1
41003c50:	e50b30b8 	str	r3, [fp, #-184]	; 0xffffff48
41003c54:	ea000018 	b	41003cbc <number+0x448>
41003c58:	e59b3004 	ldr	r3, [fp, #4]
41003c5c:	e3530010 	cmp	r3, #16
41003c60:	1a000015 	bne	41003cbc <number+0x448>
41003c64:	e51b20b8 	ldr	r2, [fp, #-184]	; 0xffffff48
41003c68:	e51b30bc 	ldr	r3, [fp, #-188]	; 0xffffff44
41003c6c:	e1520003 	cmp	r2, r3
41003c70:	8a000002 	bhi	41003c80 <number+0x40c>
41003c74:	e51b30b8 	ldr	r3, [fp, #-184]	; 0xffffff48
41003c78:	e3a02030 	mov	r2, #48	; 0x30
41003c7c:	e5c32000 	strb	r2, [r3]
41003c80:	e51b30b8 	ldr	r3, [fp, #-184]	; 0xffffff48
41003c84:	e2833001 	add	r3, r3, #1
41003c88:	e50b30b8 	str	r3, [fp, #-184]	; 0xffffff48
41003c8c:	e51b20b8 	ldr	r2, [fp, #-184]	; 0xffffff48
41003c90:	e51b30bc 	ldr	r3, [fp, #-188]	; 0xffffff44
41003c94:	e1520003 	cmp	r2, r3
41003c98:	8a000004 	bhi	41003cb0 <number+0x43c>
41003c9c:	e51b3020 	ldr	r3, [fp, #-32]	; 0xffffffe0
41003ca0:	e2833021 	add	r3, r3, #33	; 0x21
41003ca4:	e5d33000 	ldrb	r3, [r3]
41003ca8:	e51b20b8 	ldr	r2, [fp, #-184]	; 0xffffff48
41003cac:	e5c23000 	strb	r3, [r2]
41003cb0:	e51b30b8 	ldr	r3, [fp, #-184]	; 0xffffff48
41003cb4:	e2833001 	add	r3, r3, #1
41003cb8:	e50b30b8 	str	r3, [fp, #-184]	; 0xffffff48
41003cbc:	e59b3010 	ldr	r3, [fp, #16]
41003cc0:	e2033010 	and	r3, r3, #16
41003cc4:	e3530000 	cmp	r3, #0
41003cc8:	1a00001f 	bne	41003d4c <number+0x4d8>
41003ccc:	ea000009 	b	41003cf8 <number+0x484>
41003cd0:	e51b20b8 	ldr	r2, [fp, #-184]	; 0xffffff48
41003cd4:	e51b30bc 	ldr	r3, [fp, #-188]	; 0xffffff44
41003cd8:	e1520003 	cmp	r2, r3
41003cdc:	8a000002 	bhi	41003cec <number+0x478>
41003ce0:	e51b20b8 	ldr	r2, [fp, #-184]	; 0xffffff48
41003ce4:	e55b3022 	ldrb	r3, [fp, #-34]	; 0xffffffde
41003ce8:	e5c23000 	strb	r3, [r2]
41003cec:	e51b30b8 	ldr	r3, [fp, #-184]	; 0xffffff48
41003cf0:	e2833001 	add	r3, r3, #1
41003cf4:	e50b30b8 	str	r3, [fp, #-184]	; 0xffffff48
41003cf8:	e59b3008 	ldr	r3, [fp, #8]
41003cfc:	e3530000 	cmp	r3, #0
41003d00:	d3a03000 	movle	r3, #0
41003d04:	c3a03001 	movgt	r3, #1
41003d08:	e20320ff 	and	r2, r3, #255	; 0xff
41003d0c:	e59b3008 	ldr	r3, [fp, #8]
41003d10:	e2433001 	sub	r3, r3, #1
41003d14:	e58b3008 	str	r3, [fp, #8]
41003d18:	e3520000 	cmp	r2, #0
41003d1c:	1affffeb 	bne	41003cd0 <number+0x45c>
41003d20:	ea000009 	b	41003d4c <number+0x4d8>
41003d24:	e51b20b8 	ldr	r2, [fp, #-184]	; 0xffffff48
41003d28:	e51b30bc 	ldr	r3, [fp, #-188]	; 0xffffff44
41003d2c:	e1520003 	cmp	r2, r3
41003d30:	8a000002 	bhi	41003d40 <number+0x4cc>
41003d34:	e51b30b8 	ldr	r3, [fp, #-184]	; 0xffffff48
41003d38:	e3a02030 	mov	r2, #48	; 0x30
41003d3c:	e5c32000 	strb	r2, [r3]
41003d40:	e51b30b8 	ldr	r3, [fp, #-184]	; 0xffffff48
41003d44:	e2833001 	add	r3, r3, #1
41003d48:	e50b30b8 	str	r3, [fp, #-184]	; 0xffffff48
41003d4c:	e59b200c 	ldr	r2, [fp, #12]
41003d50:	e51b301c 	ldr	r3, [fp, #-28]	; 0xffffffe4
41003d54:	e1520003 	cmp	r2, r3
41003d58:	d3a03000 	movle	r3, #0
41003d5c:	c3a03001 	movgt	r3, #1
41003d60:	e20320ff 	and	r2, r3, #255	; 0xff
41003d64:	e59b300c 	ldr	r3, [fp, #12]
41003d68:	e2433001 	sub	r3, r3, #1
41003d6c:	e58b300c 	str	r3, [fp, #12]
41003d70:	e3520000 	cmp	r2, #0
41003d74:	1affffea 	bne	41003d24 <number+0x4b0>
41003d78:	ea00000e 	b	41003db8 <number+0x544>
41003d7c:	e51b20b8 	ldr	r2, [fp, #-184]	; 0xffffff48
41003d80:	e51b30bc 	ldr	r3, [fp, #-188]	; 0xffffff44
41003d84:	e1520003 	cmp	r2, r3
41003d88:	8a000007 	bhi	41003dac <number+0x538>
41003d8c:	e51b301c 	ldr	r3, [fp, #-28]	; 0xffffffe4
41003d90:	e3e0204f 	mvn	r2, #79	; 0x4f
41003d94:	e24b1014 	sub	r1, fp, #20
41003d98:	e0813003 	add	r3, r1, r3
41003d9c:	e0833002 	add	r3, r3, r2
41003da0:	e5d33000 	ldrb	r3, [r3]
41003da4:	e51b20b8 	ldr	r2, [fp, #-184]	; 0xffffff48
41003da8:	e5c23000 	strb	r3, [r2]
41003dac:	e51b30b8 	ldr	r3, [fp, #-184]	; 0xffffff48
41003db0:	e2833001 	add	r3, r3, #1
41003db4:	e50b30b8 	str	r3, [fp, #-184]	; 0xffffff48
41003db8:	e51b301c 	ldr	r3, [fp, #-28]	; 0xffffffe4
41003dbc:	e3530000 	cmp	r3, #0
41003dc0:	d3a03000 	movle	r3, #0
41003dc4:	c3a03001 	movgt	r3, #1
41003dc8:	e20320ff 	and	r2, r3, #255	; 0xff
41003dcc:	e51b301c 	ldr	r3, [fp, #-28]	; 0xffffffe4
41003dd0:	e2433001 	sub	r3, r3, #1
41003dd4:	e50b301c 	str	r3, [fp, #-28]	; 0xffffffe4
41003dd8:	e3520000 	cmp	r2, #0
41003ddc:	1affffe6 	bne	41003d7c <number+0x508>
41003de0:	ea000009 	b	41003e0c <number+0x598>
41003de4:	e51b20b8 	ldr	r2, [fp, #-184]	; 0xffffff48
41003de8:	e51b30bc 	ldr	r3, [fp, #-188]	; 0xffffff44
41003dec:	e1520003 	cmp	r2, r3
41003df0:	8a000002 	bhi	41003e00 <number+0x58c>
41003df4:	e51b30b8 	ldr	r3, [fp, #-184]	; 0xffffff48
41003df8:	e3a02020 	mov	r2, #32
41003dfc:	e5c32000 	strb	r2, [r3]
41003e00:	e51b30b8 	ldr	r3, [fp, #-184]	; 0xffffff48
41003e04:	e2833001 	add	r3, r3, #1
41003e08:	e50b30b8 	str	r3, [fp, #-184]	; 0xffffff48
41003e0c:	e59b3008 	ldr	r3, [fp, #8]
41003e10:	e3530000 	cmp	r3, #0
41003e14:	d3a03000 	movle	r3, #0
41003e18:	c3a03001 	movgt	r3, #1
41003e1c:	e20320ff 	and	r2, r3, #255	; 0xff
41003e20:	e59b3008 	ldr	r3, [fp, #8]
41003e24:	e2433001 	sub	r3, r3, #1
41003e28:	e58b3008 	str	r3, [fp, #8]
41003e2c:	e3520000 	cmp	r2, #0
41003e30:	1affffeb 	bne	41003de4 <number+0x570>
41003e34:	e51b20b8 	ldr	r2, [fp, #-184]	; 0xffffff48
41003e38:	e50b20cc 	str	r2, [fp, #-204]	; 0xffffff34
41003e3c:	e51b30cc 	ldr	r3, [fp, #-204]	; 0xffffff34
41003e40:	e1a00003 	mov	r0, r3
41003e44:	e24bd014 	sub	sp, fp, #20
41003e48:	e89da830 	ldm	sp, {r4, r5, fp, sp, pc}
41003e4c:	000077f0 	.word	0x000077f0
41003e50:	fffff97c 	.word	0xfffff97c
41003e54:	fffff9a4 	.word	0xfffff9a4

41003e58 <vsnprintf>:
41003e58:	e1a0c00d 	mov	ip, sp
41003e5c:	e92dd830 	push	{r4, r5, fp, ip, lr, pc}
41003e60:	e24cb004 	sub	fp, ip, #4
41003e64:	e24dd070 	sub	sp, sp, #112	; 0x70
41003e68:	e59fcb44 	ldr	ip, [pc, #2884]	; 410049b4 <vsnprintf+0xb5c>
41003e6c:	e50bc070 	str	ip, [fp, #-112]	; 0xffffff90
41003e70:	e51bc070 	ldr	ip, [fp, #-112]	; 0xffffff90
41003e74:	e08fc00c 	add	ip, pc, ip
41003e78:	e50bc070 	str	ip, [fp, #-112]	; 0xffffff90
41003e7c:	e50b0060 	str	r0, [fp, #-96]	; 0xffffffa0
41003e80:	e50b1064 	str	r1, [fp, #-100]	; 0xffffff9c
41003e84:	e50b2068 	str	r2, [fp, #-104]	; 0xffffff98
41003e88:	e50b306c 	str	r3, [fp, #-108]	; 0xffffff94
41003e8c:	e51b3060 	ldr	r3, [fp, #-96]	; 0xffffffa0
41003e90:	e50b3040 	str	r3, [fp, #-64]	; 0xffffffc0
41003e94:	e51b3064 	ldr	r3, [fp, #-100]	; 0xffffff9c
41003e98:	e2432001 	sub	r2, r3, #1
41003e9c:	e51b3060 	ldr	r3, [fp, #-96]	; 0xffffffa0
41003ea0:	e0833002 	add	r3, r3, r2
41003ea4:	e50b303c 	str	r3, [fp, #-60]	; 0xffffffc4
41003ea8:	e51b3060 	ldr	r3, [fp, #-96]	; 0xffffffa0
41003eac:	e2432001 	sub	r2, r3, #1
41003eb0:	e51b303c 	ldr	r3, [fp, #-60]	; 0xffffffc4
41003eb4:	e1520003 	cmp	r2, r3
41003eb8:	9a0002a5 	bls	41004954 <vsnprintf+0xafc>
41003ebc:	e3e03000 	mvn	r3, #0
41003ec0:	e50b303c 	str	r3, [fp, #-60]	; 0xffffffc4
41003ec4:	e51b203c 	ldr	r2, [fp, #-60]	; 0xffffffc4
41003ec8:	e51b3060 	ldr	r3, [fp, #-96]	; 0xffffffa0
41003ecc:	e0633002 	rsb	r3, r3, r2
41003ed0:	e2833001 	add	r3, r3, #1
41003ed4:	e50b3064 	str	r3, [fp, #-100]	; 0xffffff9c
41003ed8:	ea00029d 	b	41004954 <vsnprintf+0xafc>
41003edc:	e51b3068 	ldr	r3, [fp, #-104]	; 0xffffff98
41003ee0:	e5d33000 	ldrb	r3, [r3]
41003ee4:	e3530025 	cmp	r3, #37	; 0x25
41003ee8:	0a00000b 	beq	41003f1c <vsnprintf+0xc4>
41003eec:	e51b2040 	ldr	r2, [fp, #-64]	; 0xffffffc0
41003ef0:	e51b303c 	ldr	r3, [fp, #-60]	; 0xffffffc4
41003ef4:	e1520003 	cmp	r2, r3
41003ef8:	8a000003 	bhi	41003f0c <vsnprintf+0xb4>
41003efc:	e51b3068 	ldr	r3, [fp, #-104]	; 0xffffff98
41003f00:	e5d33000 	ldrb	r3, [r3]
41003f04:	e51b2040 	ldr	r2, [fp, #-64]	; 0xffffffc0
41003f08:	e5c23000 	strb	r3, [r2]
41003f0c:	e51b3040 	ldr	r3, [fp, #-64]	; 0xffffffc0
41003f10:	e2833001 	add	r3, r3, #1
41003f14:	e50b3040 	str	r3, [fp, #-64]	; 0xffffffc0
41003f18:	ea00028a 	b	41004948 <vsnprintf+0xaf0>
41003f1c:	e3a03000 	mov	r3, #0
41003f20:	e50b3030 	str	r3, [fp, #-48]	; 0xffffffd0
41003f24:	e51b3068 	ldr	r3, [fp, #-104]	; 0xffffff98
41003f28:	e2833001 	add	r3, r3, #1
41003f2c:	e50b3068 	str	r3, [fp, #-104]	; 0xffffff98
41003f30:	e51b3068 	ldr	r3, [fp, #-104]	; 0xffffff98
41003f34:	e5d33000 	ldrb	r3, [r3]
41003f38:	e2433020 	sub	r3, r3, #32
41003f3c:	e3530010 	cmp	r3, #16
41003f40:	908ff103 	addls	pc, pc, r3, lsl #2
41003f44:	ea000024 	b	41003fdc <vsnprintf+0x184>
41003f48:	ea000017 	b	41003fac <vsnprintf+0x154>
41003f4c:	ea000022 	b	41003fdc <vsnprintf+0x184>
41003f50:	ea000021 	b	41003fdc <vsnprintf+0x184>
41003f54:	ea000018 	b	41003fbc <vsnprintf+0x164>
41003f58:	ea00001f 	b	41003fdc <vsnprintf+0x184>
41003f5c:	ea00001e 	b	41003fdc <vsnprintf+0x184>
41003f60:	ea00001d 	b	41003fdc <vsnprintf+0x184>
41003f64:	ea00001c 	b	41003fdc <vsnprintf+0x184>
41003f68:	ea00001b 	b	41003fdc <vsnprintf+0x184>
41003f6c:	ea00001a 	b	41003fdc <vsnprintf+0x184>
41003f70:	ea000019 	b	41003fdc <vsnprintf+0x184>
41003f74:	ea000008 	b	41003f9c <vsnprintf+0x144>
41003f78:	ea000017 	b	41003fdc <vsnprintf+0x184>
41003f7c:	ea000002 	b	41003f8c <vsnprintf+0x134>
41003f80:	ea000015 	b	41003fdc <vsnprintf+0x184>
41003f84:	ea000014 	b	41003fdc <vsnprintf+0x184>
41003f88:	ea00000f 	b	41003fcc <vsnprintf+0x174>
41003f8c:	e51b3030 	ldr	r3, [fp, #-48]	; 0xffffffd0
41003f90:	e3833010 	orr	r3, r3, #16
41003f94:	e50b3030 	str	r3, [fp, #-48]	; 0xffffffd0
41003f98:	eaffffe1 	b	41003f24 <vsnprintf+0xcc>
41003f9c:	e51b3030 	ldr	r3, [fp, #-48]	; 0xffffffd0
41003fa0:	e3833004 	orr	r3, r3, #4
41003fa4:	e50b3030 	str	r3, [fp, #-48]	; 0xffffffd0
41003fa8:	eaffffdd 	b	41003f24 <vsnprintf+0xcc>
41003fac:	e51b3030 	ldr	r3, [fp, #-48]	; 0xffffffd0
41003fb0:	e3833008 	orr	r3, r3, #8
41003fb4:	e50b3030 	str	r3, [fp, #-48]	; 0xffffffd0
41003fb8:	eaffffd9 	b	41003f24 <vsnprintf+0xcc>
41003fbc:	e51b3030 	ldr	r3, [fp, #-48]	; 0xffffffd0
41003fc0:	e3833020 	orr	r3, r3, #32
41003fc4:	e50b3030 	str	r3, [fp, #-48]	; 0xffffffd0
41003fc8:	eaffffd5 	b	41003f24 <vsnprintf+0xcc>
41003fcc:	e51b3030 	ldr	r3, [fp, #-48]	; 0xffffffd0
41003fd0:	e3833001 	orr	r3, r3, #1
41003fd4:	e50b3030 	str	r3, [fp, #-48]	; 0xffffffd0
41003fd8:	eaffffd1 	b	41003f24 <vsnprintf+0xcc>
41003fdc:	e3e03000 	mvn	r3, #0
41003fe0:	e50b302c 	str	r3, [fp, #-44]	; 0xffffffd4
41003fe4:	e51b3068 	ldr	r3, [fp, #-104]	; 0xffffff98
41003fe8:	e5d33000 	ldrb	r3, [r3]
41003fec:	e1a02003 	mov	r2, r3
41003ff0:	e59f39c0 	ldr	r3, [pc, #2496]	; 410049b8 <vsnprintf+0xb60>
41003ff4:	e51b1070 	ldr	r1, [fp, #-112]	; 0xffffff90
41003ff8:	e7913003 	ldr	r3, [r1, r3]
41003ffc:	e7d33002 	ldrb	r3, [r3, r2]
41004000:	e2033004 	and	r3, r3, #4
41004004:	e3530000 	cmp	r3, #0
41004008:	0a000005 	beq	41004024 <vsnprintf+0x1cc>
4100400c:	e24b3068 	sub	r3, fp, #104	; 0x68
41004010:	e1a00003 	mov	r0, r3
41004014:	ebfffdeb 	bl	410037c8 <skip_atoi>
41004018:	e1a03000 	mov	r3, r0
4100401c:	e50b302c 	str	r3, [fp, #-44]	; 0xffffffd4
41004020:	ea000016 	b	41004080 <vsnprintf+0x228>
41004024:	e51b3068 	ldr	r3, [fp, #-104]	; 0xffffff98
41004028:	e5d33000 	ldrb	r3, [r3]
4100402c:	e353002a 	cmp	r3, #42	; 0x2a
41004030:	1a000012 	bne	41004080 <vsnprintf+0x228>
41004034:	e51b3068 	ldr	r3, [fp, #-104]	; 0xffffff98
41004038:	e2833001 	add	r3, r3, #1
4100403c:	e50b3068 	str	r3, [fp, #-104]	; 0xffffff98
41004040:	e51b306c 	ldr	r3, [fp, #-108]	; 0xffffff94
41004044:	e2833004 	add	r3, r3, #4
41004048:	e50b306c 	str	r3, [fp, #-108]	; 0xffffff94
4100404c:	e51b306c 	ldr	r3, [fp, #-108]	; 0xffffff94
41004050:	e2433004 	sub	r3, r3, #4
41004054:	e5933000 	ldr	r3, [r3]
41004058:	e50b302c 	str	r3, [fp, #-44]	; 0xffffffd4
4100405c:	e51b302c 	ldr	r3, [fp, #-44]	; 0xffffffd4
41004060:	e3530000 	cmp	r3, #0
41004064:	aa000005 	bge	41004080 <vsnprintf+0x228>
41004068:	e51b302c 	ldr	r3, [fp, #-44]	; 0xffffffd4
4100406c:	e2633000 	rsb	r3, r3, #0
41004070:	e50b302c 	str	r3, [fp, #-44]	; 0xffffffd4
41004074:	e51b3030 	ldr	r3, [fp, #-48]	; 0xffffffd0
41004078:	e3833010 	orr	r3, r3, #16
4100407c:	e50b3030 	str	r3, [fp, #-48]	; 0xffffffd0
41004080:	e3e03000 	mvn	r3, #0
41004084:	e50b3028 	str	r3, [fp, #-40]	; 0xffffffd8
41004088:	e51b3068 	ldr	r3, [fp, #-104]	; 0xffffff98
4100408c:	e5d33000 	ldrb	r3, [r3]
41004090:	e353002e 	cmp	r3, #46	; 0x2e
41004094:	1a000025 	bne	41004130 <vsnprintf+0x2d8>
41004098:	e51b3068 	ldr	r3, [fp, #-104]	; 0xffffff98
4100409c:	e2833001 	add	r3, r3, #1
410040a0:	e50b3068 	str	r3, [fp, #-104]	; 0xffffff98
410040a4:	e51b3068 	ldr	r3, [fp, #-104]	; 0xffffff98
410040a8:	e5d33000 	ldrb	r3, [r3]
410040ac:	e1a02003 	mov	r2, r3
410040b0:	e59f3900 	ldr	r3, [pc, #2304]	; 410049b8 <vsnprintf+0xb60>
410040b4:	e51bc070 	ldr	ip, [fp, #-112]	; 0xffffff90
410040b8:	e79c3003 	ldr	r3, [ip, r3]
410040bc:	e7d33002 	ldrb	r3, [r3, r2]
410040c0:	e2033004 	and	r3, r3, #4
410040c4:	e3530000 	cmp	r3, #0
410040c8:	0a000005 	beq	410040e4 <vsnprintf+0x28c>
410040cc:	e24b3068 	sub	r3, fp, #104	; 0x68
410040d0:	e1a00003 	mov	r0, r3
410040d4:	ebfffdbb 	bl	410037c8 <skip_atoi>
410040d8:	e1a03000 	mov	r3, r0
410040dc:	e50b3028 	str	r3, [fp, #-40]	; 0xffffffd8
410040e0:	ea00000d 	b	4100411c <vsnprintf+0x2c4>
410040e4:	e51b3068 	ldr	r3, [fp, #-104]	; 0xffffff98
410040e8:	e5d33000 	ldrb	r3, [r3]
410040ec:	e353002a 	cmp	r3, #42	; 0x2a
410040f0:	1a000009 	bne	4100411c <vsnprintf+0x2c4>
410040f4:	e51b3068 	ldr	r3, [fp, #-104]	; 0xffffff98
410040f8:	e2833001 	add	r3, r3, #1
410040fc:	e50b3068 	str	r3, [fp, #-104]	; 0xffffff98
41004100:	e51b306c 	ldr	r3, [fp, #-108]	; 0xffffff94
41004104:	e2833004 	add	r3, r3, #4
41004108:	e50b306c 	str	r3, [fp, #-108]	; 0xffffff94
4100410c:	e51b306c 	ldr	r3, [fp, #-108]	; 0xffffff94
41004110:	e2433004 	sub	r3, r3, #4
41004114:	e5933000 	ldr	r3, [r3]
41004118:	e50b3028 	str	r3, [fp, #-40]	; 0xffffffd8
4100411c:	e51b3028 	ldr	r3, [fp, #-40]	; 0xffffffd8
41004120:	e3530000 	cmp	r3, #0
41004124:	aa000001 	bge	41004130 <vsnprintf+0x2d8>
41004128:	e3a03000 	mov	r3, #0
4100412c:	e50b3028 	str	r3, [fp, #-40]	; 0xffffffd8
41004130:	e3e03000 	mvn	r3, #0
41004134:	e50b3024 	str	r3, [fp, #-36]	; 0xffffffdc
41004138:	e51b3068 	ldr	r3, [fp, #-104]	; 0xffffff98
4100413c:	e5d33000 	ldrb	r3, [r3]
41004140:	e3530068 	cmp	r3, #104	; 0x68
41004144:	0a00000b 	beq	41004178 <vsnprintf+0x320>
41004148:	e51b3068 	ldr	r3, [fp, #-104]	; 0xffffff98
4100414c:	e5d33000 	ldrb	r3, [r3]
41004150:	e353006c 	cmp	r3, #108	; 0x6c
41004154:	0a000007 	beq	41004178 <vsnprintf+0x320>
41004158:	e51b3068 	ldr	r3, [fp, #-104]	; 0xffffff98
4100415c:	e5d33000 	ldrb	r3, [r3]
41004160:	e353004c 	cmp	r3, #76	; 0x4c
41004164:	0a000003 	beq	41004178 <vsnprintf+0x320>
41004168:	e51b3068 	ldr	r3, [fp, #-104]	; 0xffffff98
4100416c:	e5d33000 	ldrb	r3, [r3]
41004170:	e353005a 	cmp	r3, #90	; 0x5a
41004174:	1a000011 	bne	410041c0 <vsnprintf+0x368>
41004178:	e51b3068 	ldr	r3, [fp, #-104]	; 0xffffff98
4100417c:	e5d33000 	ldrb	r3, [r3]
41004180:	e50b3024 	str	r3, [fp, #-36]	; 0xffffffdc
41004184:	e51b3068 	ldr	r3, [fp, #-104]	; 0xffffff98
41004188:	e2833001 	add	r3, r3, #1
4100418c:	e50b3068 	str	r3, [fp, #-104]	; 0xffffff98
41004190:	e51b3024 	ldr	r3, [fp, #-36]	; 0xffffffdc
41004194:	e353006c 	cmp	r3, #108	; 0x6c
41004198:	1a000008 	bne	410041c0 <vsnprintf+0x368>
4100419c:	e51b3068 	ldr	r3, [fp, #-104]	; 0xffffff98
410041a0:	e5d33000 	ldrb	r3, [r3]
410041a4:	e353006c 	cmp	r3, #108	; 0x6c
410041a8:	1a000004 	bne	410041c0 <vsnprintf+0x368>
410041ac:	e3a0304c 	mov	r3, #76	; 0x4c
410041b0:	e50b3024 	str	r3, [fp, #-36]	; 0xffffffdc
410041b4:	e51b3068 	ldr	r3, [fp, #-104]	; 0xffffff98
410041b8:	e2833001 	add	r3, r3, #1
410041bc:	e50b3068 	str	r3, [fp, #-104]	; 0xffffff98
410041c0:	e3a0300a 	mov	r3, #10
410041c4:	e50b3044 	str	r3, [fp, #-68]	; 0xffffffbc
410041c8:	e51b3068 	ldr	r3, [fp, #-104]	; 0xffffff98
410041cc:	e5d33000 	ldrb	r3, [r3]
410041d0:	e2433025 	sub	r3, r3, #37	; 0x25
410041d4:	e3530053 	cmp	r3, #83	; 0x53
410041d8:	908ff103 	addls	pc, pc, r3, lsl #2
410041dc:	ea00014e 	b	4100471c <vsnprintf+0x8c4>
410041e0:	ea000135 	b	410046bc <vsnprintf+0x864>
410041e4:	ea00014c 	b	4100471c <vsnprintf+0x8c4>
410041e8:	ea00014b 	b	4100471c <vsnprintf+0x8c4>
410041ec:	ea00014a 	b	4100471c <vsnprintf+0x8c4>
410041f0:	ea000149 	b	4100471c <vsnprintf+0x8c4>
410041f4:	ea000148 	b	4100471c <vsnprintf+0x8c4>
410041f8:	ea000147 	b	4100471c <vsnprintf+0x8c4>
410041fc:	ea000146 	b	4100471c <vsnprintf+0x8c4>
41004200:	ea000145 	b	4100471c <vsnprintf+0x8c4>
41004204:	ea000144 	b	4100471c <vsnprintf+0x8c4>
41004208:	ea000143 	b	4100471c <vsnprintf+0x8c4>
4100420c:	ea000142 	b	4100471c <vsnprintf+0x8c4>
41004210:	ea000141 	b	4100471c <vsnprintf+0x8c4>
41004214:	ea000140 	b	4100471c <vsnprintf+0x8c4>
41004218:	ea00013f 	b	4100471c <vsnprintf+0x8c4>
4100421c:	ea00013e 	b	4100471c <vsnprintf+0x8c4>
41004220:	ea00013d 	b	4100471c <vsnprintf+0x8c4>
41004224:	ea00013c 	b	4100471c <vsnprintf+0x8c4>
41004228:	ea00013b 	b	4100471c <vsnprintf+0x8c4>
4100422c:	ea00013a 	b	4100471c <vsnprintf+0x8c4>
41004230:	ea000139 	b	4100471c <vsnprintf+0x8c4>
41004234:	ea000138 	b	4100471c <vsnprintf+0x8c4>
41004238:	ea000137 	b	4100471c <vsnprintf+0x8c4>
4100423c:	ea000136 	b	4100471c <vsnprintf+0x8c4>
41004240:	ea000135 	b	4100471c <vsnprintf+0x8c4>
41004244:	ea000134 	b	4100471c <vsnprintf+0x8c4>
41004248:	ea000133 	b	4100471c <vsnprintf+0x8c4>
4100424c:	ea000132 	b	4100471c <vsnprintf+0x8c4>
41004250:	ea000131 	b	4100471c <vsnprintf+0x8c4>
41004254:	ea000130 	b	4100471c <vsnprintf+0x8c4>
41004258:	ea00012f 	b	4100471c <vsnprintf+0x8c4>
4100425c:	ea00012e 	b	4100471c <vsnprintf+0x8c4>
41004260:	ea00012d 	b	4100471c <vsnprintf+0x8c4>
41004264:	ea00012c 	b	4100471c <vsnprintf+0x8c4>
41004268:	ea00012b 	b	4100471c <vsnprintf+0x8c4>
4100426c:	ea00012a 	b	4100471c <vsnprintf+0x8c4>
41004270:	ea000129 	b	4100471c <vsnprintf+0x8c4>
41004274:	ea000128 	b	4100471c <vsnprintf+0x8c4>
41004278:	ea000127 	b	4100471c <vsnprintf+0x8c4>
4100427c:	ea000126 	b	4100471c <vsnprintf+0x8c4>
41004280:	ea000125 	b	4100471c <vsnprintf+0x8c4>
41004284:	ea000124 	b	4100471c <vsnprintf+0x8c4>
41004288:	ea000123 	b	4100471c <vsnprintf+0x8c4>
4100428c:	ea000122 	b	4100471c <vsnprintf+0x8c4>
41004290:	ea000121 	b	4100471c <vsnprintf+0x8c4>
41004294:	ea000120 	b	4100471c <vsnprintf+0x8c4>
41004298:	ea00011f 	b	4100471c <vsnprintf+0x8c4>
4100429c:	ea00011e 	b	4100471c <vsnprintf+0x8c4>
410042a0:	ea00011d 	b	4100471c <vsnprintf+0x8c4>
410042a4:	ea00011c 	b	4100471c <vsnprintf+0x8c4>
410042a8:	ea00011b 	b	4100471c <vsnprintf+0x8c4>
410042ac:	ea000110 	b	410046f4 <vsnprintf+0x89c>
410042b0:	ea000119 	b	4100471c <vsnprintf+0x8c4>
410042b4:	ea000118 	b	4100471c <vsnprintf+0x8c4>
410042b8:	ea000117 	b	4100471c <vsnprintf+0x8c4>
410042bc:	ea000116 	b	4100471c <vsnprintf+0x8c4>
410042c0:	ea000115 	b	4100471c <vsnprintf+0x8c4>
410042c4:	ea000114 	b	4100471c <vsnprintf+0x8c4>
410042c8:	ea000113 	b	4100471c <vsnprintf+0x8c4>
410042cc:	ea000112 	b	4100471c <vsnprintf+0x8c4>
410042d0:	ea000111 	b	4100471c <vsnprintf+0x8c4>
410042d4:	ea000110 	b	4100471c <vsnprintf+0x8c4>
410042d8:	ea000014 	b	41004330 <vsnprintf+0x4d8>
410042dc:	ea00010a 	b	4100470c <vsnprintf+0x8b4>
410042e0:	ea00010d 	b	4100471c <vsnprintf+0x8c4>
410042e4:	ea00010c 	b	4100471c <vsnprintf+0x8c4>
410042e8:	ea00010b 	b	4100471c <vsnprintf+0x8c4>
410042ec:	ea00010a 	b	4100471c <vsnprintf+0x8c4>
410042f0:	ea000105 	b	4100470c <vsnprintf+0x8b4>
410042f4:	ea000108 	b	4100471c <vsnprintf+0x8c4>
410042f8:	ea000107 	b	4100471c <vsnprintf+0x8c4>
410042fc:	ea000106 	b	4100471c <vsnprintf+0x8c4>
41004300:	ea000105 	b	4100471c <vsnprintf+0x8c4>
41004304:	ea0000be 	b	41004604 <vsnprintf+0x7ac>
41004308:	ea0000f6 	b	410046e8 <vsnprintf+0x890>
4100430c:	ea00009c 	b	41004584 <vsnprintf+0x72c>
41004310:	ea000101 	b	4100471c <vsnprintf+0x8c4>
41004314:	ea000100 	b	4100471c <vsnprintf+0x8c4>
41004318:	ea00003c 	b	41004410 <vsnprintf+0x5b8>
4100431c:	ea0000fe 	b	4100471c <vsnprintf+0x8c4>
41004320:	ea00011b 	b	41004794 <vsnprintf+0x93c>
41004324:	ea0000fc 	b	4100471c <vsnprintf+0x8c4>
41004328:	ea0000fb 	b	4100471c <vsnprintf+0x8c4>
4100432c:	ea0000f3 	b	41004700 <vsnprintf+0x8a8>
41004330:	e51b3030 	ldr	r3, [fp, #-48]	; 0xffffffd0
41004334:	e2033010 	and	r3, r3, #16
41004338:	e3530000 	cmp	r3, #0
4100433c:	1a000010 	bne	41004384 <vsnprintf+0x52c>
41004340:	ea000009 	b	4100436c <vsnprintf+0x514>
41004344:	e51b2040 	ldr	r2, [fp, #-64]	; 0xffffffc0
41004348:	e51b303c 	ldr	r3, [fp, #-60]	; 0xffffffc4
4100434c:	e1520003 	cmp	r2, r3
41004350:	8a000002 	bhi	41004360 <vsnprintf+0x508>
41004354:	e51b3040 	ldr	r3, [fp, #-64]	; 0xffffffc0
41004358:	e3a02020 	mov	r2, #32
4100435c:	e5c32000 	strb	r2, [r3]
41004360:	e51b3040 	ldr	r3, [fp, #-64]	; 0xffffffc0
41004364:	e2833001 	add	r3, r3, #1
41004368:	e50b3040 	str	r3, [fp, #-64]	; 0xffffffc0
4100436c:	e51b302c 	ldr	r3, [fp, #-44]	; 0xffffffd4
41004370:	e2433001 	sub	r3, r3, #1
41004374:	e50b302c 	str	r3, [fp, #-44]	; 0xffffffd4
41004378:	e51b302c 	ldr	r3, [fp, #-44]	; 0xffffffd4
4100437c:	e3530000 	cmp	r3, #0
41004380:	caffffef 	bgt	41004344 <vsnprintf+0x4ec>
41004384:	e51b306c 	ldr	r3, [fp, #-108]	; 0xffffff94
41004388:	e2833004 	add	r3, r3, #4
4100438c:	e50b306c 	str	r3, [fp, #-108]	; 0xffffff94
41004390:	e51b306c 	ldr	r3, [fp, #-108]	; 0xffffff94
41004394:	e2433004 	sub	r3, r3, #4
41004398:	e5933000 	ldr	r3, [r3]
4100439c:	e54b3035 	strb	r3, [fp, #-53]	; 0xffffffcb
410043a0:	e51b2040 	ldr	r2, [fp, #-64]	; 0xffffffc0
410043a4:	e51b303c 	ldr	r3, [fp, #-60]	; 0xffffffc4
410043a8:	e1520003 	cmp	r2, r3
410043ac:	8a000002 	bhi	410043bc <vsnprintf+0x564>
410043b0:	e51b2040 	ldr	r2, [fp, #-64]	; 0xffffffc0
410043b4:	e55b3035 	ldrb	r3, [fp, #-53]	; 0xffffffcb
410043b8:	e5c23000 	strb	r3, [r2]
410043bc:	e51b3040 	ldr	r3, [fp, #-64]	; 0xffffffc0
410043c0:	e2833001 	add	r3, r3, #1
410043c4:	e50b3040 	str	r3, [fp, #-64]	; 0xffffffc0
410043c8:	ea000009 	b	410043f4 <vsnprintf+0x59c>
410043cc:	e51b2040 	ldr	r2, [fp, #-64]	; 0xffffffc0
410043d0:	e51b303c 	ldr	r3, [fp, #-60]	; 0xffffffc4
410043d4:	e1520003 	cmp	r2, r3
410043d8:	8a000002 	bhi	410043e8 <vsnprintf+0x590>
410043dc:	e51b3040 	ldr	r3, [fp, #-64]	; 0xffffffc0
410043e0:	e3a02020 	mov	r2, #32
410043e4:	e5c32000 	strb	r2, [r3]
410043e8:	e51b3040 	ldr	r3, [fp, #-64]	; 0xffffffc0
410043ec:	e2833001 	add	r3, r3, #1
410043f0:	e50b3040 	str	r3, [fp, #-64]	; 0xffffffc0
410043f4:	e51b302c 	ldr	r3, [fp, #-44]	; 0xffffffd4
410043f8:	e2433001 	sub	r3, r3, #1
410043fc:	e50b302c 	str	r3, [fp, #-44]	; 0xffffffd4
41004400:	e51b302c 	ldr	r3, [fp, #-44]	; 0xffffffd4
41004404:	e3530000 	cmp	r3, #0
41004408:	caffffef 	bgt	410043cc <vsnprintf+0x574>
4100440c:	ea00014d 	b	41004948 <vsnprintf+0xaf0>
41004410:	e51b306c 	ldr	r3, [fp, #-108]	; 0xffffff94
41004414:	e2833004 	add	r3, r3, #4
41004418:	e50b306c 	str	r3, [fp, #-108]	; 0xffffff94
4100441c:	e51b306c 	ldr	r3, [fp, #-108]	; 0xffffff94
41004420:	e2433004 	sub	r3, r3, #4
41004424:	e5933000 	ldr	r3, [r3]
41004428:	e50b3034 	str	r3, [fp, #-52]	; 0xffffffcc
4100442c:	e51b3034 	ldr	r3, [fp, #-52]	; 0xffffffcc
41004430:	e3530000 	cmp	r3, #0
41004434:	1a000003 	bne	41004448 <vsnprintf+0x5f0>
41004438:	e59f357c 	ldr	r3, [pc, #1404]	; 410049bc <vsnprintf+0xb64>
4100443c:	e51b1070 	ldr	r1, [fp, #-112]	; 0xffffff90
41004440:	e0813003 	add	r3, r1, r3
41004444:	e50b3034 	str	r3, [fp, #-52]	; 0xffffffcc
41004448:	e51b3028 	ldr	r3, [fp, #-40]	; 0xffffffd8
4100444c:	e51b0034 	ldr	r0, [fp, #-52]	; 0xffffffcc
41004450:	e1a01003 	mov	r1, r3
41004454:	eb000fcc 	bl	4100838c <strnlen>
41004458:	e1a03000 	mov	r3, r0
4100445c:	e50b3058 	str	r3, [fp, #-88]	; 0xffffffa8
41004460:	e51b3030 	ldr	r3, [fp, #-48]	; 0xffffffd0
41004464:	e2033010 	and	r3, r3, #16
41004468:	e3530000 	cmp	r3, #0
4100446c:	1a000015 	bne	410044c8 <vsnprintf+0x670>
41004470:	ea000009 	b	4100449c <vsnprintf+0x644>
41004474:	e51b2040 	ldr	r2, [fp, #-64]	; 0xffffffc0
41004478:	e51b303c 	ldr	r3, [fp, #-60]	; 0xffffffc4
4100447c:	e1520003 	cmp	r2, r3
41004480:	8a000002 	bhi	41004490 <vsnprintf+0x638>
41004484:	e51b3040 	ldr	r3, [fp, #-64]	; 0xffffffc0
41004488:	e3a02020 	mov	r2, #32
4100448c:	e5c32000 	strb	r2, [r3]
41004490:	e51b3040 	ldr	r3, [fp, #-64]	; 0xffffffc0
41004494:	e2833001 	add	r3, r3, #1
41004498:	e50b3040 	str	r3, [fp, #-64]	; 0xffffffc0
4100449c:	e51b202c 	ldr	r2, [fp, #-44]	; 0xffffffd4
410044a0:	e51b3058 	ldr	r3, [fp, #-88]	; 0xffffffa8
410044a4:	e1520003 	cmp	r2, r3
410044a8:	d3a03000 	movle	r3, #0
410044ac:	c3a03001 	movgt	r3, #1
410044b0:	e20320ff 	and	r2, r3, #255	; 0xff
410044b4:	e51b302c 	ldr	r3, [fp, #-44]	; 0xffffffd4
410044b8:	e2433001 	sub	r3, r3, #1
410044bc:	e50b302c 	str	r3, [fp, #-44]	; 0xffffffd4
410044c0:	e3520000 	cmp	r2, #0
410044c4:	1affffea 	bne	41004474 <vsnprintf+0x61c>
410044c8:	e3a03000 	mov	r3, #0
410044cc:	e50b3048 	str	r3, [fp, #-72]	; 0xffffffb8
410044d0:	ea000010 	b	41004518 <vsnprintf+0x6c0>
410044d4:	e51b2040 	ldr	r2, [fp, #-64]	; 0xffffffc0
410044d8:	e51b303c 	ldr	r3, [fp, #-60]	; 0xffffffc4
410044dc:	e1520003 	cmp	r2, r3
410044e0:	8a000003 	bhi	410044f4 <vsnprintf+0x69c>
410044e4:	e51b3034 	ldr	r3, [fp, #-52]	; 0xffffffcc
410044e8:	e5d33000 	ldrb	r3, [r3]
410044ec:	e51b2040 	ldr	r2, [fp, #-64]	; 0xffffffc0
410044f0:	e5c23000 	strb	r3, [r2]
410044f4:	e51b3040 	ldr	r3, [fp, #-64]	; 0xffffffc0
410044f8:	e2833001 	add	r3, r3, #1
410044fc:	e50b3040 	str	r3, [fp, #-64]	; 0xffffffc0
41004500:	e51b3034 	ldr	r3, [fp, #-52]	; 0xffffffcc
41004504:	e2833001 	add	r3, r3, #1
41004508:	e50b3034 	str	r3, [fp, #-52]	; 0xffffffcc
4100450c:	e51b3048 	ldr	r3, [fp, #-72]	; 0xffffffb8
41004510:	e2833001 	add	r3, r3, #1
41004514:	e50b3048 	str	r3, [fp, #-72]	; 0xffffffb8
41004518:	e51b2048 	ldr	r2, [fp, #-72]	; 0xffffffb8
4100451c:	e51b3058 	ldr	r3, [fp, #-88]	; 0xffffffa8
41004520:	e1520003 	cmp	r2, r3
41004524:	baffffea 	blt	410044d4 <vsnprintf+0x67c>
41004528:	ea000009 	b	41004554 <vsnprintf+0x6fc>
4100452c:	e51b2040 	ldr	r2, [fp, #-64]	; 0xffffffc0
41004530:	e51b303c 	ldr	r3, [fp, #-60]	; 0xffffffc4
41004534:	e1520003 	cmp	r2, r3
41004538:	8a000002 	bhi	41004548 <vsnprintf+0x6f0>
4100453c:	e51b3040 	ldr	r3, [fp, #-64]	; 0xffffffc0
41004540:	e3a02020 	mov	r2, #32
41004544:	e5c32000 	strb	r2, [r3]
41004548:	e51b3040 	ldr	r3, [fp, #-64]	; 0xffffffc0
4100454c:	e2833001 	add	r3, r3, #1
41004550:	e50b3040 	str	r3, [fp, #-64]	; 0xffffffc0
41004554:	e51b202c 	ldr	r2, [fp, #-44]	; 0xffffffd4
41004558:	e51b3058 	ldr	r3, [fp, #-88]	; 0xffffffa8
4100455c:	e1520003 	cmp	r2, r3
41004560:	d3a03000 	movle	r3, #0
41004564:	c3a03001 	movgt	r3, #1
41004568:	e20320ff 	and	r2, r3, #255	; 0xff
4100456c:	e51b302c 	ldr	r3, [fp, #-44]	; 0xffffffd4
41004570:	e2433001 	sub	r3, r3, #1
41004574:	e50b302c 	str	r3, [fp, #-44]	; 0xffffffd4
41004578:	e3520000 	cmp	r2, #0
4100457c:	1affffea 	bne	4100452c <vsnprintf+0x6d4>
41004580:	ea0000f0 	b	41004948 <vsnprintf+0xaf0>
41004584:	e51b302c 	ldr	r3, [fp, #-44]	; 0xffffffd4
41004588:	e3730001 	cmn	r3, #1
4100458c:	1a000004 	bne	410045a4 <vsnprintf+0x74c>
41004590:	e3a03008 	mov	r3, #8
41004594:	e50b302c 	str	r3, [fp, #-44]	; 0xffffffd4
41004598:	e51b3030 	ldr	r3, [fp, #-48]	; 0xffffffd0
4100459c:	e3833001 	orr	r3, r3, #1
410045a0:	e50b3030 	str	r3, [fp, #-48]	; 0xffffffd0
410045a4:	e51b306c 	ldr	r3, [fp, #-108]	; 0xffffff94
410045a8:	e2833004 	add	r3, r3, #4
410045ac:	e50b306c 	str	r3, [fp, #-108]	; 0xffffff94
410045b0:	e51b306c 	ldr	r3, [fp, #-108]	; 0xffffff94
410045b4:	e2433004 	sub	r3, r3, #4
410045b8:	e5933000 	ldr	r3, [r3]
410045bc:	e1a04003 	mov	r4, r3
410045c0:	e3a05000 	mov	r5, #0
410045c4:	e3a03010 	mov	r3, #16
410045c8:	e58d3000 	str	r3, [sp]
410045cc:	e51b302c 	ldr	r3, [fp, #-44]	; 0xffffffd4
410045d0:	e58d3004 	str	r3, [sp, #4]
410045d4:	e51b3028 	ldr	r3, [fp, #-40]	; 0xffffffd8
410045d8:	e58d3008 	str	r3, [sp, #8]
410045dc:	e51b3030 	ldr	r3, [fp, #-48]	; 0xffffffd0
410045e0:	e58d300c 	str	r3, [sp, #12]
410045e4:	e51b0040 	ldr	r0, [fp, #-64]	; 0xffffffc0
410045e8:	e51b103c 	ldr	r1, [fp, #-60]	; 0xffffffc4
410045ec:	e1a02004 	mov	r2, r4
410045f0:	e1a03005 	mov	r3, r5
410045f4:	ebfffc9e 	bl	41003874 <number>
410045f8:	e1a03000 	mov	r3, r0
410045fc:	e50b3040 	str	r3, [fp, #-64]	; 0xffffffc0
41004600:	ea0000d0 	b	41004948 <vsnprintf+0xaf0>
41004604:	e51b3024 	ldr	r3, [fp, #-36]	; 0xffffffdc
41004608:	e353006c 	cmp	r3, #108	; 0x6c
4100460c:	1a00000c 	bne	41004644 <vsnprintf+0x7ec>
41004610:	e51b306c 	ldr	r3, [fp, #-108]	; 0xffffff94
41004614:	e2833004 	add	r3, r3, #4
41004618:	e50b306c 	str	r3, [fp, #-108]	; 0xffffff94
4100461c:	e51b306c 	ldr	r3, [fp, #-108]	; 0xffffff94
41004620:	e2433004 	sub	r3, r3, #4
41004624:	e5933000 	ldr	r3, [r3]
41004628:	e50b3020 	str	r3, [fp, #-32]	; 0xffffffe0
4100462c:	e51b2040 	ldr	r2, [fp, #-64]	; 0xffffffc0
41004630:	e51b3060 	ldr	r3, [fp, #-96]	; 0xffffffa0
41004634:	e0632002 	rsb	r2, r3, r2
41004638:	e51b3020 	ldr	r3, [fp, #-32]	; 0xffffffe0
4100463c:	e5832000 	str	r2, [r3]
41004640:	ea0000c0 	b	41004948 <vsnprintf+0xaf0>
41004644:	e51b3024 	ldr	r3, [fp, #-36]	; 0xffffffdc
41004648:	e353005a 	cmp	r3, #90	; 0x5a
4100464c:	1a00000d 	bne	41004688 <vsnprintf+0x830>
41004650:	e51b306c 	ldr	r3, [fp, #-108]	; 0xffffff94
41004654:	e2833004 	add	r3, r3, #4
41004658:	e50b306c 	str	r3, [fp, #-108]	; 0xffffff94
4100465c:	e51b306c 	ldr	r3, [fp, #-108]	; 0xffffff94
41004660:	e2433004 	sub	r3, r3, #4
41004664:	e5933000 	ldr	r3, [r3]
41004668:	e50b301c 	str	r3, [fp, #-28]	; 0xffffffe4
4100466c:	e51b2040 	ldr	r2, [fp, #-64]	; 0xffffffc0
41004670:	e51b3060 	ldr	r3, [fp, #-96]	; 0xffffffa0
41004674:	e0633002 	rsb	r3, r3, r2
41004678:	e1a02003 	mov	r2, r3
4100467c:	e51b301c 	ldr	r3, [fp, #-28]	; 0xffffffe4
41004680:	e5832000 	str	r2, [r3]
41004684:	ea0000af 	b	41004948 <vsnprintf+0xaf0>
41004688:	e51b306c 	ldr	r3, [fp, #-108]	; 0xffffff94
4100468c:	e2833004 	add	r3, r3, #4
41004690:	e50b306c 	str	r3, [fp, #-108]	; 0xffffff94
41004694:	e51b306c 	ldr	r3, [fp, #-108]	; 0xffffff94
41004698:	e2433004 	sub	r3, r3, #4
4100469c:	e5933000 	ldr	r3, [r3]
410046a0:	e50b3018 	str	r3, [fp, #-24]	; 0xffffffe8
410046a4:	e51b2040 	ldr	r2, [fp, #-64]	; 0xffffffc0
410046a8:	e51b3060 	ldr	r3, [fp, #-96]	; 0xffffffa0
410046ac:	e0632002 	rsb	r2, r3, r2
410046b0:	e51b3018 	ldr	r3, [fp, #-24]	; 0xffffffe8
410046b4:	e5832000 	str	r2, [r3]
410046b8:	ea0000a2 	b	41004948 <vsnprintf+0xaf0>
410046bc:	e51b2040 	ldr	r2, [fp, #-64]	; 0xffffffc0
410046c0:	e51b303c 	ldr	r3, [fp, #-60]	; 0xffffffc4
410046c4:	e1520003 	cmp	r2, r3
410046c8:	8a000002 	bhi	410046d8 <vsnprintf+0x880>
410046cc:	e51b3040 	ldr	r3, [fp, #-64]	; 0xffffffc0
410046d0:	e3a02025 	mov	r2, #37	; 0x25
410046d4:	e5c32000 	strb	r2, [r3]
410046d8:	e51b3040 	ldr	r3, [fp, #-64]	; 0xffffffc0
410046dc:	e2833001 	add	r3, r3, #1
410046e0:	e50b3040 	str	r3, [fp, #-64]	; 0xffffffc0
410046e4:	ea000097 	b	41004948 <vsnprintf+0xaf0>
410046e8:	e3a03008 	mov	r3, #8
410046ec:	e50b3044 	str	r3, [fp, #-68]	; 0xffffffbc
410046f0:	ea000027 	b	41004794 <vsnprintf+0x93c>
410046f4:	e51b3030 	ldr	r3, [fp, #-48]	; 0xffffffd0
410046f8:	e3833040 	orr	r3, r3, #64	; 0x40
410046fc:	e50b3030 	str	r3, [fp, #-48]	; 0xffffffd0
41004700:	e3a03010 	mov	r3, #16
41004704:	e50b3044 	str	r3, [fp, #-68]	; 0xffffffbc
41004708:	ea000021 	b	41004794 <vsnprintf+0x93c>
4100470c:	e51b3030 	ldr	r3, [fp, #-48]	; 0xffffffd0
41004710:	e3833002 	orr	r3, r3, #2
41004714:	e50b3030 	str	r3, [fp, #-48]	; 0xffffffd0
41004718:	ea00001d 	b	41004794 <vsnprintf+0x93c>
4100471c:	e51b2040 	ldr	r2, [fp, #-64]	; 0xffffffc0
41004720:	e51b303c 	ldr	r3, [fp, #-60]	; 0xffffffc4
41004724:	e1520003 	cmp	r2, r3
41004728:	8a000002 	bhi	41004738 <vsnprintf+0x8e0>
4100472c:	e51b3040 	ldr	r3, [fp, #-64]	; 0xffffffc0
41004730:	e3a02025 	mov	r2, #37	; 0x25
41004734:	e5c32000 	strb	r2, [r3]
41004738:	e51b3040 	ldr	r3, [fp, #-64]	; 0xffffffc0
4100473c:	e2833001 	add	r3, r3, #1
41004740:	e50b3040 	str	r3, [fp, #-64]	; 0xffffffc0
41004744:	e51b3068 	ldr	r3, [fp, #-104]	; 0xffffff98
41004748:	e5d33000 	ldrb	r3, [r3]
4100474c:	e3530000 	cmp	r3, #0
41004750:	0a00000b 	beq	41004784 <vsnprintf+0x92c>
41004754:	e51b2040 	ldr	r2, [fp, #-64]	; 0xffffffc0
41004758:	e51b303c 	ldr	r3, [fp, #-60]	; 0xffffffc4
4100475c:	e1520003 	cmp	r2, r3
41004760:	8a000003 	bhi	41004774 <vsnprintf+0x91c>
41004764:	e51b3068 	ldr	r3, [fp, #-104]	; 0xffffff98
41004768:	e5d33000 	ldrb	r3, [r3]
4100476c:	e51b2040 	ldr	r2, [fp, #-64]	; 0xffffffc0
41004770:	e5c23000 	strb	r3, [r2]
41004774:	e51b3040 	ldr	r3, [fp, #-64]	; 0xffffffc0
41004778:	e2833001 	add	r3, r3, #1
4100477c:	e50b3040 	str	r3, [fp, #-64]	; 0xffffffc0
41004780:	ea000070 	b	41004948 <vsnprintf+0xaf0>
41004784:	e51b3068 	ldr	r3, [fp, #-104]	; 0xffffff98
41004788:	e2433001 	sub	r3, r3, #1
4100478c:	e50b3068 	str	r3, [fp, #-104]	; 0xffffff98
41004790:	ea00006c 	b	41004948 <vsnprintf+0xaf0>
41004794:	e51b3024 	ldr	r3, [fp, #-36]	; 0xffffffdc
41004798:	e353004c 	cmp	r3, #76	; 0x4c
4100479c:	1a000008 	bne	410047c4 <vsnprintf+0x96c>
410047a0:	e51b306c 	ldr	r3, [fp, #-108]	; 0xffffff94
410047a4:	e2833008 	add	r3, r3, #8
410047a8:	e50b306c 	str	r3, [fp, #-108]	; 0xffffff94
410047ac:	e51b306c 	ldr	r3, [fp, #-108]	; 0xffffff94
410047b0:	e2433008 	sub	r3, r3, #8
410047b4:	e8930018 	ldm	r3, {r3, r4}
410047b8:	e50b3054 	str	r3, [fp, #-84]	; 0xffffffac
410047bc:	e50b4050 	str	r4, [fp, #-80]	; 0xffffffb0
410047c0:	ea00004f 	b	41004904 <vsnprintf+0xaac>
410047c4:	e51b3024 	ldr	r3, [fp, #-36]	; 0xffffffdc
410047c8:	e353006c 	cmp	r3, #108	; 0x6c
410047cc:	1a000011 	bne	41004818 <vsnprintf+0x9c0>
410047d0:	e51b306c 	ldr	r3, [fp, #-108]	; 0xffffff94
410047d4:	e2833004 	add	r3, r3, #4
410047d8:	e50b306c 	str	r3, [fp, #-108]	; 0xffffff94
410047dc:	e51b306c 	ldr	r3, [fp, #-108]	; 0xffffff94
410047e0:	e2433004 	sub	r3, r3, #4
410047e4:	e5933000 	ldr	r3, [r3]
410047e8:	e3a04000 	mov	r4, #0
410047ec:	e50b3054 	str	r3, [fp, #-84]	; 0xffffffac
410047f0:	e50b4050 	str	r4, [fp, #-80]	; 0xffffffb0
410047f4:	e51b3030 	ldr	r3, [fp, #-48]	; 0xffffffd0
410047f8:	e2033002 	and	r3, r3, #2
410047fc:	e3530000 	cmp	r3, #0
41004800:	0a00003f 	beq	41004904 <vsnprintf+0xaac>
41004804:	e51b3054 	ldr	r3, [fp, #-84]	; 0xffffffac
41004808:	e1a04fc3 	asr	r4, r3, #31
4100480c:	e50b3054 	str	r3, [fp, #-84]	; 0xffffffac
41004810:	e50b4050 	str	r4, [fp, #-80]	; 0xffffffb0
41004814:	ea00003a 	b	41004904 <vsnprintf+0xaac>
41004818:	e51b3024 	ldr	r3, [fp, #-36]	; 0xffffffdc
4100481c:	e353005a 	cmp	r3, #90	; 0x5a
41004820:	1a000009 	bne	4100484c <vsnprintf+0x9f4>
41004824:	e51b306c 	ldr	r3, [fp, #-108]	; 0xffffff94
41004828:	e2833004 	add	r3, r3, #4
4100482c:	e50b306c 	str	r3, [fp, #-108]	; 0xffffff94
41004830:	e51b306c 	ldr	r3, [fp, #-108]	; 0xffffff94
41004834:	e2433004 	sub	r3, r3, #4
41004838:	e5933000 	ldr	r3, [r3]
4100483c:	e3a04000 	mov	r4, #0
41004840:	e50b3054 	str	r3, [fp, #-84]	; 0xffffffac
41004844:	e50b4050 	str	r4, [fp, #-80]	; 0xffffffb0
41004848:	ea00002d 	b	41004904 <vsnprintf+0xaac>
4100484c:	e51b3024 	ldr	r3, [fp, #-36]	; 0xffffffdc
41004850:	e3530068 	cmp	r3, #104	; 0x68
41004854:	1a000019 	bne	410048c0 <vsnprintf+0xa68>
41004858:	e51b306c 	ldr	r3, [fp, #-108]	; 0xffffff94
4100485c:	e2833004 	add	r3, r3, #4
41004860:	e50b306c 	str	r3, [fp, #-108]	; 0xffffff94
41004864:	e51b306c 	ldr	r3, [fp, #-108]	; 0xffffff94
41004868:	e2433004 	sub	r3, r3, #4
4100486c:	e5933000 	ldr	r3, [r3]
41004870:	e1a03803 	lsl	r3, r3, #16
41004874:	e1a03823 	lsr	r3, r3, #16
41004878:	e50b3054 	str	r3, [fp, #-84]	; 0xffffffac
4100487c:	e51b3054 	ldr	r3, [fp, #-84]	; 0xffffffac
41004880:	e3a04000 	mov	r4, #0
41004884:	e50b3054 	str	r3, [fp, #-84]	; 0xffffffac
41004888:	e50b4050 	str	r4, [fp, #-80]	; 0xffffffb0
4100488c:	e51b3030 	ldr	r3, [fp, #-48]	; 0xffffffd0
41004890:	e2033002 	and	r3, r3, #2
41004894:	e3530000 	cmp	r3, #0
41004898:	0a000019 	beq	41004904 <vsnprintf+0xaac>
4100489c:	e15b35b4 	ldrh	r3, [fp, #-84]	; 0xffffffac
410048a0:	e1a03803 	lsl	r3, r3, #16
410048a4:	e1a03843 	asr	r3, r3, #16
410048a8:	e50b3054 	str	r3, [fp, #-84]	; 0xffffffac
410048ac:	e51b3054 	ldr	r3, [fp, #-84]	; 0xffffffac
410048b0:	e1a04fc3 	asr	r4, r3, #31
410048b4:	e50b3054 	str	r3, [fp, #-84]	; 0xffffffac
410048b8:	e50b4050 	str	r4, [fp, #-80]	; 0xffffffb0
410048bc:	ea000010 	b	41004904 <vsnprintf+0xaac>
410048c0:	e51b306c 	ldr	r3, [fp, #-108]	; 0xffffff94
410048c4:	e2833004 	add	r3, r3, #4
410048c8:	e50b306c 	str	r3, [fp, #-108]	; 0xffffff94
410048cc:	e51b306c 	ldr	r3, [fp, #-108]	; 0xffffff94
410048d0:	e2433004 	sub	r3, r3, #4
410048d4:	e5933000 	ldr	r3, [r3]
410048d8:	e3a04000 	mov	r4, #0
410048dc:	e50b3054 	str	r3, [fp, #-84]	; 0xffffffac
410048e0:	e50b4050 	str	r4, [fp, #-80]	; 0xffffffb0
410048e4:	e51b3030 	ldr	r3, [fp, #-48]	; 0xffffffd0
410048e8:	e2033002 	and	r3, r3, #2
410048ec:	e3530000 	cmp	r3, #0
410048f0:	0a000003 	beq	41004904 <vsnprintf+0xaac>
410048f4:	e51b3054 	ldr	r3, [fp, #-84]	; 0xffffffac
410048f8:	e1a04fc3 	asr	r4, r3, #31
410048fc:	e50b3054 	str	r3, [fp, #-84]	; 0xffffffac
41004900:	e50b4050 	str	r4, [fp, #-80]	; 0xffffffb0
41004904:	e24b4054 	sub	r4, fp, #84	; 0x54
41004908:	e8940030 	ldm	r4, {r4, r5}
4100490c:	e51b3044 	ldr	r3, [fp, #-68]	; 0xffffffbc
41004910:	e58d3000 	str	r3, [sp]
41004914:	e51b302c 	ldr	r3, [fp, #-44]	; 0xffffffd4
41004918:	e58d3004 	str	r3, [sp, #4]
4100491c:	e51b3028 	ldr	r3, [fp, #-40]	; 0xffffffd8
41004920:	e58d3008 	str	r3, [sp, #8]
41004924:	e51b3030 	ldr	r3, [fp, #-48]	; 0xffffffd0
41004928:	e58d300c 	str	r3, [sp, #12]
4100492c:	e51b0040 	ldr	r0, [fp, #-64]	; 0xffffffc0
41004930:	e51b103c 	ldr	r1, [fp, #-60]	; 0xffffffc4
41004934:	e1a02004 	mov	r2, r4
41004938:	e1a03005 	mov	r3, r5
4100493c:	ebfffbcc 	bl	41003874 <number>
41004940:	e1a03000 	mov	r3, r0
41004944:	e50b3040 	str	r3, [fp, #-64]	; 0xffffffc0
41004948:	e51b3068 	ldr	r3, [fp, #-104]	; 0xffffff98
4100494c:	e2833001 	add	r3, r3, #1
41004950:	e50b3068 	str	r3, [fp, #-104]	; 0xffffff98
41004954:	e51b3068 	ldr	r3, [fp, #-104]	; 0xffffff98
41004958:	e5d33000 	ldrb	r3, [r3]
4100495c:	e3530000 	cmp	r3, #0
41004960:	1afffd5d 	bne	41003edc <vsnprintf+0x84>
41004964:	e51b2040 	ldr	r2, [fp, #-64]	; 0xffffffc0
41004968:	e51b303c 	ldr	r3, [fp, #-60]	; 0xffffffc4
4100496c:	e1520003 	cmp	r2, r3
41004970:	8a000003 	bhi	41004984 <vsnprintf+0xb2c>
41004974:	e51b3040 	ldr	r3, [fp, #-64]	; 0xffffffc0
41004978:	e3a02000 	mov	r2, #0
4100497c:	e5c32000 	strb	r2, [r3]
41004980:	ea000005 	b	4100499c <vsnprintf+0xb44>
41004984:	e51b3064 	ldr	r3, [fp, #-100]	; 0xffffff9c
41004988:	e3530000 	cmp	r3, #0
4100498c:	0a000002 	beq	4100499c <vsnprintf+0xb44>
41004990:	e51b303c 	ldr	r3, [fp, #-60]	; 0xffffffc4
41004994:	e3a02000 	mov	r2, #0
41004998:	e5c32000 	strb	r2, [r3]
4100499c:	e51b2040 	ldr	r2, [fp, #-64]	; 0xffffffc0
410049a0:	e51b3060 	ldr	r3, [fp, #-96]	; 0xffffffa0
410049a4:	e0633002 	rsb	r3, r3, r2
410049a8:	e1a00003 	mov	r0, r3
410049ac:	e24bd014 	sub	sp, fp, #20
410049b0:	e89da830 	ldm	sp, {r4, r5, fp, sp, pc}
410049b4:	00007204 	.word	0x00007204
410049b8:	0000006c 	.word	0x0000006c
410049bc:	fffff9cc 	.word	0xfffff9cc

410049c0 <printk>:
410049c0:	e1a0c00d 	mov	ip, sp
410049c4:	e92d000f 	push	{r0, r1, r2, r3}
410049c8:	e92dd810 	push	{r4, fp, ip, lr, pc}
410049cc:	e24cb014 	sub	fp, ip, #20
410049d0:	e24dd014 	sub	sp, sp, #20
410049d4:	e59f4094 	ldr	r4, [pc, #148]	; 41004a70 <printk+0xb0>
410049d8:	e08f4004 	add	r4, pc, r4
410049dc:	e28b3004 	add	r3, fp, #4
410049e0:	e2833004 	add	r3, r3, #4
410049e4:	e50b3020 	str	r3, [fp, #-32]	; 0xffffffe0
410049e8:	e59b2004 	ldr	r2, [fp, #4]
410049ec:	e59f3080 	ldr	r3, [pc, #128]	; 41004a74 <printk+0xb4>
410049f0:	e0843003 	add	r3, r4, r3
410049f4:	e1a00003 	mov	r0, r3
410049f8:	e3a01b01 	mov	r1, #1024	; 0x400
410049fc:	e51b3020 	ldr	r3, [fp, #-32]	; 0xffffffe0
41004a00:	ebfffd14 	bl	41003e58 <vsnprintf>
41004a04:	e1a03000 	mov	r3, r0
41004a08:	e50b301c 	str	r3, [fp, #-28]	; 0xffffffe4
41004a0c:	e59f3060 	ldr	r3, [pc, #96]	; 41004a74 <printk+0xb4>
41004a10:	e0843003 	add	r3, r4, r3
41004a14:	e50b3018 	str	r3, [fp, #-24]	; 0xffffffe8
41004a18:	ea00000c 	b	41004a50 <printk+0x90>
41004a1c:	e51b3018 	ldr	r3, [fp, #-24]	; 0xffffffe8
41004a20:	e5d33000 	ldrb	r3, [r3]
41004a24:	e353000a 	cmp	r3, #10
41004a28:	1a000001 	bne	41004a34 <printk+0x74>
41004a2c:	e3a0000d 	mov	r0, #13
41004a30:	eb00081b 	bl	41006aa4 <putc>
41004a34:	e51b3018 	ldr	r3, [fp, #-24]	; 0xffffffe8
41004a38:	e5d33000 	ldrb	r3, [r3]
41004a3c:	e1a00003 	mov	r0, r3
41004a40:	eb000817 	bl	41006aa4 <putc>
41004a44:	e51b3018 	ldr	r3, [fp, #-24]	; 0xffffffe8
41004a48:	e2833001 	add	r3, r3, #1
41004a4c:	e50b3018 	str	r3, [fp, #-24]	; 0xffffffe8
41004a50:	e51b3018 	ldr	r3, [fp, #-24]	; 0xffffffe8
41004a54:	e5d33000 	ldrb	r3, [r3]
41004a58:	e3530000 	cmp	r3, #0
41004a5c:	1affffee 	bne	41004a1c <printk+0x5c>
41004a60:	e51b301c 	ldr	r3, [fp, #-28]	; 0xffffffe4
41004a64:	e1a00003 	mov	r0, r3
41004a68:	e24bd010 	sub	sp, fp, #16
41004a6c:	e89da810 	ldm	sp, {r4, fp, sp, pc}
41004a70:	000066a0 	.word	0x000066a0
41004a74:	000f4524 	.word	0x000f4524

41004a78 <printf>:
41004a78:	e1a0c00d 	mov	ip, sp
41004a7c:	e92d000f 	push	{r0, r1, r2, r3}
41004a80:	e92dd810 	push	{r4, fp, ip, lr, pc}
41004a84:	e24cb014 	sub	fp, ip, #20
41004a88:	e24dd014 	sub	sp, sp, #20
41004a8c:	e59f409c 	ldr	r4, [pc, #156]	; 41004b30 <printf+0xb8>
41004a90:	e08f4004 	add	r4, pc, r4
41004a94:	e28b3004 	add	r3, fp, #4
41004a98:	e2833004 	add	r3, r3, #4
41004a9c:	e50b3020 	str	r3, [fp, #-32]	; 0xffffffe0
41004aa0:	e59b2004 	ldr	r2, [fp, #4]
41004aa4:	e59f3088 	ldr	r3, [pc, #136]	; 41004b34 <printf+0xbc>
41004aa8:	e0843003 	add	r3, r4, r3
41004aac:	e1a00003 	mov	r0, r3
41004ab0:	e3a01b01 	mov	r1, #1024	; 0x400
41004ab4:	e51b3020 	ldr	r3, [fp, #-32]	; 0xffffffe0
41004ab8:	ebfffce6 	bl	41003e58 <vsnprintf>
41004abc:	e1a03000 	mov	r3, r0
41004ac0:	e50b301c 	str	r3, [fp, #-28]	; 0xffffffe4
41004ac4:	eb0004c8 	bl	41005dec <vk_scheduler_lock>
41004ac8:	e59f3064 	ldr	r3, [pc, #100]	; 41004b34 <printf+0xbc>
41004acc:	e0843003 	add	r3, r4, r3
41004ad0:	e50b3018 	str	r3, [fp, #-24]	; 0xffffffe8
41004ad4:	ea00000c 	b	41004b0c <printf+0x94>
41004ad8:	e51b3018 	ldr	r3, [fp, #-24]	; 0xffffffe8
41004adc:	e5d33000 	ldrb	r3, [r3]
41004ae0:	e353000a 	cmp	r3, #10
41004ae4:	1a000001 	bne	41004af0 <printf+0x78>
41004ae8:	e3a0000d 	mov	r0, #13
41004aec:	eb0007ec 	bl	41006aa4 <putc>
41004af0:	e51b3018 	ldr	r3, [fp, #-24]	; 0xffffffe8
41004af4:	e5d33000 	ldrb	r3, [r3]
41004af8:	e1a00003 	mov	r0, r3
41004afc:	eb0007e8 	bl	41006aa4 <putc>
41004b00:	e51b3018 	ldr	r3, [fp, #-24]	; 0xffffffe8
41004b04:	e2833001 	add	r3, r3, #1
41004b08:	e50b3018 	str	r3, [fp, #-24]	; 0xffffffe8
41004b0c:	e51b3018 	ldr	r3, [fp, #-24]	; 0xffffffe8
41004b10:	e5d33000 	ldrb	r3, [r3]
41004b14:	e3530000 	cmp	r3, #0
41004b18:	1affffee 	bne	41004ad8 <printf+0x60>
41004b1c:	eb0004cc 	bl	41005e54 <vk_scheduler_unlock>
41004b20:	e51b301c 	ldr	r3, [fp, #-28]	; 0xffffffe4
41004b24:	e1a00003 	mov	r0, r3
41004b28:	e24bd010 	sub	sp, fp, #16
41004b2c:	e89da810 	ldm	sp, {r4, fp, sp, pc}
41004b30:	000065e8 	.word	0x000065e8
41004b34:	000f4924 	.word	0x000f4924

41004b38 <vk_init_kdata_struct>:
41004b38:	e1a0c00d 	mov	ip, sp
41004b3c:	e92dd810 	push	{r4, fp, ip, lr, pc}
41004b40:	e24cb004 	sub	fp, ip, #4
41004b44:	e24dd00c 	sub	sp, sp, #12
41004b48:	e59f4058 	ldr	r4, [pc, #88]	; 41004ba8 <vk_init_kdata_struct+0x70>
41004b4c:	e08f4004 	add	r4, pc, r4
41004b50:	eb0000c6 	bl	41004e70 <vk_init_ready_queue>
41004b54:	eb00008b 	bl	41004d88 <vk_init_wait_queue>
41004b58:	eb000050 	bl	41004ca0 <vk_init_tcb_log_queue>
41004b5c:	ebfff06a 	bl	41000d0c <vk_init_dd_table>
41004b60:	eb000013 	bl	41004bb4 <vk_init_thread_join_table>
41004b64:	e59f3040 	ldr	r3, [pc, #64]	; 41004bac <vk_init_kdata_struct+0x74>
41004b68:	e7943003 	ldr	r3, [r4, r3]
41004b6c:	e1a00003 	mov	r0, r3
41004b70:	e3a01000 	mov	r1, #0
41004b74:	e3a02084 	mov	r2, #132	; 0x84
41004b78:	eb001614 	bl	4100a3d0 <memset>
41004b7c:	e59f3028 	ldr	r3, [pc, #40]	; 41004bac <vk_init_kdata_struct+0x74>
41004b80:	e7942003 	ldr	r2, [r4, r3]
41004b84:	e3a03004 	mov	r3, #4
41004b88:	e5823000 	str	r3, [r2]
41004b8c:	e59f301c 	ldr	r3, [pc, #28]	; 41004bb0 <vk_init_kdata_struct+0x78>
41004b90:	e7942003 	ldr	r2, [r4, r3]
41004b94:	e59f3010 	ldr	r3, [pc, #16]	; 41004bac <vk_init_kdata_struct+0x74>
41004b98:	e7943003 	ldr	r3, [r4, r3]
41004b9c:	e5823000 	str	r3, [r2]
41004ba0:	e24bd010 	sub	sp, fp, #16
41004ba4:	e89da810 	ldm	sp, {r4, fp, sp, pc}
41004ba8:	0000652c 	.word	0x0000652c
41004bac:	0000008c 	.word	0x0000008c
41004bb0:	000000ac 	.word	0x000000ac

41004bb4 <vk_init_thread_join_table>:
41004bb4:	e1a0c00d 	mov	ip, sp
41004bb8:	e92dd800 	push	{fp, ip, lr, pc}
41004bbc:	e24cb004 	sub	fp, ip, #4
41004bc0:	e24dd010 	sub	sp, sp, #16
41004bc4:	e59f00cc 	ldr	r0, [pc, #204]	; 41004c98 <vk_init_thread_join_table+0xe4>
41004bc8:	e50b0018 	str	r0, [fp, #-24]	; 0xffffffe8
41004bcc:	e51b3018 	ldr	r3, [fp, #-24]	; 0xffffffe8
41004bd0:	e08f3003 	add	r3, pc, r3
41004bd4:	e50b3018 	str	r3, [fp, #-24]	; 0xffffffe8
41004bd8:	e3a03000 	mov	r3, #0
41004bdc:	e54b300d 	strb	r3, [fp, #-13]
41004be0:	ea000027 	b	41004c84 <vk_init_thread_join_table+0xd0>
41004be4:	e55b200d 	ldrb	r2, [fp, #-13]
41004be8:	e59f30ac 	ldr	r3, [pc, #172]	; 41004c9c <vk_init_thread_join_table+0xe8>
41004bec:	e51b0018 	ldr	r0, [fp, #-24]	; 0xffffffe8
41004bf0:	e7901003 	ldr	r1, [r0, r3]
41004bf4:	e1a03002 	mov	r3, r2
41004bf8:	e1a02103 	lsl	r2, r3, #2
41004bfc:	e1a03102 	lsl	r3, r2, #2
41004c00:	e0623003 	rsb	r3, r2, r3
41004c04:	e0812003 	add	r2, r1, r3
41004c08:	e3a03000 	mov	r3, #0
41004c0c:	e5823000 	str	r3, [r2]
41004c10:	e55b200d 	ldrb	r2, [fp, #-13]
41004c14:	e59f3080 	ldr	r3, [pc, #128]	; 41004c9c <vk_init_thread_join_table+0xe8>
41004c18:	e51b0018 	ldr	r0, [fp, #-24]	; 0xffffffe8
41004c1c:	e7901003 	ldr	r1, [r0, r3]
41004c20:	e3a00004 	mov	r0, #4
41004c24:	e1a03002 	mov	r3, r2
41004c28:	e1a02103 	lsl	r2, r3, #2
41004c2c:	e1a03102 	lsl	r3, r2, #2
41004c30:	e0623003 	rsb	r3, r2, r3
41004c34:	e0813003 	add	r3, r1, r3
41004c38:	e0832000 	add	r2, r3, r0
41004c3c:	e3a03000 	mov	r3, #0
41004c40:	e5823000 	str	r3, [r2]
41004c44:	e55b200d 	ldrb	r2, [fp, #-13]
41004c48:	e59f304c 	ldr	r3, [pc, #76]	; 41004c9c <vk_init_thread_join_table+0xe8>
41004c4c:	e51b0018 	ldr	r0, [fp, #-24]	; 0xffffffe8
41004c50:	e7901003 	ldr	r1, [r0, r3]
41004c54:	e3a00008 	mov	r0, #8
41004c58:	e1a03002 	mov	r3, r2
41004c5c:	e1a02103 	lsl	r2, r3, #2
41004c60:	e1a03102 	lsl	r3, r2, #2
41004c64:	e0623003 	rsb	r3, r2, r3
41004c68:	e0813003 	add	r3, r1, r3
41004c6c:	e0832000 	add	r2, r3, r0
41004c70:	e3a03000 	mov	r3, #0
41004c74:	e5823000 	str	r3, [r2]
41004c78:	e55b300d 	ldrb	r3, [fp, #-13]
41004c7c:	e2833001 	add	r3, r3, #1
41004c80:	e54b300d 	strb	r3, [fp, #-13]
41004c84:	e55b300d 	ldrb	r3, [fp, #-13]
41004c88:	e3530009 	cmp	r3, #9
41004c8c:	9affffd4 	bls	41004be4 <vk_init_thread_join_table+0x30>
41004c90:	e24bd00c 	sub	sp, fp, #12
41004c94:	e89da800 	ldm	sp, {fp, sp, pc}
41004c98:	000064a8 	.word	0x000064a8
41004c9c:	000000c4 	.word	0x000000c4

41004ca0 <vk_init_tcb_log_queue>:
41004ca0:	e1a0c00d 	mov	ip, sp
41004ca4:	e92dd800 	push	{fp, ip, lr, pc}
41004ca8:	e24cb004 	sub	fp, ip, #4
41004cac:	e24dd010 	sub	sp, sp, #16
41004cb0:	e59f00c8 	ldr	r0, [pc, #200]	; 41004d80 <vk_init_tcb_log_queue+0xe0>
41004cb4:	e50b0018 	str	r0, [fp, #-24]	; 0xffffffe8
41004cb8:	e51b1018 	ldr	r1, [fp, #-24]	; 0xffffffe8
41004cbc:	e08f1001 	add	r1, pc, r1
41004cc0:	e50b1018 	str	r1, [fp, #-24]	; 0xffffffe8
41004cc4:	e3a03000 	mov	r3, #0
41004cc8:	e54b300d 	strb	r3, [fp, #-13]
41004ccc:	ea000026 	b	41004d6c <vk_init_tcb_log_queue+0xcc>
41004cd0:	e55b100d 	ldrb	r1, [fp, #-13]
41004cd4:	e55b200d 	ldrb	r2, [fp, #-13]
41004cd8:	e59f30a4 	ldr	r3, [pc, #164]	; 41004d84 <vk_init_tcb_log_queue+0xe4>
41004cdc:	e51b0018 	ldr	r0, [fp, #-24]	; 0xffffffe8
41004ce0:	e7903003 	ldr	r3, [r0, r3]
41004ce4:	e7832201 	str	r2, [r3, r1, lsl #4]
41004ce8:	e55b000d 	ldrb	r0, [fp, #-13]
41004cec:	e59f3090 	ldr	r3, [pc, #144]	; 41004d84 <vk_init_tcb_log_queue+0xe4>
41004cf0:	e51b1018 	ldr	r1, [fp, #-24]	; 0xffffffe8
41004cf4:	e7912003 	ldr	r2, [r1, r3]
41004cf8:	e3a01004 	mov	r1, #4
41004cfc:	e1a03200 	lsl	r3, r0, #4
41004d00:	e0823003 	add	r3, r2, r3
41004d04:	e0832001 	add	r2, r3, r1
41004d08:	e3a03000 	mov	r3, #0
41004d0c:	e5823000 	str	r3, [r2]
41004d10:	e55b200d 	ldrb	r2, [fp, #-13]
41004d14:	e59f3068 	ldr	r3, [pc, #104]	; 41004d84 <vk_init_tcb_log_queue+0xe4>
41004d18:	e51b0018 	ldr	r0, [fp, #-24]	; 0xffffffe8
41004d1c:	e7901003 	ldr	r1, [r0, r3]
41004d20:	e1a03082 	lsl	r3, r2, #1
41004d24:	e2832001 	add	r2, r3, #1
41004d28:	e3a03000 	mov	r3, #0
41004d2c:	e7813182 	str	r3, [r1, r2, lsl #3]
41004d30:	e55b200d 	ldrb	r2, [fp, #-13]
41004d34:	e59f3048 	ldr	r3, [pc, #72]	; 41004d84 <vk_init_tcb_log_queue+0xe4>
41004d38:	e51b0018 	ldr	r0, [fp, #-24]	; 0xffffffe8
41004d3c:	e7901003 	ldr	r1, [r0, r3]
41004d40:	e1a03082 	lsl	r3, r2, #1
41004d44:	e2833001 	add	r3, r3, #1
41004d48:	e3a02004 	mov	r2, #4
41004d4c:	e1a03183 	lsl	r3, r3, #3
41004d50:	e0813003 	add	r3, r1, r3
41004d54:	e0832002 	add	r2, r3, r2
41004d58:	e3a03000 	mov	r3, #0
41004d5c:	e5823000 	str	r3, [r2]
41004d60:	e55b300d 	ldrb	r3, [fp, #-13]
41004d64:	e2833001 	add	r3, r3, #1
41004d68:	e54b300d 	strb	r3, [fp, #-13]
41004d6c:	e55b300d 	ldrb	r3, [fp, #-13]
41004d70:	e353001f 	cmp	r3, #31
41004d74:	9affffd5 	bls	41004cd0 <vk_init_tcb_log_queue+0x30>
41004d78:	e24bd00c 	sub	sp, fp, #12
41004d7c:	e89da800 	ldm	sp, {fp, sp, pc}
41004d80:	000063bc 	.word	0x000063bc
41004d84:	00000098 	.word	0x00000098

41004d88 <vk_init_wait_queue>:
41004d88:	e1a0c00d 	mov	ip, sp
41004d8c:	e92dd800 	push	{fp, ip, lr, pc}
41004d90:	e24cb004 	sub	fp, ip, #4
41004d94:	e24dd010 	sub	sp, sp, #16
41004d98:	e59f00c8 	ldr	r0, [pc, #200]	; 41004e68 <vk_init_wait_queue+0xe0>
41004d9c:	e50b0018 	str	r0, [fp, #-24]	; 0xffffffe8
41004da0:	e51b1018 	ldr	r1, [fp, #-24]	; 0xffffffe8
41004da4:	e08f1001 	add	r1, pc, r1
41004da8:	e50b1018 	str	r1, [fp, #-24]	; 0xffffffe8
41004dac:	e3a03000 	mov	r3, #0
41004db0:	e54b300d 	strb	r3, [fp, #-13]
41004db4:	ea000026 	b	41004e54 <vk_init_wait_queue+0xcc>
41004db8:	e55b100d 	ldrb	r1, [fp, #-13]
41004dbc:	e55b200d 	ldrb	r2, [fp, #-13]
41004dc0:	e59f30a4 	ldr	r3, [pc, #164]	; 41004e6c <vk_init_wait_queue+0xe4>
41004dc4:	e51b0018 	ldr	r0, [fp, #-24]	; 0xffffffe8
41004dc8:	e7903003 	ldr	r3, [r0, r3]
41004dcc:	e7832201 	str	r2, [r3, r1, lsl #4]
41004dd0:	e55b000d 	ldrb	r0, [fp, #-13]
41004dd4:	e59f3090 	ldr	r3, [pc, #144]	; 41004e6c <vk_init_wait_queue+0xe4>
41004dd8:	e51b1018 	ldr	r1, [fp, #-24]	; 0xffffffe8
41004ddc:	e7912003 	ldr	r2, [r1, r3]
41004de0:	e3a01004 	mov	r1, #4
41004de4:	e1a03200 	lsl	r3, r0, #4
41004de8:	e0823003 	add	r3, r2, r3
41004dec:	e0832001 	add	r2, r3, r1
41004df0:	e3a03000 	mov	r3, #0
41004df4:	e5823000 	str	r3, [r2]
41004df8:	e55b200d 	ldrb	r2, [fp, #-13]
41004dfc:	e59f3068 	ldr	r3, [pc, #104]	; 41004e6c <vk_init_wait_queue+0xe4>
41004e00:	e51b0018 	ldr	r0, [fp, #-24]	; 0xffffffe8
41004e04:	e7901003 	ldr	r1, [r0, r3]
41004e08:	e1a03082 	lsl	r3, r2, #1
41004e0c:	e2832001 	add	r2, r3, #1
41004e10:	e3a03000 	mov	r3, #0
41004e14:	e7813182 	str	r3, [r1, r2, lsl #3]
41004e18:	e55b200d 	ldrb	r2, [fp, #-13]
41004e1c:	e59f3048 	ldr	r3, [pc, #72]	; 41004e6c <vk_init_wait_queue+0xe4>
41004e20:	e51b0018 	ldr	r0, [fp, #-24]	; 0xffffffe8
41004e24:	e7901003 	ldr	r1, [r0, r3]
41004e28:	e1a03082 	lsl	r3, r2, #1
41004e2c:	e2833001 	add	r3, r3, #1
41004e30:	e3a02004 	mov	r2, #4
41004e34:	e1a03183 	lsl	r3, r3, #3
41004e38:	e0813003 	add	r3, r1, r3
41004e3c:	e0832002 	add	r2, r3, r2
41004e40:	e3a03000 	mov	r3, #0
41004e44:	e5823000 	str	r3, [r2]
41004e48:	e55b300d 	ldrb	r3, [fp, #-13]
41004e4c:	e2833001 	add	r3, r3, #1
41004e50:	e54b300d 	strb	r3, [fp, #-13]
41004e54:	e55b300d 	ldrb	r3, [fp, #-13]
41004e58:	e353001f 	cmp	r3, #31
41004e5c:	9affffd5 	bls	41004db8 <vk_init_wait_queue+0x30>
41004e60:	e24bd00c 	sub	sp, fp, #12
41004e64:	e89da800 	ldm	sp, {fp, sp, pc}
41004e68:	000062d4 	.word	0x000062d4
41004e6c:	000000b4 	.word	0x000000b4

41004e70 <vk_init_ready_queue>:
41004e70:	e1a0c00d 	mov	ip, sp
41004e74:	e92dd800 	push	{fp, ip, lr, pc}
41004e78:	e24cb004 	sub	fp, ip, #4
41004e7c:	e24dd010 	sub	sp, sp, #16
41004e80:	e59f00c8 	ldr	r0, [pc, #200]	; 41004f50 <vk_init_ready_queue+0xe0>
41004e84:	e50b0018 	str	r0, [fp, #-24]	; 0xffffffe8
41004e88:	e51b1018 	ldr	r1, [fp, #-24]	; 0xffffffe8
41004e8c:	e08f1001 	add	r1, pc, r1
41004e90:	e50b1018 	str	r1, [fp, #-24]	; 0xffffffe8
41004e94:	e3a03000 	mov	r3, #0
41004e98:	e54b300d 	strb	r3, [fp, #-13]
41004e9c:	ea000026 	b	41004f3c <vk_init_ready_queue+0xcc>
41004ea0:	e55b100d 	ldrb	r1, [fp, #-13]
41004ea4:	e55b200d 	ldrb	r2, [fp, #-13]
41004ea8:	e59f30a4 	ldr	r3, [pc, #164]	; 41004f54 <vk_init_ready_queue+0xe4>
41004eac:	e51b0018 	ldr	r0, [fp, #-24]	; 0xffffffe8
41004eb0:	e7903003 	ldr	r3, [r0, r3]
41004eb4:	e7832201 	str	r2, [r3, r1, lsl #4]
41004eb8:	e55b000d 	ldrb	r0, [fp, #-13]
41004ebc:	e59f3090 	ldr	r3, [pc, #144]	; 41004f54 <vk_init_ready_queue+0xe4>
41004ec0:	e51b1018 	ldr	r1, [fp, #-24]	; 0xffffffe8
41004ec4:	e7912003 	ldr	r2, [r1, r3]
41004ec8:	e3a01004 	mov	r1, #4
41004ecc:	e1a03200 	lsl	r3, r0, #4
41004ed0:	e0823003 	add	r3, r2, r3
41004ed4:	e0832001 	add	r2, r3, r1
41004ed8:	e3a03000 	mov	r3, #0
41004edc:	e5823000 	str	r3, [r2]
41004ee0:	e55b200d 	ldrb	r2, [fp, #-13]
41004ee4:	e59f3068 	ldr	r3, [pc, #104]	; 41004f54 <vk_init_ready_queue+0xe4>
41004ee8:	e51b0018 	ldr	r0, [fp, #-24]	; 0xffffffe8
41004eec:	e7901003 	ldr	r1, [r0, r3]
41004ef0:	e1a03082 	lsl	r3, r2, #1
41004ef4:	e2832001 	add	r2, r3, #1
41004ef8:	e3a03000 	mov	r3, #0
41004efc:	e7813182 	str	r3, [r1, r2, lsl #3]
41004f00:	e55b200d 	ldrb	r2, [fp, #-13]
41004f04:	e59f3048 	ldr	r3, [pc, #72]	; 41004f54 <vk_init_ready_queue+0xe4>
41004f08:	e51b0018 	ldr	r0, [fp, #-24]	; 0xffffffe8
41004f0c:	e7901003 	ldr	r1, [r0, r3]
41004f10:	e1a03082 	lsl	r3, r2, #1
41004f14:	e2833001 	add	r3, r3, #1
41004f18:	e3a02004 	mov	r2, #4
41004f1c:	e1a03183 	lsl	r3, r3, #3
41004f20:	e0813003 	add	r3, r1, r3
41004f24:	e0832002 	add	r2, r3, r2
41004f28:	e3a03000 	mov	r3, #0
41004f2c:	e5823000 	str	r3, [r2]
41004f30:	e55b300d 	ldrb	r3, [fp, #-13]
41004f34:	e2833001 	add	r3, r3, #1
41004f38:	e54b300d 	strb	r3, [fp, #-13]
41004f3c:	e55b300d 	ldrb	r3, [fp, #-13]
41004f40:	e353001f 	cmp	r3, #31
41004f44:	9affffd5 	bls	41004ea0 <vk_init_ready_queue+0x30>
41004f48:	e24bd00c 	sub	sp, fp, #12
41004f4c:	e89da800 	ldm	sp, {fp, sp, pc}
41004f50:	000061ec 	.word	0x000061ec
41004f54:	0000007c 	.word	0x0000007c

41004f58 <vk_enqueue>:
41004f58:	e1a0c00d 	mov	ip, sp
41004f5c:	e92dd800 	push	{fp, ip, lr, pc}
41004f60:	e24cb004 	sub	fp, ip, #4
41004f64:	e24dd010 	sub	sp, sp, #16
41004f68:	e59f2050 	ldr	r2, [pc, #80]	; 41004fc0 <vk_enqueue+0x68>
41004f6c:	e08f2002 	add	r2, pc, r2
41004f70:	e50b0018 	str	r0, [fp, #-24]	; 0xffffffe8
41004f74:	e50b101c 	str	r1, [fp, #-28]	; 0xffffffe4
41004f78:	e59f3044 	ldr	r3, [pc, #68]	; 41004fc4 <vk_enqueue+0x6c>
41004f7c:	e7923003 	ldr	r3, [r2, r3]
41004f80:	e5933000 	ldr	r3, [r3]
41004f84:	e5933038 	ldr	r3, [r3, #56]	; 0x38
41004f88:	e50b3010 	str	r3, [fp, #-16]
41004f8c:	e51b3010 	ldr	r3, [fp, #-16]
41004f90:	e3530000 	cmp	r3, #0
41004f94:	1a000000 	bne	41004f9c <vk_enqueue+0x44>
41004f98:	ebfff1e3 	bl	4100172c <vk_disable_interrupt>
41004f9c:	e51b0018 	ldr	r0, [fp, #-24]	; 0xffffffe8
41004fa0:	e51b101c 	ldr	r1, [fp, #-28]	; 0xffffffe4
41004fa4:	eb000007 	bl	41004fc8 <vk_thread_enqueue>
41004fa8:	e51b3010 	ldr	r3, [fp, #-16]
41004fac:	e3530000 	cmp	r3, #0
41004fb0:	1a000000 	bne	41004fb8 <vk_enqueue+0x60>
41004fb4:	ebfff1c7 	bl	410016d8 <vk_enable_interrupt>
41004fb8:	e24bd00c 	sub	sp, fp, #12
41004fbc:	e89da800 	ldm	sp, {fp, sp, pc}
41004fc0:	0000610c 	.word	0x0000610c
41004fc4:	000000ac 	.word	0x000000ac

41004fc8 <vk_thread_enqueue>:
41004fc8:	e1a0c00d 	mov	ip, sp
41004fcc:	e92dd800 	push	{fp, ip, lr, pc}
41004fd0:	e24cb004 	sub	fp, ip, #4
41004fd4:	e24dd018 	sub	sp, sp, #24
41004fd8:	e50b0020 	str	r0, [fp, #-32]	; 0xffffffe0
41004fdc:	e50b1024 	str	r1, [fp, #-36]	; 0xffffffdc
41004fe0:	e51b3020 	ldr	r3, [fp, #-32]	; 0xffffffe0
41004fe4:	e50b3014 	str	r3, [fp, #-20]	; 0xffffffec
41004fe8:	e51b3024 	ldr	r3, [fp, #-36]	; 0xffffffdc
41004fec:	e50b3018 	str	r3, [fp, #-24]	; 0xffffffe8
41004ff0:	e51b3020 	ldr	r3, [fp, #-32]	; 0xffffffe0
41004ff4:	e5933008 	ldr	r3, [r3, #8]
41004ff8:	e50b3010 	str	r3, [fp, #-16]
41004ffc:	e51b3010 	ldr	r3, [fp, #-16]
41005000:	e1a02203 	lsl	r2, r3, #4
41005004:	e51b3018 	ldr	r3, [fp, #-24]	; 0xffffffe8
41005008:	e0833002 	add	r3, r3, r2
4100500c:	e5933008 	ldr	r3, [r3, #8]
41005010:	e3530000 	cmp	r3, #0
41005014:	0a00001d 	beq	41005090 <vk_thread_enqueue+0xc8>
41005018:	e51b3010 	ldr	r3, [fp, #-16]
4100501c:	e1a02203 	lsl	r2, r3, #4
41005020:	e51b3018 	ldr	r3, [fp, #-24]	; 0xffffffe8
41005024:	e0833002 	add	r3, r3, r2
41005028:	e593300c 	ldr	r3, [r3, #12]
4100502c:	e50b3014 	str	r3, [fp, #-20]	; 0xffffffec
41005030:	e51b3010 	ldr	r3, [fp, #-16]
41005034:	e1a02203 	lsl	r2, r3, #4
41005038:	e51b3018 	ldr	r3, [fp, #-24]	; 0xffffffe8
4100503c:	e0832002 	add	r2, r3, r2
41005040:	e51b3020 	ldr	r3, [fp, #-32]	; 0xffffffe0
41005044:	e582300c 	str	r3, [r2, #12]
41005048:	e51b3010 	ldr	r3, [fp, #-16]
4100504c:	e1a02203 	lsl	r2, r3, #4
41005050:	e51b3018 	ldr	r3, [fp, #-24]	; 0xffffffe8
41005054:	e0833002 	add	r3, r3, r2
41005058:	e593200c 	ldr	r2, [r3, #12]
4100505c:	e3a03000 	mov	r3, #0
41005060:	e582303c 	str	r3, [r2, #60]	; 0x3c
41005064:	e51b2014 	ldr	r2, [fp, #-20]	; 0xffffffec
41005068:	e51b3020 	ldr	r3, [fp, #-32]	; 0xffffffe0
4100506c:	e582303c 	str	r3, [r2, #60]	; 0x3c
41005070:	e51b3010 	ldr	r3, [fp, #-16]
41005074:	e1a02203 	lsl	r2, r3, #4
41005078:	e51b3018 	ldr	r3, [fp, #-24]	; 0xffffffe8
4100507c:	e0832002 	add	r2, r3, r2
41005080:	e5923004 	ldr	r3, [r2, #4]
41005084:	e2833001 	add	r3, r3, #1
41005088:	e5823004 	str	r3, [r2, #4]
4100508c:	ea000019 	b	410050f8 <vk_thread_enqueue+0x130>
41005090:	e51b3010 	ldr	r3, [fp, #-16]
41005094:	e1a02203 	lsl	r2, r3, #4
41005098:	e51b3018 	ldr	r3, [fp, #-24]	; 0xffffffe8
4100509c:	e0832002 	add	r2, r3, r2
410050a0:	e51b3020 	ldr	r3, [fp, #-32]	; 0xffffffe0
410050a4:	e5823008 	str	r3, [r2, #8]
410050a8:	e51b3010 	ldr	r3, [fp, #-16]
410050ac:	e1a02203 	lsl	r2, r3, #4
410050b0:	e51b3018 	ldr	r3, [fp, #-24]	; 0xffffffe8
410050b4:	e0832002 	add	r2, r3, r2
410050b8:	e51b3020 	ldr	r3, [fp, #-32]	; 0xffffffe0
410050bc:	e582300c 	str	r3, [r2, #12]
410050c0:	e51b3010 	ldr	r3, [fp, #-16]
410050c4:	e1a02203 	lsl	r2, r3, #4
410050c8:	e51b3018 	ldr	r3, [fp, #-24]	; 0xffffffe8
410050cc:	e0833002 	add	r3, r3, r2
410050d0:	e593200c 	ldr	r2, [r3, #12]
410050d4:	e3a03000 	mov	r3, #0
410050d8:	e582303c 	str	r3, [r2, #60]	; 0x3c
410050dc:	e51b3010 	ldr	r3, [fp, #-16]
410050e0:	e1a02203 	lsl	r2, r3, #4
410050e4:	e51b3018 	ldr	r3, [fp, #-24]	; 0xffffffe8
410050e8:	e0832002 	add	r2, r3, r2
410050ec:	e5923004 	ldr	r3, [r2, #4]
410050f0:	e2833001 	add	r3, r3, #1
410050f4:	e5823004 	str	r3, [r2, #4]
410050f8:	e24bd00c 	sub	sp, fp, #12
410050fc:	e89da800 	ldm	sp, {fp, sp, pc}

41005100 <vk_dequeue>:
41005100:	e1a0c00d 	mov	ip, sp
41005104:	e92dd800 	push	{fp, ip, lr, pc}
41005108:	e24cb004 	sub	fp, ip, #4
4100510c:	e24dd010 	sub	sp, sp, #16
41005110:	e59f2060 	ldr	r2, [pc, #96]	; 41005178 <vk_dequeue+0x78>
41005114:	e08f2002 	add	r2, pc, r2
41005118:	e50b0018 	str	r0, [fp, #-24]	; 0xffffffe8
4100511c:	e50b101c 	str	r1, [fp, #-28]	; 0xffffffe4
41005120:	e59f3054 	ldr	r3, [pc, #84]	; 4100517c <vk_dequeue+0x7c>
41005124:	e7923003 	ldr	r3, [r2, r3]
41005128:	e5933000 	ldr	r3, [r3]
4100512c:	e5933038 	ldr	r3, [r3, #56]	; 0x38
41005130:	e50b3014 	str	r3, [fp, #-20]	; 0xffffffec
41005134:	e51b3014 	ldr	r3, [fp, #-20]	; 0xffffffec
41005138:	e3530000 	cmp	r3, #0
4100513c:	1a000000 	bne	41005144 <vk_dequeue+0x44>
41005140:	ebfff179 	bl	4100172c <vk_disable_interrupt>
41005144:	e51b0018 	ldr	r0, [fp, #-24]	; 0xffffffe8
41005148:	e51b101c 	ldr	r1, [fp, #-28]	; 0xffffffe4
4100514c:	eb00000b 	bl	41005180 <vk_thread_dequeue>
41005150:	e1a03000 	mov	r3, r0
41005154:	e50b3010 	str	r3, [fp, #-16]
41005158:	e51b3014 	ldr	r3, [fp, #-20]	; 0xffffffec
4100515c:	e3530000 	cmp	r3, #0
41005160:	1a000000 	bne	41005168 <vk_dequeue+0x68>
41005164:	ebfff15b 	bl	410016d8 <vk_enable_interrupt>
41005168:	e51b3010 	ldr	r3, [fp, #-16]
4100516c:	e1a00003 	mov	r0, r3
41005170:	e24bd00c 	sub	sp, fp, #12
41005174:	e89da800 	ldm	sp, {fp, sp, pc}
41005178:	00005f64 	.word	0x00005f64
4100517c:	000000ac 	.word	0x000000ac

41005180 <vk_thread_dequeue>:
41005180:	e1a0c00d 	mov	ip, sp
41005184:	e92dd800 	push	{fp, ip, lr, pc}
41005188:	e24cb004 	sub	fp, ip, #4
4100518c:	e24dd030 	sub	sp, sp, #48	; 0x30
41005190:	e50b0030 	str	r0, [fp, #-48]	; 0xffffffd0
41005194:	e50b1034 	str	r1, [fp, #-52]	; 0xffffffcc
41005198:	e51b3030 	ldr	r3, [fp, #-48]	; 0xffffffd0
4100519c:	e5933008 	ldr	r3, [r3, #8]
410051a0:	e50b3010 	str	r3, [fp, #-16]
410051a4:	e51b3034 	ldr	r3, [fp, #-52]	; 0xffffffcc
410051a8:	e50b3014 	str	r3, [fp, #-20]	; 0xffffffec
410051ac:	e51b3010 	ldr	r3, [fp, #-16]
410051b0:	e1a02203 	lsl	r2, r3, #4
410051b4:	e51b3014 	ldr	r3, [fp, #-20]	; 0xffffffec
410051b8:	e0833002 	add	r3, r3, r2
410051bc:	e50b3018 	str	r3, [fp, #-24]	; 0xffffffe8
410051c0:	e51b3030 	ldr	r3, [fp, #-48]	; 0xffffffd0
410051c4:	e5933004 	ldr	r3, [r3, #4]
410051c8:	e50b3024 	str	r3, [fp, #-36]	; 0xffffffdc
410051cc:	e51b3018 	ldr	r3, [fp, #-24]	; 0xffffffe8
410051d0:	e5933008 	ldr	r3, [r3, #8]
410051d4:	e50b301c 	str	r3, [fp, #-28]	; 0xffffffe4
410051d8:	e51b301c 	ldr	r3, [fp, #-28]	; 0xffffffe4
410051dc:	e50b3020 	str	r3, [fp, #-32]	; 0xffffffe0
410051e0:	ea000004 	b	410051f8 <vk_thread_dequeue+0x78>
410051e4:	e51b3020 	ldr	r3, [fp, #-32]	; 0xffffffe0
410051e8:	e50b301c 	str	r3, [fp, #-28]	; 0xffffffe4
410051ec:	e51b3020 	ldr	r3, [fp, #-32]	; 0xffffffe0
410051f0:	e593303c 	ldr	r3, [r3, #60]	; 0x3c
410051f4:	e50b3020 	str	r3, [fp, #-32]	; 0xffffffe0
410051f8:	e51b3020 	ldr	r3, [fp, #-32]	; 0xffffffe0
410051fc:	e3530000 	cmp	r3, #0
41005200:	0a000004 	beq	41005218 <vk_thread_dequeue+0x98>
41005204:	e51b3020 	ldr	r3, [fp, #-32]	; 0xffffffe0
41005208:	e5932004 	ldr	r2, [r3, #4]
4100520c:	e51b3024 	ldr	r3, [fp, #-36]	; 0xffffffdc
41005210:	e1520003 	cmp	r2, r3
41005214:	1afffff2 	bne	410051e4 <vk_thread_dequeue+0x64>
41005218:	e51b3020 	ldr	r3, [fp, #-32]	; 0xffffffe0
4100521c:	e3530000 	cmp	r3, #0
41005220:	1a000002 	bne	41005230 <vk_thread_dequeue+0xb0>
41005224:	e3a03000 	mov	r3, #0
41005228:	e50b3038 	str	r3, [fp, #-56]	; 0xffffffc8
4100522c:	ea000043 	b	41005340 <vk_thread_dequeue+0x1c0>
41005230:	e51b3018 	ldr	r3, [fp, #-24]	; 0xffffffe8
41005234:	e5933004 	ldr	r3, [r3, #4]
41005238:	e2432001 	sub	r2, r3, #1
4100523c:	e51b3018 	ldr	r3, [fp, #-24]	; 0xffffffe8
41005240:	e5832004 	str	r2, [r3, #4]
41005244:	e51b3018 	ldr	r3, [fp, #-24]	; 0xffffffe8
41005248:	e5933004 	ldr	r3, [r3, #4]
4100524c:	e50b3028 	str	r3, [fp, #-40]	; 0xffffffd8
41005250:	e51b3018 	ldr	r3, [fp, #-24]	; 0xffffffe8
41005254:	e5932008 	ldr	r2, [r3, #8]
41005258:	e51b3020 	ldr	r3, [fp, #-32]	; 0xffffffe0
4100525c:	e1520003 	cmp	r2, r3
41005260:	1a000010 	bne	410052a8 <vk_thread_dequeue+0x128>
41005264:	e51b3020 	ldr	r3, [fp, #-32]	; 0xffffffe0
41005268:	e593203c 	ldr	r2, [r3, #60]	; 0x3c
4100526c:	e51b3018 	ldr	r3, [fp, #-24]	; 0xffffffe8
41005270:	e5832008 	str	r2, [r3, #8]
41005274:	e51b3028 	ldr	r3, [fp, #-40]	; 0xffffffd8
41005278:	e3530000 	cmp	r3, #0
4100527c:	1a00002d 	bne	41005338 <vk_thread_dequeue+0x1b8>
41005280:	e51b2018 	ldr	r2, [fp, #-24]	; 0xffffffe8
41005284:	e3a03000 	mov	r3, #0
41005288:	e5823008 	str	r3, [r2, #8]
4100528c:	e51b2018 	ldr	r2, [fp, #-24]	; 0xffffffe8
41005290:	e3a03000 	mov	r3, #0
41005294:	e582300c 	str	r3, [r2, #12]
41005298:	e51b2020 	ldr	r2, [fp, #-32]	; 0xffffffe0
4100529c:	e3a03000 	mov	r3, #0
410052a0:	e582303c 	str	r3, [r2, #60]	; 0x3c
410052a4:	ea000023 	b	41005338 <vk_thread_dequeue+0x1b8>
410052a8:	e51b3020 	ldr	r3, [fp, #-32]	; 0xffffffe0
410052ac:	e593303c 	ldr	r3, [r3, #60]	; 0x3c
410052b0:	e3530000 	cmp	r3, #0
410052b4:	1a00000f 	bne	410052f8 <vk_thread_dequeue+0x178>
410052b8:	e51b201c 	ldr	r2, [fp, #-28]	; 0xffffffe4
410052bc:	e3a03000 	mov	r3, #0
410052c0:	e582303c 	str	r3, [r2, #60]	; 0x3c
410052c4:	e51b2018 	ldr	r2, [fp, #-24]	; 0xffffffe8
410052c8:	e51b301c 	ldr	r3, [fp, #-28]	; 0xffffffe4
410052cc:	e582300c 	str	r3, [r2, #12]
410052d0:	e51b3028 	ldr	r3, [fp, #-40]	; 0xffffffd8
410052d4:	e3530000 	cmp	r3, #0
410052d8:	1a000016 	bne	41005338 <vk_thread_dequeue+0x1b8>
410052dc:	e51b2018 	ldr	r2, [fp, #-24]	; 0xffffffe8
410052e0:	e3a03000 	mov	r3, #0
410052e4:	e5823008 	str	r3, [r2, #8]
410052e8:	e51b2018 	ldr	r2, [fp, #-24]	; 0xffffffe8
410052ec:	e3a03000 	mov	r3, #0
410052f0:	e582300c 	str	r3, [r2, #12]
410052f4:	ea00000f 	b	41005338 <vk_thread_dequeue+0x1b8>
410052f8:	e51b3020 	ldr	r3, [fp, #-32]	; 0xffffffe0
410052fc:	e593203c 	ldr	r2, [r3, #60]	; 0x3c
41005300:	e51b301c 	ldr	r3, [fp, #-28]	; 0xffffffe4
41005304:	e583203c 	str	r2, [r3, #60]	; 0x3c
41005308:	e51b3028 	ldr	r3, [fp, #-40]	; 0xffffffd8
4100530c:	e3530000 	cmp	r3, #0
41005310:	1a000008 	bne	41005338 <vk_thread_dequeue+0x1b8>
41005314:	e51b2018 	ldr	r2, [fp, #-24]	; 0xffffffe8
41005318:	e3a03000 	mov	r3, #0
4100531c:	e5823008 	str	r3, [r2, #8]
41005320:	e51b2018 	ldr	r2, [fp, #-24]	; 0xffffffe8
41005324:	e3a03000 	mov	r3, #0
41005328:	e582300c 	str	r3, [r2, #12]
4100532c:	e51b2020 	ldr	r2, [fp, #-32]	; 0xffffffe0
41005330:	e3a03000 	mov	r3, #0
41005334:	e582303c 	str	r3, [r2, #60]	; 0x3c
41005338:	e51b3030 	ldr	r3, [fp, #-48]	; 0xffffffd0
4100533c:	e50b3038 	str	r3, [fp, #-56]	; 0xffffffc8
41005340:	e51b3038 	ldr	r3, [fp, #-56]	; 0xffffffc8
41005344:	e1a00003 	mov	r0, r3
41005348:	e24bd00c 	sub	sp, fp, #12
4100534c:	e89da800 	ldm	sp, {fp, sp, pc}

41005350 <vh_SecTime_interrupt_handler>:
41005350:	e1a0c00d 	mov	ip, sp
41005354:	e92dd800 	push	{fp, ip, lr, pc}
41005358:	e24cb004 	sub	fp, ip, #4
4100535c:	e24dd010 	sub	sp, sp, #16
41005360:	e59f0254 	ldr	r0, [pc, #596]	; 410055bc <vh_SecTime_interrupt_handler+0x26c>
41005364:	e50b001c 	str	r0, [fp, #-28]	; 0xffffffe4
41005368:	e51b101c 	ldr	r1, [fp, #-28]	; 0xffffffe4
4100536c:	e08f1001 	add	r1, pc, r1
41005370:	e50b101c 	str	r1, [fp, #-28]	; 0xffffffe4
41005374:	e3a0244a 	mov	r2, #1241513984	; 0x4a000000
41005378:	e3a03c01 	mov	r3, #256	; 0x100
4100537c:	e5823000 	str	r3, [r2]
41005380:	e59f2238 	ldr	r2, [pc, #568]	; 410055c0 <vh_SecTime_interrupt_handler+0x270>
41005384:	e3a03c01 	mov	r3, #256	; 0x100
41005388:	e5823000 	str	r3, [r2]
4100538c:	e59f322c 	ldr	r3, [pc, #556]	; 410055c0 <vh_SecTime_interrupt_handler+0x270>
41005390:	e5933000 	ldr	r3, [r3]
41005394:	e59f3228 	ldr	r3, [pc, #552]	; 410055c4 <vh_SecTime_interrupt_handler+0x274>
41005398:	e51b201c 	ldr	r2, [fp, #-28]	; 0xffffffe4
4100539c:	e7923003 	ldr	r3, [r2, r3]
410053a0:	e5933000 	ldr	r3, [r3]
410053a4:	e3530000 	cmp	r3, #0
410053a8:	0a00007f 	beq	410055ac <vh_SecTime_interrupt_handler+0x25c>
410053ac:	e3a03000 	mov	r3, #0
410053b0:	e50b3010 	str	r3, [fp, #-16]
410053b4:	ea000079 	b	410055a0 <vh_SecTime_interrupt_handler+0x250>
410053b8:	e51b2010 	ldr	r2, [fp, #-16]
410053bc:	e59f3204 	ldr	r3, [pc, #516]	; 410055c8 <vh_SecTime_interrupt_handler+0x278>
410053c0:	e51b001c 	ldr	r0, [fp, #-28]	; 0xffffffe4
410053c4:	e7901003 	ldr	r1, [r0, r3]
410053c8:	e3a00004 	mov	r0, #4
410053cc:	e1a03002 	mov	r3, r2
410053d0:	e1a02103 	lsl	r2, r3, #2
410053d4:	e1a03102 	lsl	r3, r2, #2
410053d8:	e0623003 	rsb	r3, r2, r3
410053dc:	e0813003 	add	r3, r1, r3
410053e0:	e0833000 	add	r3, r3, r0
410053e4:	e5933000 	ldr	r3, [r3]
410053e8:	e3530002 	cmp	r3, #2
410053ec:	1a000068 	bne	41005594 <vh_SecTime_interrupt_handler+0x244>
410053f0:	e51bc010 	ldr	ip, [fp, #-16]
410053f4:	e51b2010 	ldr	r2, [fp, #-16]
410053f8:	e59f31c8 	ldr	r3, [pc, #456]	; 410055c8 <vh_SecTime_interrupt_handler+0x278>
410053fc:	e51b001c 	ldr	r0, [fp, #-28]	; 0xffffffe4
41005400:	e7901003 	ldr	r1, [r0, r3]
41005404:	e1a03002 	mov	r3, r2
41005408:	e1a02103 	lsl	r2, r3, #2
4100540c:	e1a03102 	lsl	r3, r2, #2
41005410:	e0623003 	rsb	r3, r2, r3
41005414:	e0813003 	add	r3, r1, r3
41005418:	e5933000 	ldr	r3, [r3]
4100541c:	e2430001 	sub	r0, r3, #1
41005420:	e59f31a0 	ldr	r3, [pc, #416]	; 410055c8 <vh_SecTime_interrupt_handler+0x278>
41005424:	e51b201c 	ldr	r2, [fp, #-28]	; 0xffffffe4
41005428:	e7921003 	ldr	r1, [r2, r3]
4100542c:	e1a0300c 	mov	r3, ip
41005430:	e1a02103 	lsl	r2, r3, #2
41005434:	e1a03102 	lsl	r3, r2, #2
41005438:	e0623003 	rsb	r3, r2, r3
4100543c:	e0813003 	add	r3, r1, r3
41005440:	e5830000 	str	r0, [r3]
41005444:	e51b2010 	ldr	r2, [fp, #-16]
41005448:	e59f3178 	ldr	r3, [pc, #376]	; 410055c8 <vh_SecTime_interrupt_handler+0x278>
4100544c:	e51b001c 	ldr	r0, [fp, #-28]	; 0xffffffe4
41005450:	e7901003 	ldr	r1, [r0, r3]
41005454:	e1a03002 	mov	r3, r2
41005458:	e1a02103 	lsl	r2, r3, #2
4100545c:	e1a03102 	lsl	r3, r2, #2
41005460:	e0623003 	rsb	r3, r2, r3
41005464:	e0813003 	add	r3, r1, r3
41005468:	e5933000 	ldr	r3, [r3]
4100546c:	e3530000 	cmp	r3, #0
41005470:	1a000047 	bne	41005594 <vh_SecTime_interrupt_handler+0x244>
41005474:	e51b2010 	ldr	r2, [fp, #-16]
41005478:	e59f3148 	ldr	r3, [pc, #328]	; 410055c8 <vh_SecTime_interrupt_handler+0x278>
4100547c:	e51b001c 	ldr	r0, [fp, #-28]	; 0xffffffe4
41005480:	e7901003 	ldr	r1, [r0, r3]
41005484:	e3a00008 	mov	r0, #8
41005488:	e1a03002 	mov	r3, r2
4100548c:	e1a02103 	lsl	r2, r3, #2
41005490:	e1a03102 	lsl	r3, r2, #2
41005494:	e0623003 	rsb	r3, r2, r3
41005498:	e0813003 	add	r3, r1, r3
4100549c:	e0833000 	add	r3, r3, r0
410054a0:	e5932000 	ldr	r2, [r3]
410054a4:	e3a03001 	mov	r3, #1
410054a8:	e5823000 	str	r3, [r2]
410054ac:	e51b2010 	ldr	r2, [fp, #-16]
410054b0:	e59f3110 	ldr	r3, [pc, #272]	; 410055c8 <vh_SecTime_interrupt_handler+0x278>
410054b4:	e51b001c 	ldr	r0, [fp, #-28]	; 0xffffffe4
410054b8:	e7901003 	ldr	r1, [r0, r3]
410054bc:	e3a00008 	mov	r0, #8
410054c0:	e1a03002 	mov	r3, r2
410054c4:	e1a02103 	lsl	r2, r3, #2
410054c8:	e1a03102 	lsl	r3, r2, #2
410054cc:	e0623003 	rsb	r3, r2, r3
410054d0:	e0813003 	add	r3, r1, r3
410054d4:	e0833000 	add	r3, r3, r0
410054d8:	e5933000 	ldr	r3, [r3]
410054dc:	e1a00003 	mov	r0, r3
410054e0:	e59f30e4 	ldr	r3, [pc, #228]	; 410055cc <vh_SecTime_interrupt_handler+0x27c>
410054e4:	e51b101c 	ldr	r1, [fp, #-28]	; 0xffffffe4
410054e8:	e7913003 	ldr	r3, [r1, r3]
410054ec:	e1a01003 	mov	r1, r3
410054f0:	ebfffeb4 	bl	41004fc8 <vk_thread_enqueue>
410054f4:	e51b2010 	ldr	r2, [fp, #-16]
410054f8:	e59f30c8 	ldr	r3, [pc, #200]	; 410055c8 <vh_SecTime_interrupt_handler+0x278>
410054fc:	e51b001c 	ldr	r0, [fp, #-28]	; 0xffffffe4
41005500:	e7901003 	ldr	r1, [r0, r3]
41005504:	e3a00008 	mov	r0, #8
41005508:	e1a03002 	mov	r3, r2
4100550c:	e1a02103 	lsl	r2, r3, #2
41005510:	e1a03102 	lsl	r3, r2, #2
41005514:	e0623003 	rsb	r3, r2, r3
41005518:	e0813003 	add	r3, r1, r3
4100551c:	e0833000 	add	r3, r3, r0
41005520:	e5933000 	ldr	r3, [r3]
41005524:	e1a00003 	mov	r0, r3
41005528:	e59f30a0 	ldr	r3, [pc, #160]	; 410055d0 <vh_SecTime_interrupt_handler+0x280>
4100552c:	e51b101c 	ldr	r1, [fp, #-28]	; 0xffffffe4
41005530:	e7913003 	ldr	r3, [r1, r3]
41005534:	e1a01003 	mov	r1, r3
41005538:	ebffff10 	bl	41005180 <vk_thread_dequeue>
4100553c:	e51b2010 	ldr	r2, [fp, #-16]
41005540:	e59f3080 	ldr	r3, [pc, #128]	; 410055c8 <vh_SecTime_interrupt_handler+0x278>
41005544:	e51b001c 	ldr	r0, [fp, #-28]	; 0xffffffe4
41005548:	e7901003 	ldr	r1, [r0, r3]
4100554c:	e3a00004 	mov	r0, #4
41005550:	e1a03002 	mov	r3, r2
41005554:	e1a02103 	lsl	r2, r3, #2
41005558:	e1a03102 	lsl	r3, r2, #2
4100555c:	e0623003 	rsb	r3, r2, r3
41005560:	e0813003 	add	r3, r1, r3
41005564:	e0832000 	add	r2, r3, r0
41005568:	e3a03000 	mov	r3, #0
4100556c:	e5823000 	str	r3, [r2]
41005570:	e59f304c 	ldr	r3, [pc, #76]	; 410055c4 <vh_SecTime_interrupt_handler+0x274>
41005574:	e51b101c 	ldr	r1, [fp, #-28]	; 0xffffffe4
41005578:	e7913003 	ldr	r3, [r1, r3]
4100557c:	e5933000 	ldr	r3, [r3]
41005580:	e2432001 	sub	r2, r3, #1
41005584:	e59f3038 	ldr	r3, [pc, #56]	; 410055c4 <vh_SecTime_interrupt_handler+0x274>
41005588:	e51b001c 	ldr	r0, [fp, #-28]	; 0xffffffe4
4100558c:	e7903003 	ldr	r3, [r0, r3]
41005590:	e5832000 	str	r2, [r3]
41005594:	e51b3010 	ldr	r3, [fp, #-16]
41005598:	e2833001 	add	r3, r3, #1
4100559c:	e50b3010 	str	r3, [fp, #-16]
410055a0:	e51b3010 	ldr	r3, [fp, #-16]
410055a4:	e353001e 	cmp	r3, #30
410055a8:	daffff82 	ble	410053b8 <vh_SecTime_interrupt_handler+0x68>
410055ac:	e3a03000 	mov	r3, #0
410055b0:	e1a00003 	mov	r0, r3
410055b4:	e24bd00c 	sub	sp, fp, #12
410055b8:	e89da800 	ldm	sp, {fp, sp, pc}
410055bc:	00005d0c 	.word	0x00005d0c
410055c0:	4a000010 	.word	0x4a000010
410055c4:	00000034 	.word	0x00000034
410055c8:	00000004 	.word	0x00000004
410055cc:	0000007c 	.word	0x0000007c
410055d0:	000000b4 	.word	0x000000b4

410055d4 <vh_gettime>:
410055d4:	e1a0c00d 	mov	ip, sp
410055d8:	e92dd800 	push	{fp, ip, lr, pc}
410055dc:	e24cb004 	sub	fp, ip, #4
410055e0:	e24dd008 	sub	sp, sp, #8
410055e4:	e50b0010 	str	r0, [fp, #-16]
410055e8:	eb0001ff 	bl	41005dec <vk_scheduler_lock>
410055ec:	e59f30ac 	ldr	r3, [pc, #172]	; 410056a0 <vh_gettime+0xcc>
410055f0:	e5d33000 	ldrb	r3, [r3]
410055f4:	e20330ff 	and	r3, r3, #255	; 0xff
410055f8:	e2832a02 	add	r2, r3, #8192	; 0x2000
410055fc:	e51b3010 	ldr	r3, [fp, #-16]
41005600:	e5832000 	str	r2, [r3]
41005604:	e59f3098 	ldr	r3, [pc, #152]	; 410056a4 <vh_gettime+0xd0>
41005608:	e5d33000 	ldrb	r3, [r3]
4100560c:	e20330ff 	and	r3, r3, #255	; 0xff
41005610:	e1a02003 	mov	r2, r3
41005614:	e51b3010 	ldr	r3, [fp, #-16]
41005618:	e5832004 	str	r2, [r3, #4]
4100561c:	e59f3084 	ldr	r3, [pc, #132]	; 410056a8 <vh_gettime+0xd4>
41005620:	e5d33000 	ldrb	r3, [r3]
41005624:	e20330ff 	and	r3, r3, #255	; 0xff
41005628:	e1a02003 	mov	r2, r3
4100562c:	e51b3010 	ldr	r3, [fp, #-16]
41005630:	e583200c 	str	r2, [r3, #12]
41005634:	e59f3070 	ldr	r3, [pc, #112]	; 410056ac <vh_gettime+0xd8>
41005638:	e5d33000 	ldrb	r3, [r3]
4100563c:	e20330ff 	and	r3, r3, #255	; 0xff
41005640:	e1a02003 	mov	r2, r3
41005644:	e51b3010 	ldr	r3, [fp, #-16]
41005648:	e5832008 	str	r2, [r3, #8]
4100564c:	e59f305c 	ldr	r3, [pc, #92]	; 410056b0 <vh_gettime+0xdc>
41005650:	e5d33000 	ldrb	r3, [r3]
41005654:	e20330ff 	and	r3, r3, #255	; 0xff
41005658:	e1a02003 	mov	r2, r3
4100565c:	e51b3010 	ldr	r3, [fp, #-16]
41005660:	e5832010 	str	r2, [r3, #16]
41005664:	e59f3048 	ldr	r3, [pc, #72]	; 410056b4 <vh_gettime+0xe0>
41005668:	e5d33000 	ldrb	r3, [r3]
4100566c:	e20330ff 	and	r3, r3, #255	; 0xff
41005670:	e1a02003 	mov	r2, r3
41005674:	e51b3010 	ldr	r3, [fp, #-16]
41005678:	e5832014 	str	r2, [r3, #20]
4100567c:	e59f3034 	ldr	r3, [pc, #52]	; 410056b8 <vh_gettime+0xe4>
41005680:	e5d33000 	ldrb	r3, [r3]
41005684:	e20330ff 	and	r3, r3, #255	; 0xff
41005688:	e1a02003 	mov	r2, r3
4100568c:	e51b3010 	ldr	r3, [fp, #-16]
41005690:	e5832018 	str	r2, [r3, #24]
41005694:	eb0001ee 	bl	41005e54 <vk_scheduler_unlock>
41005698:	e24bd00c 	sub	sp, fp, #12
4100569c:	e89da800 	ldm	sp, {fp, sp, pc}
410056a0:	57000088 	.word	0x57000088
410056a4:	57000084 	.word	0x57000084
410056a8:	57000080 	.word	0x57000080
410056ac:	5700007c 	.word	0x5700007c
410056b0:	57000078 	.word	0x57000078
410056b4:	57000074 	.word	0x57000074
410056b8:	57000070 	.word	0x57000070

410056bc <vh_settime>:
410056bc:	e1a0c00d 	mov	ip, sp
410056c0:	e92dd800 	push	{fp, ip, lr, pc}
410056c4:	e24cb004 	sub	fp, ip, #4
410056c8:	e24dd008 	sub	sp, sp, #8
410056cc:	e50b0010 	str	r0, [fp, #-16]
410056d0:	eb0001c5 	bl	41005dec <vk_scheduler_lock>
410056d4:	e59f218c 	ldr	r2, [pc, #396]	; 41005868 <vh_settime+0x1ac>
410056d8:	e59f3188 	ldr	r3, [pc, #392]	; 41005868 <vh_settime+0x1ac>
410056dc:	e5d33000 	ldrb	r3, [r3]
410056e0:	e20330ff 	and	r3, r3, #255	; 0xff
410056e4:	e20330ff 	and	r3, r3, #255	; 0xff
410056e8:	e20330f0 	and	r3, r3, #240	; 0xf0
410056ec:	e3833001 	orr	r3, r3, #1
410056f0:	e20330ff 	and	r3, r3, #255	; 0xff
410056f4:	e20330ff 	and	r3, r3, #255	; 0xff
410056f8:	e5c23000 	strb	r3, [r2]
410056fc:	e59f3168 	ldr	r3, [pc, #360]	; 4100586c <vh_settime+0x1b0>
41005700:	e5d33000 	ldrb	r3, [r3]
41005704:	e59f2160 	ldr	r2, [pc, #352]	; 4100586c <vh_settime+0x1b0>
41005708:	e51b3010 	ldr	r3, [fp, #-16]
4100570c:	e5933000 	ldr	r3, [r3]
41005710:	e20330ff 	and	r3, r3, #255	; 0xff
41005714:	e5c23000 	strb	r3, [r2]
41005718:	e59f1150 	ldr	r1, [pc, #336]	; 41005870 <vh_settime+0x1b4>
4100571c:	e59f314c 	ldr	r3, [pc, #332]	; 41005870 <vh_settime+0x1b4>
41005720:	e5d33000 	ldrb	r3, [r3]
41005724:	e20330ff 	and	r3, r3, #255	; 0xff
41005728:	e20320ff 	and	r2, r3, #255	; 0xff
4100572c:	e20220e0 	and	r2, r2, #224	; 0xe0
41005730:	e51b3010 	ldr	r3, [fp, #-16]
41005734:	e5933004 	ldr	r3, [r3, #4]
41005738:	e20330ff 	and	r3, r3, #255	; 0xff
4100573c:	e1823003 	orr	r3, r2, r3
41005740:	e20330ff 	and	r3, r3, #255	; 0xff
41005744:	e20330ff 	and	r3, r3, #255	; 0xff
41005748:	e5c13000 	strb	r3, [r1]
4100574c:	e59f1120 	ldr	r1, [pc, #288]	; 41005874 <vh_settime+0x1b8>
41005750:	e59f311c 	ldr	r3, [pc, #284]	; 41005874 <vh_settime+0x1b8>
41005754:	e5d33000 	ldrb	r3, [r3]
41005758:	e20330ff 	and	r3, r3, #255	; 0xff
4100575c:	e20320ff 	and	r2, r3, #255	; 0xff
41005760:	e20220c0 	and	r2, r2, #192	; 0xc0
41005764:	e51b3010 	ldr	r3, [fp, #-16]
41005768:	e5933008 	ldr	r3, [r3, #8]
4100576c:	e20330ff 	and	r3, r3, #255	; 0xff
41005770:	e1823003 	orr	r3, r2, r3
41005774:	e20330ff 	and	r3, r3, #255	; 0xff
41005778:	e20330ff 	and	r3, r3, #255	; 0xff
4100577c:	e5c13000 	strb	r3, [r1]
41005780:	e59f10f0 	ldr	r1, [pc, #240]	; 41005878 <vh_settime+0x1bc>
41005784:	e59f30ec 	ldr	r3, [pc, #236]	; 41005878 <vh_settime+0x1bc>
41005788:	e5d33000 	ldrb	r3, [r3]
4100578c:	e20330ff 	and	r3, r3, #255	; 0xff
41005790:	e20320ff 	and	r2, r3, #255	; 0xff
41005794:	e20220f8 	and	r2, r2, #248	; 0xf8
41005798:	e51b3010 	ldr	r3, [fp, #-16]
4100579c:	e593300c 	ldr	r3, [r3, #12]
410057a0:	e20330ff 	and	r3, r3, #255	; 0xff
410057a4:	e1823003 	orr	r3, r2, r3
410057a8:	e20330ff 	and	r3, r3, #255	; 0xff
410057ac:	e20330ff 	and	r3, r3, #255	; 0xff
410057b0:	e5c13000 	strb	r3, [r1]
410057b4:	e59f10c0 	ldr	r1, [pc, #192]	; 4100587c <vh_settime+0x1c0>
410057b8:	e59f30bc 	ldr	r3, [pc, #188]	; 4100587c <vh_settime+0x1c0>
410057bc:	e5d33000 	ldrb	r3, [r3]
410057c0:	e20330ff 	and	r3, r3, #255	; 0xff
410057c4:	e20320ff 	and	r2, r3, #255	; 0xff
410057c8:	e20220c0 	and	r2, r2, #192	; 0xc0
410057cc:	e51b3010 	ldr	r3, [fp, #-16]
410057d0:	e5933010 	ldr	r3, [r3, #16]
410057d4:	e20330ff 	and	r3, r3, #255	; 0xff
410057d8:	e1823003 	orr	r3, r2, r3
410057dc:	e20330ff 	and	r3, r3, #255	; 0xff
410057e0:	e20330ff 	and	r3, r3, #255	; 0xff
410057e4:	e5c13000 	strb	r3, [r1]
410057e8:	e59f1090 	ldr	r1, [pc, #144]	; 41005880 <vh_settime+0x1c4>
410057ec:	e59f308c 	ldr	r3, [pc, #140]	; 41005880 <vh_settime+0x1c4>
410057f0:	e5d33000 	ldrb	r3, [r3]
410057f4:	e20330ff 	and	r3, r3, #255	; 0xff
410057f8:	e20320ff 	and	r2, r3, #255	; 0xff
410057fc:	e2022080 	and	r2, r2, #128	; 0x80
41005800:	e51b3010 	ldr	r3, [fp, #-16]
41005804:	e5933014 	ldr	r3, [r3, #20]
41005808:	e20330ff 	and	r3, r3, #255	; 0xff
4100580c:	e1823003 	orr	r3, r2, r3
41005810:	e20330ff 	and	r3, r3, #255	; 0xff
41005814:	e20330ff 	and	r3, r3, #255	; 0xff
41005818:	e5c13000 	strb	r3, [r1]
4100581c:	e59f1060 	ldr	r1, [pc, #96]	; 41005884 <vh_settime+0x1c8>
41005820:	e59f305c 	ldr	r3, [pc, #92]	; 41005884 <vh_settime+0x1c8>
41005824:	e5d33000 	ldrb	r3, [r3]
41005828:	e20330ff 	and	r3, r3, #255	; 0xff
4100582c:	e20320ff 	and	r2, r3, #255	; 0xff
41005830:	e2022080 	and	r2, r2, #128	; 0x80
41005834:	e51b3010 	ldr	r3, [fp, #-16]
41005838:	e5933018 	ldr	r3, [r3, #24]
4100583c:	e20330ff 	and	r3, r3, #255	; 0xff
41005840:	e1823003 	orr	r3, r2, r3
41005844:	e20330ff 	and	r3, r3, #255	; 0xff
41005848:	e20330ff 	and	r3, r3, #255	; 0xff
4100584c:	e5c13000 	strb	r3, [r1]
41005850:	e59f2010 	ldr	r2, [pc, #16]	; 41005868 <vh_settime+0x1ac>
41005854:	e3a03000 	mov	r3, #0
41005858:	e5c23000 	strb	r3, [r2]
4100585c:	eb00017c 	bl	41005e54 <vk_scheduler_unlock>
41005860:	e24bd00c 	sub	sp, fp, #12
41005864:	e89da800 	ldm	sp, {fp, sp, pc}
41005868:	57000040 	.word	0x57000040
4100586c:	57000088 	.word	0x57000088
41005870:	57000084 	.word	0x57000084
41005874:	5700007c 	.word	0x5700007c
41005878:	57000080 	.word	0x57000080
4100587c:	57000078 	.word	0x57000078
41005880:	57000074 	.word	0x57000074
41005884:	57000070 	.word	0x57000070

41005888 <vh_timeInit>:
41005888:	e1a0c00d 	mov	ip, sp
4100588c:	e92dd800 	push	{fp, ip, lr, pc}
41005890:	e24cb004 	sub	fp, ip, #4
41005894:	e24dd020 	sub	sp, sp, #32
41005898:	e59f3044 	ldr	r3, [pc, #68]	; 410058e4 <vh_timeInit+0x5c>
4100589c:	e50b3028 	str	r3, [fp, #-40]	; 0xffffffd8
410058a0:	e3a03001 	mov	r3, #1
410058a4:	e50b3024 	str	r3, [fp, #-36]	; 0xffffffdc
410058a8:	e3a03001 	mov	r3, #1
410058ac:	e50b3020 	str	r3, [fp, #-32]	; 0xffffffe0
410058b0:	e3a03002 	mov	r3, #2
410058b4:	e50b301c 	str	r3, [fp, #-28]	; 0xffffffe4
410058b8:	e3a03000 	mov	r3, #0
410058bc:	e50b3018 	str	r3, [fp, #-24]	; 0xffffffe8
410058c0:	e3a03000 	mov	r3, #0
410058c4:	e50b3014 	str	r3, [fp, #-20]	; 0xffffffec
410058c8:	e3a03000 	mov	r3, #0
410058cc:	e50b3010 	str	r3, [fp, #-16]
410058d0:	e24b3028 	sub	r3, fp, #40	; 0x28
410058d4:	e1a00003 	mov	r0, r3
410058d8:	ebffff77 	bl	410056bc <vh_settime>
410058dc:	e24bd00c 	sub	sp, fp, #12
410058e0:	e89da800 	ldm	sp, {fp, sp, pc}
410058e4:	00002006 	.word	0x00002006

410058e8 <vh_rtc_init>:
410058e8:	e1a0c00d 	mov	ip, sp
410058ec:	e92dd800 	push	{fp, ip, lr, pc}
410058f0:	e24cb004 	sub	fp, ip, #4
410058f4:	e24dd008 	sub	sp, sp, #8
410058f8:	e59f2058 	ldr	r2, [pc, #88]	; 41005958 <vh_rtc_init+0x70>
410058fc:	e08f2002 	add	r2, pc, r2
41005900:	e3a03008 	mov	r3, #8
41005904:	e50b3010 	str	r3, [fp, #-16]
41005908:	e3a00008 	mov	r0, #8
4100590c:	e59f3048 	ldr	r3, [pc, #72]	; 4100595c <vh_rtc_init+0x74>
41005910:	e0823003 	add	r3, r2, r3
41005914:	e1a01003 	mov	r1, r3
41005918:	e59f3040 	ldr	r3, [pc, #64]	; 41005960 <vh_rtc_init+0x78>
4100591c:	e7923003 	ldr	r3, [r2, r3]
41005920:	e1a02003 	mov	r2, r3
41005924:	e3a03008 	mov	r3, #8
41005928:	ebffed41 	bl	41000e34 <vu_register_dev>
4100592c:	e51b0010 	ldr	r0, [fp, #-16]
41005930:	ebffef23 	bl	410015c4 <vh_interrupt_unmask>
41005934:	e59f2028 	ldr	r2, [pc, #40]	; 41005964 <vh_rtc_init+0x7c>
41005938:	e3a03000 	mov	r3, #0
4100593c:	e5c23000 	strb	r3, [r2]
41005940:	e59f2020 	ldr	r2, [pc, #32]	; 41005968 <vh_rtc_init+0x80>
41005944:	e3e03000 	mvn	r3, #0
41005948:	e5c23000 	strb	r3, [r2]
4100594c:	ebffffcd 	bl	41005888 <vh_timeInit>
41005950:	e24bd00c 	sub	sp, fp, #12
41005954:	e89da800 	ldm	sp, {fp, sp, pc}
41005958:	0000577c 	.word	0x0000577c
4100595c:	fffff9d4 	.word	0xfffff9d4
41005960:	00000074 	.word	0x00000074
41005964:	57000040 	.word	0x57000040
41005968:	57000044 	.word	0x57000044

4100596c <init_thread_pointer>:
4100596c:	e1a0c00d 	mov	ip, sp
41005970:	e92dd800 	push	{fp, ip, lr, pc}
41005974:	e24cb004 	sub	fp, ip, #4
41005978:	e59f2024 	ldr	r2, [pc, #36]	; 410059a4 <init_thread_pointer+0x38>
4100597c:	e08f2002 	add	r2, pc, r2
41005980:	e59f3020 	ldr	r3, [pc, #32]	; 410059a8 <init_thread_pointer+0x3c>
41005984:	e7921003 	ldr	r1, [r2, r3]
41005988:	e3a03000 	mov	r3, #0
4100598c:	e5813000 	str	r3, [r1]
41005990:	e59f3014 	ldr	r3, [pc, #20]	; 410059ac <init_thread_pointer+0x40>
41005994:	e7922003 	ldr	r2, [r2, r3]
41005998:	e3a03000 	mov	r3, #0
4100599c:	e5823000 	str	r3, [r2]
410059a0:	e89da800 	ldm	sp, {fp, sp, pc}
410059a4:	000056fc 	.word	0x000056fc
410059a8:	000000ac 	.word	0x000000ac
410059ac:	000000c0 	.word	0x000000c0

410059b0 <vk_scheduler>:
410059b0:	e1a0c00d 	mov	ip, sp
410059b4:	e92dd800 	push	{fp, ip, lr, pc}
410059b8:	e24cb004 	sub	fp, ip, #4
410059bc:	e24dd010 	sub	sp, sp, #16
410059c0:	e59f0330 	ldr	r0, [pc, #816]	; 41005cf8 <vk_scheduler+0x348>
410059c4:	e50b0018 	str	r0, [fp, #-24]	; 0xffffffe8
410059c8:	e51b1018 	ldr	r1, [fp, #-24]	; 0xffffffe8
410059cc:	e08f1001 	add	r1, pc, r1
410059d0:	e50b1018 	str	r1, [fp, #-24]	; 0xffffffe8
410059d4:	eb000104 	bl	41005dec <vk_scheduler_lock>
410059d8:	eb000129 	bl	41005e84 <vk_thread_check>
410059dc:	e3a03000 	mov	r3, #0
410059e0:	e50b3014 	str	r3, [fp, #-20]	; 0xffffffec
410059e4:	e59f3310 	ldr	r3, [pc, #784]	; 41005cfc <vk_scheduler+0x34c>
410059e8:	e51b2018 	ldr	r2, [fp, #-24]	; 0xffffffe8
410059ec:	e7923003 	ldr	r3, [r2, r3]
410059f0:	e5933000 	ldr	r3, [r3]
410059f4:	e3530000 	cmp	r3, #0
410059f8:	1a000008 	bne	41005a20 <vk_scheduler+0x70>
410059fc:	e59f32fc 	ldr	r3, [pc, #764]	; 41005d00 <vk_scheduler+0x350>
41005a00:	e51b0018 	ldr	r0, [fp, #-24]	; 0xffffffe8
41005a04:	e7903003 	ldr	r3, [r0, r3]
41005a08:	e5933000 	ldr	r3, [r3]
41005a0c:	e1a02003 	mov	r2, r3
41005a10:	e59f32ec 	ldr	r3, [pc, #748]	; 41005d04 <vk_scheduler+0x354>
41005a14:	e51b1018 	ldr	r1, [fp, #-24]	; 0xffffffe8
41005a18:	e7913003 	ldr	r3, [r1, r3]
41005a1c:	e5832000 	str	r2, [r3]
41005a20:	e3a0301f 	mov	r3, #31
41005a24:	e50b3010 	str	r3, [fp, #-16]
41005a28:	e51b0010 	ldr	r0, [fp, #-16]
41005a2c:	e59f32d4 	ldr	r3, [pc, #724]	; 41005d08 <vk_scheduler+0x358>
41005a30:	e51b1018 	ldr	r1, [fp, #-24]	; 0xffffffe8
41005a34:	e7912003 	ldr	r2, [r1, r3]
41005a38:	e3a01004 	mov	r1, #4
41005a3c:	e1a03200 	lsl	r3, r0, #4
41005a40:	e0823003 	add	r3, r2, r3
41005a44:	e0833001 	add	r3, r3, r1
41005a48:	e5933000 	ldr	r3, [r3]
41005a4c:	e3530000 	cmp	r3, #0
41005a50:	0a000064 	beq	41005be8 <vk_scheduler+0x238>
41005a54:	e59f32b0 	ldr	r3, [pc, #688]	; 41005d0c <vk_scheduler+0x35c>
41005a58:	e51b2018 	ldr	r2, [fp, #-24]	; 0xffffffe8
41005a5c:	e7923003 	ldr	r3, [r2, r3]
41005a60:	e5933000 	ldr	r3, [r3]
41005a64:	e50b3014 	str	r3, [fp, #-20]	; 0xffffffec
41005a68:	e59f329c 	ldr	r3, [pc, #668]	; 41005d0c <vk_scheduler+0x35c>
41005a6c:	e51b0018 	ldr	r0, [fp, #-24]	; 0xffffffe8
41005a70:	e7903003 	ldr	r3, [r0, r3]
41005a74:	e5933000 	ldr	r3, [r3]
41005a78:	e5932008 	ldr	r2, [r3, #8]
41005a7c:	e51b3010 	ldr	r3, [fp, #-16]
41005a80:	e1520003 	cmp	r2, r3
41005a84:	0a000004 	beq	41005a9c <vk_scheduler+0xec>
41005a88:	e59f327c 	ldr	r3, [pc, #636]	; 41005d0c <vk_scheduler+0x35c>
41005a8c:	e51b1018 	ldr	r1, [fp, #-24]	; 0xffffffe8
41005a90:	e7912003 	ldr	r2, [r1, r3]
41005a94:	e3a03000 	mov	r3, #0
41005a98:	e5823000 	str	r3, [r2]
41005a9c:	e59f3268 	ldr	r3, [pc, #616]	; 41005d0c <vk_scheduler+0x35c>
41005aa0:	e51b2018 	ldr	r2, [fp, #-24]	; 0xffffffe8
41005aa4:	e7923003 	ldr	r3, [r2, r3]
41005aa8:	e5933000 	ldr	r3, [r3]
41005aac:	e3530000 	cmp	r3, #0
41005ab0:	1a000027 	bne	41005b54 <vk_scheduler+0x1a4>
41005ab4:	e51b2010 	ldr	r2, [fp, #-16]
41005ab8:	e59f3248 	ldr	r3, [pc, #584]	; 41005d08 <vk_scheduler+0x358>
41005abc:	e51b0018 	ldr	r0, [fp, #-24]	; 0xffffffe8
41005ac0:	e7901003 	ldr	r1, [r0, r3]
41005ac4:	e1a03082 	lsl	r3, r2, #1
41005ac8:	e2833001 	add	r3, r3, #1
41005acc:	e7912183 	ldr	r2, [r1, r3, lsl #3]
41005ad0:	e59f3234 	ldr	r3, [pc, #564]	; 41005d0c <vk_scheduler+0x35c>
41005ad4:	e51b1018 	ldr	r1, [fp, #-24]	; 0xffffffe8
41005ad8:	e7913003 	ldr	r3, [r1, r3]
41005adc:	e5832000 	str	r2, [r3]
41005ae0:	e59f3224 	ldr	r3, [pc, #548]	; 41005d0c <vk_scheduler+0x35c>
41005ae4:	e51b2018 	ldr	r2, [fp, #-24]	; 0xffffffe8
41005ae8:	e7923003 	ldr	r3, [r2, r3]
41005aec:	e5933000 	ldr	r3, [r3]
41005af0:	e593303c 	ldr	r3, [r3, #60]	; 0x3c
41005af4:	e3530000 	cmp	r3, #0
41005af8:	1a00000b 	bne	41005b2c <vk_scheduler+0x17c>
41005afc:	e51b2010 	ldr	r2, [fp, #-16]
41005b00:	e59f3200 	ldr	r3, [pc, #512]	; 41005d08 <vk_scheduler+0x358>
41005b04:	e51b0018 	ldr	r0, [fp, #-24]	; 0xffffffe8
41005b08:	e7901003 	ldr	r1, [r0, r3]
41005b0c:	e1a03082 	lsl	r3, r2, #1
41005b10:	e2833001 	add	r3, r3, #1
41005b14:	e7912183 	ldr	r2, [r1, r3, lsl #3]
41005b18:	e59f31f0 	ldr	r3, [pc, #496]	; 41005d10 <vk_scheduler+0x360>
41005b1c:	e51b1018 	ldr	r1, [fp, #-24]	; 0xffffffe8
41005b20:	e7913003 	ldr	r3, [r1, r3]
41005b24:	e5832000 	str	r2, [r3]
41005b28:	ea000032 	b	41005bf8 <vk_scheduler+0x248>
41005b2c:	e59f31d8 	ldr	r3, [pc, #472]	; 41005d0c <vk_scheduler+0x35c>
41005b30:	e51b2018 	ldr	r2, [fp, #-24]	; 0xffffffe8
41005b34:	e7923003 	ldr	r3, [r2, r3]
41005b38:	e5933000 	ldr	r3, [r3]
41005b3c:	e593203c 	ldr	r2, [r3, #60]	; 0x3c
41005b40:	e59f31c8 	ldr	r3, [pc, #456]	; 41005d10 <vk_scheduler+0x360>
41005b44:	e51b0018 	ldr	r0, [fp, #-24]	; 0xffffffe8
41005b48:	e7903003 	ldr	r3, [r0, r3]
41005b4c:	e5832000 	str	r2, [r3]
41005b50:	ea000028 	b	41005bf8 <vk_scheduler+0x248>
41005b54:	e59f31b4 	ldr	r3, [pc, #436]	; 41005d10 <vk_scheduler+0x360>
41005b58:	e51b1018 	ldr	r1, [fp, #-24]	; 0xffffffe8
41005b5c:	e7913003 	ldr	r3, [r1, r3]
41005b60:	e5932000 	ldr	r2, [r3]
41005b64:	e59f31a0 	ldr	r3, [pc, #416]	; 41005d0c <vk_scheduler+0x35c>
41005b68:	e51b0018 	ldr	r0, [fp, #-24]	; 0xffffffe8
41005b6c:	e7903003 	ldr	r3, [r0, r3]
41005b70:	e5832000 	str	r2, [r3]
41005b74:	e59f3190 	ldr	r3, [pc, #400]	; 41005d0c <vk_scheduler+0x35c>
41005b78:	e51b1018 	ldr	r1, [fp, #-24]	; 0xffffffe8
41005b7c:	e7913003 	ldr	r3, [r1, r3]
41005b80:	e5933000 	ldr	r3, [r3]
41005b84:	e593303c 	ldr	r3, [r3, #60]	; 0x3c
41005b88:	e3530000 	cmp	r3, #0
41005b8c:	1a00000b 	bne	41005bc0 <vk_scheduler+0x210>
41005b90:	e51b2010 	ldr	r2, [fp, #-16]
41005b94:	e59f316c 	ldr	r3, [pc, #364]	; 41005d08 <vk_scheduler+0x358>
41005b98:	e51b0018 	ldr	r0, [fp, #-24]	; 0xffffffe8
41005b9c:	e7901003 	ldr	r1, [r0, r3]
41005ba0:	e1a03082 	lsl	r3, r2, #1
41005ba4:	e2833001 	add	r3, r3, #1
41005ba8:	e7912183 	ldr	r2, [r1, r3, lsl #3]
41005bac:	e59f315c 	ldr	r3, [pc, #348]	; 41005d10 <vk_scheduler+0x360>
41005bb0:	e51b1018 	ldr	r1, [fp, #-24]	; 0xffffffe8
41005bb4:	e7913003 	ldr	r3, [r1, r3]
41005bb8:	e5832000 	str	r2, [r3]
41005bbc:	ea00000d 	b	41005bf8 <vk_scheduler+0x248>
41005bc0:	e59f3144 	ldr	r3, [pc, #324]	; 41005d0c <vk_scheduler+0x35c>
41005bc4:	e51b2018 	ldr	r2, [fp, #-24]	; 0xffffffe8
41005bc8:	e7923003 	ldr	r3, [r2, r3]
41005bcc:	e5933000 	ldr	r3, [r3]
41005bd0:	e593203c 	ldr	r2, [r3, #60]	; 0x3c
41005bd4:	e59f3134 	ldr	r3, [pc, #308]	; 41005d10 <vk_scheduler+0x360>
41005bd8:	e51b0018 	ldr	r0, [fp, #-24]	; 0xffffffe8
41005bdc:	e7903003 	ldr	r3, [r0, r3]
41005be0:	e5832000 	str	r2, [r3]
41005be4:	ea000003 	b	41005bf8 <vk_scheduler+0x248>
41005be8:	e51b3010 	ldr	r3, [fp, #-16]
41005bec:	e2433001 	sub	r3, r3, #1
41005bf0:	e50b3010 	str	r3, [fp, #-16]
41005bf4:	eaffff8b 	b	41005a28 <vk_scheduler+0x78>
41005bf8:	e51b3014 	ldr	r3, [fp, #-20]	; 0xffffffec
41005bfc:	e3530000 	cmp	r3, #0
41005c00:	1a00001a 	bne	41005c70 <vk_scheduler+0x2c0>
41005c04:	e59f3100 	ldr	r3, [pc, #256]	; 41005d0c <vk_scheduler+0x35c>
41005c08:	e51b1018 	ldr	r1, [fp, #-24]	; 0xffffffe8
41005c0c:	e7913003 	ldr	r3, [r1, r3]
41005c10:	e5932000 	ldr	r2, [r3]
41005c14:	e3a03000 	mov	r3, #0
41005c18:	e5823000 	str	r3, [r2]
41005c1c:	eb00008c 	bl	41005e54 <vk_scheduler_unlock>
41005c20:	eb000f08 	bl	41009848 <vk_timer_irq_enable>
41005c24:	e59f30d0 	ldr	r3, [pc, #208]	; 41005cfc <vk_scheduler+0x34c>
41005c28:	e51b2018 	ldr	r2, [fp, #-24]	; 0xffffffe8
41005c2c:	e7923003 	ldr	r3, [r2, r3]
41005c30:	e5933000 	ldr	r3, [r3]
41005c34:	e3530001 	cmp	r3, #1
41005c38:	1a000004 	bne	41005c50 <vk_scheduler+0x2a0>
41005c3c:	e59f30b8 	ldr	r3, [pc, #184]	; 41005cfc <vk_scheduler+0x34c>
41005c40:	e51b0018 	ldr	r0, [fp, #-24]	; 0xffffffe8
41005c44:	e7902003 	ldr	r2, [r0, r3]
41005c48:	e3a03000 	mov	r3, #0
41005c4c:	e5823000 	str	r3, [r2]
41005c50:	e59f30b4 	ldr	r3, [pc, #180]	; 41005d0c <vk_scheduler+0x35c>
41005c54:	e51b1018 	ldr	r1, [fp, #-24]	; 0xffffffe8
41005c58:	e7913003 	ldr	r3, [r1, r3]
41005c5c:	e5933000 	ldr	r3, [r3]
41005c60:	e5933020 	ldr	r3, [r3, #32]
41005c64:	e1a00003 	mov	r0, r3
41005c68:	ebffe959 	bl	410001d4 <vh_restore_thread_ctx>
41005c6c:	ea00000d 	b	41005ca8 <vk_scheduler+0x2f8>
41005c70:	e59f3094 	ldr	r3, [pc, #148]	; 41005d0c <vk_scheduler+0x35c>
41005c74:	e51b2018 	ldr	r2, [fp, #-24]	; 0xffffffe8
41005c78:	e7923003 	ldr	r3, [r2, r3]
41005c7c:	e5932000 	ldr	r2, [r3]
41005c80:	e51b3014 	ldr	r3, [fp, #-20]	; 0xffffffec
41005c84:	e1530002 	cmp	r3, r2
41005c88:	0a000006 	beq	41005ca8 <vk_scheduler+0x2f8>
41005c8c:	e59f3078 	ldr	r3, [pc, #120]	; 41005d0c <vk_scheduler+0x35c>
41005c90:	e51b0018 	ldr	r0, [fp, #-24]	; 0xffffffe8
41005c94:	e7903003 	ldr	r3, [r0, r3]
41005c98:	e5933000 	ldr	r3, [r3]
41005c9c:	e51b0014 	ldr	r0, [fp, #-20]	; 0xffffffec
41005ca0:	e1a01003 	mov	r1, r3
41005ca4:	eb00001b 	bl	41005d18 <vk_thread_switch_ctx>
41005ca8:	eb000069 	bl	41005e54 <vk_scheduler_unlock>
41005cac:	e59f3048 	ldr	r3, [pc, #72]	; 41005cfc <vk_scheduler+0x34c>
41005cb0:	e51b1018 	ldr	r1, [fp, #-24]	; 0xffffffe8
41005cb4:	e7913003 	ldr	r3, [r1, r3]
41005cb8:	e5933000 	ldr	r3, [r3]
41005cbc:	e3530001 	cmp	r3, #1
41005cc0:	1a000009 	bne	41005cec <vk_scheduler+0x33c>
41005cc4:	e59f3030 	ldr	r3, [pc, #48]	; 41005cfc <vk_scheduler+0x34c>
41005cc8:	e51b0018 	ldr	r0, [fp, #-24]	; 0xffffffe8
41005ccc:	e7902003 	ldr	r2, [r0, r3]
41005cd0:	e3a03000 	mov	r3, #0
41005cd4:	e5823000 	str	r3, [r2]
41005cd8:	e59f3034 	ldr	r3, [pc, #52]	; 41005d14 <vk_scheduler+0x364>
41005cdc:	e51b1018 	ldr	r1, [fp, #-24]	; 0xffffffe8
41005ce0:	e7913003 	ldr	r3, [r1, r3]
41005ce4:	e1a00003 	mov	r0, r3
41005ce8:	ebffe943 	bl	410001fc <vh_change_ctx>
41005cec:	eb000ed5 	bl	41009848 <vk_timer_irq_enable>
41005cf0:	e24bd00c 	sub	sp, fp, #12
41005cf4:	e89da800 	ldm	sp, {fp, sp, pc}
41005cf8:	000056ac 	.word	0x000056ac
41005cfc:	00000084 	.word	0x00000084
41005d00:	000000cc 	.word	0x000000cc
41005d04:	00000018 	.word	0x00000018
41005d08:	0000007c 	.word	0x0000007c
41005d0c:	000000ac 	.word	0x000000ac
41005d10:	000000c0 	.word	0x000000c0
41005d14:	0000009c 	.word	0x0000009c

41005d18 <vk_thread_switch_ctx>:
41005d18:	e1a0c00d 	mov	ip, sp
41005d1c:	e92dd800 	push	{fp, ip, lr, pc}
41005d20:	e24cb004 	sub	fp, ip, #4
41005d24:	e24dd018 	sub	sp, sp, #24
41005d28:	e59f20a0 	ldr	r2, [pc, #160]	; 41005dd0 <vk_thread_switch_ctx+0xb8>
41005d2c:	e50b2020 	str	r2, [fp, #-32]	; 0xffffffe0
41005d30:	e51b3020 	ldr	r3, [fp, #-32]	; 0xffffffe0
41005d34:	e08f3003 	add	r3, pc, r3
41005d38:	e50b3020 	str	r3, [fp, #-32]	; 0xffffffe0
41005d3c:	e50b0018 	str	r0, [fp, #-24]	; 0xffffffe8
41005d40:	e50b101c 	str	r1, [fp, #-28]	; 0xffffffe4
41005d44:	e51b3018 	ldr	r3, [fp, #-24]	; 0xffffffe8
41005d48:	e5933000 	ldr	r3, [r3]
41005d4c:	e3530000 	cmp	r3, #0
41005d50:	1a000002 	bne	41005d60 <vk_thread_switch_ctx+0x48>
41005d54:	e51b2018 	ldr	r2, [fp, #-24]	; 0xffffffe8
41005d58:	e3a03001 	mov	r3, #1
41005d5c:	e5823000 	str	r3, [r2]
41005d60:	e51b3018 	ldr	r3, [fp, #-24]	; 0xffffffe8
41005d64:	e5933020 	ldr	r3, [r3, #32]
41005d68:	e50b3014 	str	r3, [fp, #-20]	; 0xffffffec
41005d6c:	e51b0014 	ldr	r0, [fp, #-20]	; 0xffffffec
41005d70:	ebffe924 	bl	41000208 <vh_save_thread_ctx>
41005d74:	e51b201c 	ldr	r2, [fp, #-28]	; 0xffffffe4
41005d78:	e3a03000 	mov	r3, #0
41005d7c:	e5823000 	str	r3, [r2]
41005d80:	e51b301c 	ldr	r3, [fp, #-28]	; 0xffffffe4
41005d84:	e5933020 	ldr	r3, [r3, #32]
41005d88:	e50b3010 	str	r3, [fp, #-16]
41005d8c:	eb000030 	bl	41005e54 <vk_scheduler_unlock>
41005d90:	eb000eac 	bl	41009848 <vk_timer_irq_enable>
41005d94:	e59f3038 	ldr	r3, [pc, #56]	; 41005dd4 <vk_thread_switch_ctx+0xbc>
41005d98:	e51b1020 	ldr	r1, [fp, #-32]	; 0xffffffe0
41005d9c:	e7913003 	ldr	r3, [r1, r3]
41005da0:	e5933000 	ldr	r3, [r3]
41005da4:	e3530001 	cmp	r3, #1
41005da8:	1a000004 	bne	41005dc0 <vk_thread_switch_ctx+0xa8>
41005dac:	e59f3020 	ldr	r3, [pc, #32]	; 41005dd4 <vk_thread_switch_ctx+0xbc>
41005db0:	e51b1020 	ldr	r1, [fp, #-32]	; 0xffffffe0
41005db4:	e7912003 	ldr	r2, [r1, r3]
41005db8:	e3a03000 	mov	r3, #0
41005dbc:	e5823000 	str	r3, [r2]
41005dc0:	e51b0010 	ldr	r0, [fp, #-16]
41005dc4:	ebffe902 	bl	410001d4 <vh_restore_thread_ctx>
41005dc8:	e24bd00c 	sub	sp, fp, #12
41005dcc:	e89da800 	ldm	sp, {fp, sp, pc}
41005dd0:	00005344 	.word	0x00005344
41005dd4:	00000084 	.word	0x00000084

41005dd8 <VPOS_start>:
41005dd8:	e1a0c00d 	mov	ip, sp
41005ddc:	e92dd800 	push	{fp, ip, lr, pc}
41005de0:	e24cb004 	sub	fp, ip, #4
41005de4:	ebffee65 	bl	41001780 <vk_swi_scheduler>
41005de8:	e89da800 	ldm	sp, {fp, sp, pc}

41005dec <vk_scheduler_lock>:
41005dec:	e1a0c00d 	mov	ip, sp
41005df0:	e92dd800 	push	{fp, ip, lr, pc}
41005df4:	e24cb004 	sub	fp, ip, #4
41005df8:	e59f2048 	ldr	r2, [pc, #72]	; 41005e48 <vk_scheduler_lock+0x5c>
41005dfc:	e08f2002 	add	r2, pc, r2
41005e00:	e59f3044 	ldr	r3, [pc, #68]	; 41005e4c <vk_scheduler_lock+0x60>
41005e04:	e7923003 	ldr	r3, [r2, r3]
41005e08:	e5931000 	ldr	r1, [r3]
41005e0c:	e591302c 	ldr	r3, [r1, #44]	; 0x2c
41005e10:	e2833001 	add	r3, r3, #1
41005e14:	e581302c 	str	r3, [r1, #44]	; 0x2c
41005e18:	e59f302c 	ldr	r3, [pc, #44]	; 41005e4c <vk_scheduler_lock+0x60>
41005e1c:	e7923003 	ldr	r3, [r2, r3]
41005e20:	e5931000 	ldr	r1, [r3]
41005e24:	e59f3024 	ldr	r3, [pc, #36]	; 41005e50 <vk_scheduler_lock+0x64>
41005e28:	e7923003 	ldr	r3, [r2, r3]
41005e2c:	e5933000 	ldr	r3, [r3]
41005e30:	e5813010 	str	r3, [r1, #16]
41005e34:	e59f3014 	ldr	r3, [pc, #20]	; 41005e50 <vk_scheduler_lock+0x64>
41005e38:	e7922003 	ldr	r2, [r2, r3]
41005e3c:	e3a03001 	mov	r3, #1
41005e40:	e5823000 	str	r3, [r2]
41005e44:	e89da800 	ldm	sp, {fp, sp, pc}
41005e48:	0000527c 	.word	0x0000527c
41005e4c:	000000ac 	.word	0x000000ac
41005e50:	00000040 	.word	0x00000040

41005e54 <vk_scheduler_unlock>:
41005e54:	e1a0c00d 	mov	ip, sp
41005e58:	e92dd800 	push	{fp, ip, lr, pc}
41005e5c:	e24cb004 	sub	fp, ip, #4
41005e60:	e59f3014 	ldr	r3, [pc, #20]	; 41005e7c <vk_scheduler_unlock+0x28>
41005e64:	e08f3003 	add	r3, pc, r3
41005e68:	e59f2010 	ldr	r2, [pc, #16]	; 41005e80 <vk_scheduler_unlock+0x2c>
41005e6c:	e7932002 	ldr	r2, [r3, r2]
41005e70:	e3a03000 	mov	r3, #0
41005e74:	e5823000 	str	r3, [r2]
41005e78:	e89da800 	ldm	sp, {fp, sp, pc}
41005e7c:	00005214 	.word	0x00005214
41005e80:	00000040 	.word	0x00000040

41005e84 <vk_thread_check>:
41005e84:	e1a0c00d 	mov	ip, sp
41005e88:	e92dd800 	push	{fp, ip, lr, pc}
41005e8c:	e24cb004 	sub	fp, ip, #4
41005e90:	e24dd018 	sub	sp, sp, #24
41005e94:	e59f02ac 	ldr	r0, [pc, #684]	; 41006148 <vk_thread_check+0x2c4>
41005e98:	e50b0020 	str	r0, [fp, #-32]	; 0xffffffe0
41005e9c:	e51b1020 	ldr	r1, [fp, #-32]	; 0xffffffe0
41005ea0:	e08f1001 	add	r1, pc, r1
41005ea4:	e50b1020 	str	r1, [fp, #-32]	; 0xffffffe0
41005ea8:	e59f329c 	ldr	r3, [pc, #668]	; 4100614c <vk_thread_check+0x2c8>
41005eac:	e51b2020 	ldr	r2, [fp, #-32]	; 0xffffffe0
41005eb0:	e7923003 	ldr	r3, [r2, r3]
41005eb4:	e5933000 	ldr	r3, [r3]
41005eb8:	e3530000 	cmp	r3, #0
41005ebc:	0a000093 	beq	41006110 <vk_thread_check+0x28c>
41005ec0:	e59f3284 	ldr	r3, [pc, #644]	; 4100614c <vk_thread_check+0x2c8>
41005ec4:	e51b0020 	ldr	r0, [fp, #-32]	; 0xffffffe0
41005ec8:	e7903003 	ldr	r3, [r0, r3]
41005ecc:	e5933000 	ldr	r3, [r3]
41005ed0:	e5933000 	ldr	r3, [r3]
41005ed4:	e3530003 	cmp	r3, #3
41005ed8:	1a00008c 	bne	41006110 <vk_thread_check+0x28c>
41005edc:	e3a03000 	mov	r3, #0
41005ee0:	e50b3018 	str	r3, [fp, #-24]	; 0xffffffe8
41005ee4:	ea000069 	b	41006090 <vk_thread_check+0x20c>
41005ee8:	e51b2018 	ldr	r2, [fp, #-24]	; 0xffffffe8
41005eec:	e59f325c 	ldr	r3, [pc, #604]	; 41006150 <vk_thread_check+0x2cc>
41005ef0:	e51b0020 	ldr	r0, [fp, #-32]	; 0xffffffe0
41005ef4:	e7901003 	ldr	r1, [r0, r3]
41005ef8:	e1a03002 	mov	r3, r2
41005efc:	e1a02103 	lsl	r2, r3, #2
41005f00:	e1a03102 	lsl	r3, r2, #2
41005f04:	e0623003 	rsb	r3, r2, r3
41005f08:	e0813003 	add	r3, r1, r3
41005f0c:	e5933000 	ldr	r3, [r3]
41005f10:	e3530001 	cmp	r3, #1
41005f14:	1a00005a 	bne	41006084 <vk_thread_check+0x200>
41005f18:	e51b2018 	ldr	r2, [fp, #-24]	; 0xffffffe8
41005f1c:	e59f322c 	ldr	r3, [pc, #556]	; 41006150 <vk_thread_check+0x2cc>
41005f20:	e51b0020 	ldr	r0, [fp, #-32]	; 0xffffffe0
41005f24:	e7901003 	ldr	r1, [r0, r3]
41005f28:	e3a00004 	mov	r0, #4
41005f2c:	e1a03002 	mov	r3, r2
41005f30:	e1a02103 	lsl	r2, r3, #2
41005f34:	e1a03102 	lsl	r3, r2, #2
41005f38:	e0623003 	rsb	r3, r2, r3
41005f3c:	e0813003 	add	r3, r1, r3
41005f40:	e0833000 	add	r3, r3, r0
41005f44:	e5932000 	ldr	r2, [r3]
41005f48:	e59f31fc 	ldr	r3, [pc, #508]	; 4100614c <vk_thread_check+0x2c8>
41005f4c:	e51b1020 	ldr	r1, [fp, #-32]	; 0xffffffe0
41005f50:	e7913003 	ldr	r3, [r1, r3]
41005f54:	e5933000 	ldr	r3, [r3]
41005f58:	e1520003 	cmp	r2, r3
41005f5c:	1a000048 	bne	41006084 <vk_thread_check+0x200>
41005f60:	e51b2018 	ldr	r2, [fp, #-24]	; 0xffffffe8
41005f64:	e59f31e4 	ldr	r3, [pc, #484]	; 41006150 <vk_thread_check+0x2cc>
41005f68:	e51b0020 	ldr	r0, [fp, #-32]	; 0xffffffe0
41005f6c:	e7901003 	ldr	r1, [r0, r3]
41005f70:	e3a00008 	mov	r0, #8
41005f74:	e1a03002 	mov	r3, r2
41005f78:	e1a02103 	lsl	r2, r3, #2
41005f7c:	e1a03102 	lsl	r3, r2, #2
41005f80:	e0623003 	rsb	r3, r2, r3
41005f84:	e0813003 	add	r3, r1, r3
41005f88:	e0833000 	add	r3, r3, r0
41005f8c:	e5933000 	ldr	r3, [r3]
41005f90:	e50b3010 	str	r3, [fp, #-16]
41005f94:	e51b2018 	ldr	r2, [fp, #-24]	; 0xffffffe8
41005f98:	e59f31b0 	ldr	r3, [pc, #432]	; 41006150 <vk_thread_check+0x2cc>
41005f9c:	e51b0020 	ldr	r0, [fp, #-32]	; 0xffffffe0
41005fa0:	e7901003 	ldr	r1, [r0, r3]
41005fa4:	e1a03002 	mov	r3, r2
41005fa8:	e1a02103 	lsl	r2, r3, #2
41005fac:	e1a03102 	lsl	r3, r2, #2
41005fb0:	e0623003 	rsb	r3, r2, r3
41005fb4:	e0812003 	add	r2, r1, r3
41005fb8:	e3a03000 	mov	r3, #0
41005fbc:	e5823000 	str	r3, [r2]
41005fc0:	e51b3018 	ldr	r3, [fp, #-24]	; 0xffffffe8
41005fc4:	e2833001 	add	r3, r3, #1
41005fc8:	e50b3014 	str	r3, [fp, #-20]	; 0xffffffec
41005fcc:	ea00001d 	b	41006048 <vk_thread_check+0x1c4>
41005fd0:	e51b2014 	ldr	r2, [fp, #-20]	; 0xffffffec
41005fd4:	e59f3174 	ldr	r3, [pc, #372]	; 41006150 <vk_thread_check+0x2cc>
41005fd8:	e51b0020 	ldr	r0, [fp, #-32]	; 0xffffffe0
41005fdc:	e7901003 	ldr	r1, [r0, r3]
41005fe0:	e1a03002 	mov	r3, r2
41005fe4:	e1a02103 	lsl	r2, r3, #2
41005fe8:	e1a03102 	lsl	r3, r2, #2
41005fec:	e0623003 	rsb	r3, r2, r3
41005ff0:	e0813003 	add	r3, r1, r3
41005ff4:	e5933000 	ldr	r3, [r3]
41005ff8:	e3530001 	cmp	r3, #1
41005ffc:	1a00000e 	bne	4100603c <vk_thread_check+0x1b8>
41006000:	e51b2014 	ldr	r2, [fp, #-20]	; 0xffffffec
41006004:	e59f3144 	ldr	r3, [pc, #324]	; 41006150 <vk_thread_check+0x2cc>
41006008:	e51b0020 	ldr	r0, [fp, #-32]	; 0xffffffe0
4100600c:	e7901003 	ldr	r1, [r0, r3]
41006010:	e3a00008 	mov	r0, #8
41006014:	e1a03002 	mov	r3, r2
41006018:	e1a02103 	lsl	r2, r3, #2
4100601c:	e1a03102 	lsl	r3, r2, #2
41006020:	e0623003 	rsb	r3, r2, r3
41006024:	e0813003 	add	r3, r1, r3
41006028:	e0833000 	add	r3, r3, r0
4100602c:	e5932000 	ldr	r2, [r3]
41006030:	e51b3010 	ldr	r3, [fp, #-16]
41006034:	e1520003 	cmp	r2, r3
41006038:	0a000005 	beq	41006054 <vk_thread_check+0x1d0>
4100603c:	e51b3014 	ldr	r3, [fp, #-20]	; 0xffffffec
41006040:	e2833001 	add	r3, r3, #1
41006044:	e50b3014 	str	r3, [fp, #-20]	; 0xffffffec
41006048:	e51b3014 	ldr	r3, [fp, #-20]	; 0xffffffec
4100604c:	e3530009 	cmp	r3, #9
41006050:	9affffde 	bls	41005fd0 <vk_thread_check+0x14c>
41006054:	e51b3014 	ldr	r3, [fp, #-20]	; 0xffffffec
41006058:	e353000a 	cmp	r3, #10
4100605c:	1a000008 	bne	41006084 <vk_thread_check+0x200>
41006060:	e51b2010 	ldr	r2, [fp, #-16]
41006064:	e3a03001 	mov	r3, #1
41006068:	e5823000 	str	r3, [r2]
4100606c:	e51b0010 	ldr	r0, [fp, #-16]
41006070:	e59f30dc 	ldr	r3, [pc, #220]	; 41006154 <vk_thread_check+0x2d0>
41006074:	e51b1020 	ldr	r1, [fp, #-32]	; 0xffffffe0
41006078:	e7913003 	ldr	r3, [r1, r3]
4100607c:	e1a01003 	mov	r1, r3
41006080:	ebfffbd0 	bl	41004fc8 <vk_thread_enqueue>
41006084:	e51b3018 	ldr	r3, [fp, #-24]	; 0xffffffe8
41006088:	e2833001 	add	r3, r3, #1
4100608c:	e50b3018 	str	r3, [fp, #-24]	; 0xffffffe8
41006090:	e51b3018 	ldr	r3, [fp, #-24]	; 0xffffffe8
41006094:	e3530009 	cmp	r3, #9
41006098:	9affff92 	bls	41005ee8 <vk_thread_check+0x64>
4100609c:	e59f30a8 	ldr	r3, [pc, #168]	; 4100614c <vk_thread_check+0x2c8>
410060a0:	e51b2020 	ldr	r2, [fp, #-32]	; 0xffffffe0
410060a4:	e7923003 	ldr	r3, [r2, r3]
410060a8:	e5933000 	ldr	r3, [r3]
410060ac:	e1a00003 	mov	r0, r3
410060b0:	e59f309c 	ldr	r3, [pc, #156]	; 41006154 <vk_thread_check+0x2d0>
410060b4:	e51b1020 	ldr	r1, [fp, #-32]	; 0xffffffe0
410060b8:	e7913003 	ldr	r3, [r1, r3]
410060bc:	e1a01003 	mov	r1, r3
410060c0:	ebfffc2e 	bl	41005180 <vk_thread_dequeue>
410060c4:	e59f3080 	ldr	r3, [pc, #128]	; 4100614c <vk_thread_check+0x2c8>
410060c8:	e51b2020 	ldr	r2, [fp, #-32]	; 0xffffffe0
410060cc:	e7923003 	ldr	r3, [r2, r3]
410060d0:	e5933000 	ldr	r3, [r3]
410060d4:	e5933024 	ldr	r3, [r3, #36]	; 0x24
410060d8:	e1a00003 	mov	r0, r3
410060dc:	ebffef16 	bl	41001d3c <vk_free>
410060e0:	e59f3064 	ldr	r3, [pc, #100]	; 4100614c <vk_thread_check+0x2c8>
410060e4:	e51b0020 	ldr	r0, [fp, #-32]	; 0xffffffe0
410060e8:	e7903003 	ldr	r3, [r0, r3]
410060ec:	e5932000 	ldr	r2, [r3]
410060f0:	e3a03000 	mov	r3, #0
410060f4:	e5823024 	str	r3, [r2, #36]	; 0x24
410060f8:	e59f304c 	ldr	r3, [pc, #76]	; 4100614c <vk_thread_check+0x2c8>
410060fc:	e51b1020 	ldr	r1, [fp, #-32]	; 0xffffffe0
41006100:	e7912003 	ldr	r2, [r1, r3]
41006104:	e3a03000 	mov	r3, #0
41006108:	e5823000 	str	r3, [r2]
4100610c:	ea00000b 	b	41006140 <vk_thread_check+0x2bc>
41006110:	e59f3034 	ldr	r3, [pc, #52]	; 4100614c <vk_thread_check+0x2c8>
41006114:	e51b2020 	ldr	r2, [fp, #-32]	; 0xffffffe0
41006118:	e7923003 	ldr	r3, [r2, r3]
4100611c:	e5933000 	ldr	r3, [r3]
41006120:	e5933000 	ldr	r3, [r3]
41006124:	e3530004 	cmp	r3, #4
41006128:	1a000004 	bne	41006140 <vk_thread_check+0x2bc>
4100612c:	e59f3018 	ldr	r3, [pc, #24]	; 4100614c <vk_thread_check+0x2c8>
41006130:	e51b0020 	ldr	r0, [fp, #-32]	; 0xffffffe0
41006134:	e7902003 	ldr	r2, [r0, r3]
41006138:	e3a03000 	mov	r3, #0
4100613c:	e5823000 	str	r3, [r2]
41006140:	e24bd00c 	sub	sp, fp, #12
41006144:	e89da800 	ldm	sp, {fp, sp, pc}
41006148:	000051d8 	.word	0x000051d8
4100614c:	000000ac 	.word	0x000000ac
41006150:	000000c4 	.word	0x000000c4
41006154:	0000007c 	.word	0x0000007c

41006158 <sem_init>:
41006158:	e1a0c00d 	mov	ip, sp
4100615c:	e92dd800 	push	{fp, ip, lr, pc}
41006160:	e24cb004 	sub	fp, ip, #4
41006164:	e24dd018 	sub	sp, sp, #24
41006168:	e50b0018 	str	r0, [fp, #-24]	; 0xffffffe8
4100616c:	e50b101c 	str	r1, [fp, #-28]	; 0xffffffe4
41006170:	e50b2020 	str	r2, [fp, #-32]	; 0xffffffe0
41006174:	e51b301c 	ldr	r3, [fp, #-28]	; 0xffffffe4
41006178:	e3530000 	cmp	r3, #0
4100617c:	0a000002 	beq	4100618c <sem_init+0x34>
41006180:	e3a03001 	mov	r3, #1
41006184:	e50b3024 	str	r3, [fp, #-36]	; 0xffffffdc
41006188:	ea000026 	b	41006228 <sem_init+0xd0>
4100618c:	e3a00040 	mov	r0, #64	; 0x40
41006190:	ebffef59 	bl	41001efc <malloc>
41006194:	e1a03000 	mov	r3, r0
41006198:	e50b3010 	str	r3, [fp, #-16]
4100619c:	e51b2010 	ldr	r2, [fp, #-16]
410061a0:	e3a03000 	mov	r3, #0
410061a4:	e5823004 	str	r3, [r2, #4]
410061a8:	e51b2010 	ldr	r2, [fp, #-16]
410061ac:	e3a03000 	mov	r3, #0
410061b0:	e5823008 	str	r3, [r2, #8]
410061b4:	e51b2020 	ldr	r2, [fp, #-32]	; 0xffffffe0
410061b8:	e51b3010 	ldr	r3, [fp, #-16]
410061bc:	e583200c 	str	r2, [r3, #12]
410061c0:	e51b2010 	ldr	r2, [fp, #-16]
410061c4:	e51b3020 	ldr	r3, [fp, #-32]	; 0xffffffe0
410061c8:	e5823010 	str	r3, [r2, #16]
410061cc:	e51b2010 	ldr	r2, [fp, #-16]
410061d0:	e3a03000 	mov	r3, #0
410061d4:	e5823028 	str	r3, [r2, #40]	; 0x28
410061d8:	e51b2010 	ldr	r2, [fp, #-16]
410061dc:	e3a03000 	mov	r3, #0
410061e0:	e582302c 	str	r3, [r2, #44]	; 0x2c
410061e4:	e51b2010 	ldr	r2, [fp, #-16]
410061e8:	e3a03000 	mov	r3, #0
410061ec:	e5823030 	str	r3, [r2, #48]	; 0x30
410061f0:	e51b2010 	ldr	r2, [fp, #-16]
410061f4:	e3a03000 	mov	r3, #0
410061f8:	e5823034 	str	r3, [r2, #52]	; 0x34
410061fc:	e51b2010 	ldr	r2, [fp, #-16]
41006200:	e3a03000 	mov	r3, #0
41006204:	e5823038 	str	r3, [r2, #56]	; 0x38
41006208:	e51b2010 	ldr	r2, [fp, #-16]
4100620c:	e3a03000 	mov	r3, #0
41006210:	e582303c 	str	r3, [r2, #60]	; 0x3c
41006214:	e51b2018 	ldr	r2, [fp, #-24]	; 0xffffffe8
41006218:	e51b3010 	ldr	r3, [fp, #-16]
4100621c:	e5823000 	str	r3, [r2]
41006220:	e3a03000 	mov	r3, #0
41006224:	e50b3024 	str	r3, [fp, #-36]	; 0xffffffdc
41006228:	e51b3024 	ldr	r3, [fp, #-36]	; 0xffffffdc
4100622c:	e1a00003 	mov	r0, r3
41006230:	e24bd00c 	sub	sp, fp, #12
41006234:	e89da800 	ldm	sp, {fp, sp, pc}

41006238 <sem_destory>:
41006238:	e1a0c00d 	mov	ip, sp
4100623c:	e92dd800 	push	{fp, ip, lr, pc}
41006240:	e24cb004 	sub	fp, ip, #4
41006244:	e24dd018 	sub	sp, sp, #24
41006248:	e59f10d4 	ldr	r1, [pc, #212]	; 41006324 <sem_destory+0xec>
4100624c:	e50b1020 	str	r1, [fp, #-32]	; 0xffffffe0
41006250:	e51b2020 	ldr	r2, [fp, #-32]	; 0xffffffe0
41006254:	e08f2002 	add	r2, pc, r2
41006258:	e50b2020 	str	r2, [fp, #-32]	; 0xffffffe0
4100625c:	e50b0018 	str	r0, [fp, #-24]	; 0xffffffe8
41006260:	ebffed31 	bl	4100172c <vk_disable_interrupt>
41006264:	e51b3018 	ldr	r3, [fp, #-24]	; 0xffffffe8
41006268:	e5933000 	ldr	r3, [r3]
4100626c:	e50b3010 	str	r3, [fp, #-16]
41006270:	e51b3010 	ldr	r3, [fp, #-16]
41006274:	e5933008 	ldr	r3, [r3, #8]
41006278:	e3530000 	cmp	r3, #0
4100627c:	1a00000b 	bne	410062b0 <sem_destory+0x78>
41006280:	e51b3010 	ldr	r3, [fp, #-16]
41006284:	e593300c 	ldr	r3, [r3, #12]
41006288:	e1a02003 	mov	r2, r3
4100628c:	e51b3010 	ldr	r3, [fp, #-16]
41006290:	e5933010 	ldr	r3, [r3, #16]
41006294:	e1520003 	cmp	r2, r3
41006298:	1a000004 	bne	410062b0 <sem_destory+0x78>
4100629c:	e51b0010 	ldr	r0, [fp, #-16]
410062a0:	ebffef33 	bl	41001f74 <free>
410062a4:	e3a03000 	mov	r3, #0
410062a8:	e50b301c 	str	r3, [fp, #-28]	; 0xffffffe4
410062ac:	ea000018 	b	41006314 <sem_destory+0xdc>
410062b0:	e51b3010 	ldr	r3, [fp, #-16]
410062b4:	e5932008 	ldr	r2, [r3, #8]
410062b8:	e59f3068 	ldr	r3, [pc, #104]	; 41006328 <sem_destory+0xf0>
410062bc:	e51b0020 	ldr	r0, [fp, #-32]	; 0xffffffe0
410062c0:	e0803003 	add	r3, r0, r3
410062c4:	e1a00003 	mov	r0, r3
410062c8:	e1a01002 	mov	r1, r2
410062cc:	ebfff9bb 	bl	410049c0 <printk>
410062d0:	e51b3010 	ldr	r3, [fp, #-16]
410062d4:	e593100c 	ldr	r1, [r3, #12]
410062d8:	e51b3010 	ldr	r3, [fp, #-16]
410062dc:	e5932010 	ldr	r2, [r3, #16]
410062e0:	e59f3044 	ldr	r3, [pc, #68]	; 4100632c <sem_destory+0xf4>
410062e4:	e51b0020 	ldr	r0, [fp, #-32]	; 0xffffffe0
410062e8:	e0803003 	add	r3, r0, r3
410062ec:	e1a00003 	mov	r0, r3
410062f0:	ebfff9b2 	bl	410049c0 <printk>
410062f4:	e59f3034 	ldr	r3, [pc, #52]	; 41006330 <sem_destory+0xf8>
410062f8:	e51b1020 	ldr	r1, [fp, #-32]	; 0xffffffe0
410062fc:	e0813003 	add	r3, r1, r3
41006300:	e1a00003 	mov	r0, r3
41006304:	ebfff9ad 	bl	410049c0 <printk>
41006308:	ebffecf2 	bl	410016d8 <vk_enable_interrupt>
4100630c:	e3a02001 	mov	r2, #1
41006310:	e50b201c 	str	r2, [fp, #-28]	; 0xffffffe4
41006314:	e51b301c 	ldr	r3, [fp, #-28]	; 0xffffffe4
41006318:	e1a00003 	mov	r0, r3
4100631c:	e24bd00c 	sub	sp, fp, #12
41006320:	e89da800 	ldm	sp, {fp, sp, pc}
41006324:	00004e24 	.word	0x00004e24
41006328:	fffff9e0 	.word	0xfffff9e0
4100632c:	fffff9f4 	.word	0xfffff9f4
41006330:	fffffa14 	.word	0xfffffa14

41006334 <sem_trywait>:
41006334:	e1a0c00d 	mov	ip, sp
41006338:	e92dd800 	push	{fp, ip, lr, pc}
4100633c:	e24cb004 	sub	fp, ip, #4
41006340:	e24dd010 	sub	sp, sp, #16
41006344:	e50b0018 	str	r0, [fp, #-24]	; 0xffffffe8
41006348:	e51b3018 	ldr	r3, [fp, #-24]	; 0xffffffe8
4100634c:	e5933000 	ldr	r3, [r3]
41006350:	e50b3010 	str	r3, [fp, #-16]
41006354:	ebffecf4 	bl	4100172c <vk_disable_interrupt>
41006358:	e51b3010 	ldr	r3, [fp, #-16]
4100635c:	e593300c 	ldr	r3, [r3, #12]
41006360:	e3530000 	cmp	r3, #0
41006364:	da000006 	ble	41006384 <sem_trywait+0x50>
41006368:	e51b0018 	ldr	r0, [fp, #-24]	; 0xffffffe8
4100636c:	eb00000b 	bl	410063a0 <sem_wait>
41006370:	e1a03000 	mov	r3, r0
41006374:	e50b3014 	str	r3, [fp, #-20]	; 0xffffffec
41006378:	e51b3014 	ldr	r3, [fp, #-20]	; 0xffffffec
4100637c:	e50b301c 	str	r3, [fp, #-28]	; 0xffffffe4
41006380:	ea000002 	b	41006390 <sem_trywait+0x5c>
41006384:	ebffecd3 	bl	410016d8 <vk_enable_interrupt>
41006388:	e3a03001 	mov	r3, #1
4100638c:	e50b301c 	str	r3, [fp, #-28]	; 0xffffffe4
41006390:	e51b301c 	ldr	r3, [fp, #-28]	; 0xffffffe4
41006394:	e1a00003 	mov	r0, r3
41006398:	e24bd00c 	sub	sp, fp, #12
4100639c:	e89da800 	ldm	sp, {fp, sp, pc}

410063a0 <sem_wait>:
410063a0:	e1a0c00d 	mov	ip, sp
410063a4:	e92dd800 	push	{fp, ip, lr, pc}
410063a8:	e24cb004 	sub	fp, ip, #4
410063ac:	e24dd018 	sub	sp, sp, #24
410063b0:	e59f1338 	ldr	r1, [pc, #824]	; 410066f0 <sem_wait+0x350>
410063b4:	e50b1020 	str	r1, [fp, #-32]	; 0xffffffe0
410063b8:	e51b2020 	ldr	r2, [fp, #-32]	; 0xffffffe0
410063bc:	e08f2002 	add	r2, pc, r2
410063c0:	e50b2020 	str	r2, [fp, #-32]	; 0xffffffe0
410063c4:	e50b0018 	str	r0, [fp, #-24]	; 0xffffffe8
410063c8:	ebffecd7 	bl	4100172c <vk_disable_interrupt>
410063cc:	e51b3018 	ldr	r3, [fp, #-24]	; 0xffffffe8
410063d0:	e5933000 	ldr	r3, [r3]
410063d4:	e50b3014 	str	r3, [fp, #-20]	; 0xffffffec
410063d8:	ea000095 	b	41006634 <sem_wait+0x294>
410063dc:	e51b3014 	ldr	r3, [fp, #-20]	; 0xffffffec
410063e0:	e5933028 	ldr	r3, [r3, #40]	; 0x28
410063e4:	e3530000 	cmp	r3, #0
410063e8:	1a000006 	bne	41006408 <sem_wait+0x68>
410063ec:	e59f3300 	ldr	r3, [pc, #768]	; 410066f4 <sem_wait+0x354>
410063f0:	e51b1020 	ldr	r1, [fp, #-32]	; 0xffffffe0
410063f4:	e7913003 	ldr	r3, [r1, r3]
410063f8:	e5932000 	ldr	r2, [r3]
410063fc:	e51b3014 	ldr	r3, [fp, #-20]	; 0xffffffec
41006400:	e5832028 	str	r2, [r3, #40]	; 0x28
41006404:	ea00001d 	b	41006480 <sem_wait+0xe0>
41006408:	e51b3014 	ldr	r3, [fp, #-20]	; 0xffffffec
4100640c:	e593302c 	ldr	r3, [r3, #44]	; 0x2c
41006410:	e3530000 	cmp	r3, #0
41006414:	1a000006 	bne	41006434 <sem_wait+0x94>
41006418:	e59f32d4 	ldr	r3, [pc, #724]	; 410066f4 <sem_wait+0x354>
4100641c:	e51b2020 	ldr	r2, [fp, #-32]	; 0xffffffe0
41006420:	e7923003 	ldr	r3, [r2, r3]
41006424:	e5932000 	ldr	r2, [r3]
41006428:	e51b3014 	ldr	r3, [fp, #-20]	; 0xffffffec
4100642c:	e583202c 	str	r2, [r3, #44]	; 0x2c
41006430:	ea000012 	b	41006480 <sem_wait+0xe0>
41006434:	e51b3014 	ldr	r3, [fp, #-20]	; 0xffffffec
41006438:	e5933030 	ldr	r3, [r3, #48]	; 0x30
4100643c:	e3530000 	cmp	r3, #0
41006440:	1a000006 	bne	41006460 <sem_wait+0xc0>
41006444:	e59f32a8 	ldr	r3, [pc, #680]	; 410066f4 <sem_wait+0x354>
41006448:	e51b1020 	ldr	r1, [fp, #-32]	; 0xffffffe0
4100644c:	e7913003 	ldr	r3, [r1, r3]
41006450:	e5932000 	ldr	r2, [r3]
41006454:	e51b3014 	ldr	r3, [fp, #-20]	; 0xffffffec
41006458:	e5832030 	str	r2, [r3, #48]	; 0x30
4100645c:	ea000007 	b	41006480 <sem_wait+0xe0>
41006460:	e59f3290 	ldr	r3, [pc, #656]	; 410066f8 <sem_wait+0x358>
41006464:	e51b2020 	ldr	r2, [fp, #-32]	; 0xffffffe0
41006468:	e0823003 	add	r3, r2, r3
4100646c:	e1a00003 	mov	r0, r3
41006470:	ebfff952 	bl	410049c0 <printk>
41006474:	e3e03000 	mvn	r3, #0
41006478:	e50b301c 	str	r3, [fp, #-28]	; 0xffffffe4
4100647c:	ea000097 	b	410066e0 <sem_wait+0x340>
41006480:	e59f326c 	ldr	r3, [pc, #620]	; 410066f4 <sem_wait+0x354>
41006484:	e51b1020 	ldr	r1, [fp, #-32]	; 0xffffffe0
41006488:	e7913003 	ldr	r3, [r1, r3]
4100648c:	e5932000 	ldr	r2, [r3]
41006490:	e3a03002 	mov	r3, #2
41006494:	e5823000 	str	r3, [r2]
41006498:	e59f3254 	ldr	r3, [pc, #596]	; 410066f4 <sem_wait+0x354>
4100649c:	e51b2020 	ldr	r2, [fp, #-32]	; 0xffffffe0
410064a0:	e7923003 	ldr	r3, [r2, r3]
410064a4:	e5933000 	ldr	r3, [r3]
410064a8:	e1a00003 	mov	r0, r3
410064ac:	e59f3248 	ldr	r3, [pc, #584]	; 410066fc <sem_wait+0x35c>
410064b0:	e51b1020 	ldr	r1, [fp, #-32]	; 0xffffffe0
410064b4:	e7913003 	ldr	r3, [r1, r3]
410064b8:	e1a01003 	mov	r1, r3
410064bc:	ebfffb2f 	bl	41005180 <vk_thread_dequeue>
410064c0:	e51b3014 	ldr	r3, [fp, #-20]	; 0xffffffec
410064c4:	e5933008 	ldr	r3, [r3, #8]
410064c8:	e2832001 	add	r2, r3, #1
410064cc:	e51b3014 	ldr	r3, [fp, #-20]	; 0xffffffec
410064d0:	e5832008 	str	r2, [r3, #8]
410064d4:	e59f3218 	ldr	r3, [pc, #536]	; 410066f4 <sem_wait+0x354>
410064d8:	e51b2020 	ldr	r2, [fp, #-32]	; 0xffffffe0
410064dc:	e7923003 	ldr	r3, [r2, r3]
410064e0:	e5933000 	ldr	r3, [r3]
410064e4:	e5932008 	ldr	r2, [r3, #8]
410064e8:	e51b3014 	ldr	r3, [fp, #-20]	; 0xffffffec
410064ec:	e5933004 	ldr	r3, [r3, #4]
410064f0:	e1520003 	cmp	r2, r3
410064f4:	9a000006 	bls	41006514 <sem_wait+0x174>
410064f8:	e59f31f4 	ldr	r3, [pc, #500]	; 410066f4 <sem_wait+0x354>
410064fc:	e51b1020 	ldr	r1, [fp, #-32]	; 0xffffffe0
41006500:	e7913003 	ldr	r3, [r1, r3]
41006504:	e5933000 	ldr	r3, [r3]
41006508:	e5932008 	ldr	r2, [r3, #8]
4100650c:	e51b3014 	ldr	r3, [fp, #-20]	; 0xffffffec
41006510:	e5832004 	str	r2, [r3, #4]
41006514:	e3a03000 	mov	r3, #0
41006518:	e50b3010 	str	r3, [fp, #-16]
4100651c:	ea000040 	b	41006624 <sem_wait+0x284>
41006520:	e51b3010 	ldr	r3, [fp, #-16]
41006524:	e51b1014 	ldr	r1, [fp, #-20]	; 0xffffffec
41006528:	e283300c 	add	r3, r3, #12
4100652c:	e3a02004 	mov	r2, #4
41006530:	e1a03103 	lsl	r3, r3, #2
41006534:	e0813003 	add	r3, r1, r3
41006538:	e0833002 	add	r3, r3, r2
4100653c:	e5933000 	ldr	r3, [r3]
41006540:	e3530000 	cmp	r3, #0
41006544:	0a000033 	beq	41006618 <sem_wait+0x278>
41006548:	e51b3010 	ldr	r3, [fp, #-16]
4100654c:	e51b1014 	ldr	r1, [fp, #-20]	; 0xffffffec
41006550:	e283300c 	add	r3, r3, #12
41006554:	e3a02004 	mov	r2, #4
41006558:	e1a03103 	lsl	r3, r3, #2
4100655c:	e0813003 	add	r3, r1, r3
41006560:	e0833002 	add	r3, r3, r2
41006564:	e5933000 	ldr	r3, [r3]
41006568:	e5932008 	ldr	r2, [r3, #8]
4100656c:	e51b3014 	ldr	r3, [fp, #-20]	; 0xffffffec
41006570:	e5933004 	ldr	r3, [r3, #4]
41006574:	e1520003 	cmp	r2, r3
41006578:	2a000026 	bcs	41006618 <sem_wait+0x278>
4100657c:	e51b3010 	ldr	r3, [fp, #-16]
41006580:	e51b1014 	ldr	r1, [fp, #-20]	; 0xffffffec
41006584:	e283300c 	add	r3, r3, #12
41006588:	e3a02004 	mov	r2, #4
4100658c:	e1a03103 	lsl	r3, r3, #2
41006590:	e0813003 	add	r3, r1, r3
41006594:	e0833002 	add	r3, r3, r2
41006598:	e5933000 	ldr	r3, [r3]
4100659c:	e1a00003 	mov	r0, r3
410065a0:	e59f3154 	ldr	r3, [pc, #340]	; 410066fc <sem_wait+0x35c>
410065a4:	e51b2020 	ldr	r2, [fp, #-32]	; 0xffffffe0
410065a8:	e7923003 	ldr	r3, [r2, r3]
410065ac:	e1a01003 	mov	r1, r3
410065b0:	ebfffaf2 	bl	41005180 <vk_thread_dequeue>
410065b4:	e51b3010 	ldr	r3, [fp, #-16]
410065b8:	e51b1014 	ldr	r1, [fp, #-20]	; 0xffffffec
410065bc:	e283300c 	add	r3, r3, #12
410065c0:	e3a02004 	mov	r2, #4
410065c4:	e1a03103 	lsl	r3, r3, #2
410065c8:	e0813003 	add	r3, r1, r3
410065cc:	e0833002 	add	r3, r3, r2
410065d0:	e5932000 	ldr	r2, [r3]
410065d4:	e51b3014 	ldr	r3, [fp, #-20]	; 0xffffffec
410065d8:	e5933004 	ldr	r3, [r3, #4]
410065dc:	e5823008 	str	r3, [r2, #8]
410065e0:	e51b3010 	ldr	r3, [fp, #-16]
410065e4:	e51b1014 	ldr	r1, [fp, #-20]	; 0xffffffec
410065e8:	e283300c 	add	r3, r3, #12
410065ec:	e3a02004 	mov	r2, #4
410065f0:	e1a03103 	lsl	r3, r3, #2
410065f4:	e0813003 	add	r3, r1, r3
410065f8:	e0833002 	add	r3, r3, r2
410065fc:	e5933000 	ldr	r3, [r3]
41006600:	e1a00003 	mov	r0, r3
41006604:	e59f30f0 	ldr	r3, [pc, #240]	; 410066fc <sem_wait+0x35c>
41006608:	e51b1020 	ldr	r1, [fp, #-32]	; 0xffffffe0
4100660c:	e7913003 	ldr	r3, [r1, r3]
41006610:	e1a01003 	mov	r1, r3
41006614:	ebfffa6b 	bl	41004fc8 <vk_thread_enqueue>
41006618:	e51b3010 	ldr	r3, [fp, #-16]
4100661c:	e2833001 	add	r3, r3, #1
41006620:	e50b3010 	str	r3, [fp, #-16]
41006624:	e51b3010 	ldr	r3, [fp, #-16]
41006628:	e3530002 	cmp	r3, #2
4100662c:	9affffbb 	bls	41006520 <sem_wait+0x180>
41006630:	ebffec52 	bl	41001780 <vk_swi_scheduler>
41006634:	e51b3014 	ldr	r3, [fp, #-20]	; 0xffffffec
41006638:	e593300c 	ldr	r3, [r3, #12]
4100663c:	e3530000 	cmp	r3, #0
41006640:	daffff65 	ble	410063dc <sem_wait+0x3c>
41006644:	e51b3014 	ldr	r3, [fp, #-20]	; 0xffffffec
41006648:	e593300c 	ldr	r3, [r3, #12]
4100664c:	e2432001 	sub	r2, r3, #1
41006650:	e51b3014 	ldr	r3, [fp, #-20]	; 0xffffffec
41006654:	e583200c 	str	r2, [r3, #12]
41006658:	e3a03000 	mov	r3, #0
4100665c:	e50b3010 	str	r3, [fp, #-16]
41006660:	ea000018 	b	410066c8 <sem_wait+0x328>
41006664:	e51b3010 	ldr	r3, [fp, #-16]
41006668:	e51b1014 	ldr	r1, [fp, #-20]	; 0xffffffec
4100666c:	e283300c 	add	r3, r3, #12
41006670:	e3a02004 	mov	r2, #4
41006674:	e1a03103 	lsl	r3, r3, #2
41006678:	e0813003 	add	r3, r1, r3
4100667c:	e0833002 	add	r3, r3, r2
41006680:	e5933000 	ldr	r3, [r3]
41006684:	e3530000 	cmp	r3, #0
41006688:	1a00000b 	bne	410066bc <sem_wait+0x31c>
4100668c:	e51b2010 	ldr	r2, [fp, #-16]
41006690:	e59f305c 	ldr	r3, [pc, #92]	; 410066f4 <sem_wait+0x354>
41006694:	e51b1020 	ldr	r1, [fp, #-32]	; 0xffffffe0
41006698:	e7913003 	ldr	r3, [r1, r3]
4100669c:	e5930000 	ldr	r0, [r3]
410066a0:	e51b1014 	ldr	r1, [fp, #-20]	; 0xffffffec
410066a4:	e282300c 	add	r3, r2, #12
410066a8:	e3a02004 	mov	r2, #4
410066ac:	e1a03103 	lsl	r3, r3, #2
410066b0:	e0813003 	add	r3, r1, r3
410066b4:	e0833002 	add	r3, r3, r2
410066b8:	e5830000 	str	r0, [r3]
410066bc:	e51b3010 	ldr	r3, [fp, #-16]
410066c0:	e2833001 	add	r3, r3, #1
410066c4:	e50b3010 	str	r3, [fp, #-16]
410066c8:	e51b3010 	ldr	r3, [fp, #-16]
410066cc:	e3530002 	cmp	r3, #2
410066d0:	9affffe3 	bls	41006664 <sem_wait+0x2c4>
410066d4:	ebffebff 	bl	410016d8 <vk_enable_interrupt>
410066d8:	e3a02000 	mov	r2, #0
410066dc:	e50b201c 	str	r2, [fp, #-28]	; 0xffffffe4
410066e0:	e51b301c 	ldr	r3, [fp, #-28]	; 0xffffffe4
410066e4:	e1a00003 	mov	r0, r3
410066e8:	e24bd00c 	sub	sp, fp, #12
410066ec:	e89da800 	ldm	sp, {fp, sp, pc}
410066f0:	00004cbc 	.word	0x00004cbc
410066f4:	000000ac 	.word	0x000000ac
410066f8:	fffffa7c 	.word	0xfffffa7c
410066fc:	0000007c 	.word	0x0000007c

41006700 <sem_post>:
41006700:	e1a0c00d 	mov	ip, sp
41006704:	e92dd800 	push	{fp, ip, lr, pc}
41006708:	e24cb004 	sub	fp, ip, #4
4100670c:	e24dd010 	sub	sp, sp, #16
41006710:	e59f1264 	ldr	r1, [pc, #612]	; 4100697c <sem_post+0x27c>
41006714:	e50b101c 	str	r1, [fp, #-28]	; 0xffffffe4
41006718:	e51b201c 	ldr	r2, [fp, #-28]	; 0xffffffe4
4100671c:	e08f2002 	add	r2, pc, r2
41006720:	e50b201c 	str	r2, [fp, #-28]	; 0xffffffe4
41006724:	e50b0018 	str	r0, [fp, #-24]	; 0xffffffe8
41006728:	ebffebff 	bl	4100172c <vk_disable_interrupt>
4100672c:	e51b3018 	ldr	r3, [fp, #-24]	; 0xffffffe8
41006730:	e5933000 	ldr	r3, [r3]
41006734:	e50b3010 	str	r3, [fp, #-16]
41006738:	e51b3010 	ldr	r3, [fp, #-16]
4100673c:	e593300c 	ldr	r3, [r3, #12]
41006740:	e2832001 	add	r2, r3, #1
41006744:	e51b3010 	ldr	r3, [fp, #-16]
41006748:	e583200c 	str	r2, [r3, #12]
4100674c:	e51b3010 	ldr	r3, [fp, #-16]
41006750:	e5933028 	ldr	r3, [r3, #40]	; 0x28
41006754:	e3530000 	cmp	r3, #0
41006758:	0a00000e 	beq	41006798 <sem_post+0x98>
4100675c:	e51b3010 	ldr	r3, [fp, #-16]
41006760:	e5932028 	ldr	r2, [r3, #40]	; 0x28
41006764:	e3a03001 	mov	r3, #1
41006768:	e5823000 	str	r3, [r2]
4100676c:	e51b3010 	ldr	r3, [fp, #-16]
41006770:	e5933028 	ldr	r3, [r3, #40]	; 0x28
41006774:	e1a00003 	mov	r0, r3
41006778:	e59f3200 	ldr	r3, [pc, #512]	; 41006980 <sem_post+0x280>
4100677c:	e51b101c 	ldr	r1, [fp, #-28]	; 0xffffffe4
41006780:	e7913003 	ldr	r3, [r1, r3]
41006784:	e1a01003 	mov	r1, r3
41006788:	ebfffa0e 	bl	41004fc8 <vk_thread_enqueue>
4100678c:	e51b2010 	ldr	r2, [fp, #-16]
41006790:	e3a03000 	mov	r3, #0
41006794:	e5823028 	str	r3, [r2, #40]	; 0x28
41006798:	e51b3010 	ldr	r3, [fp, #-16]
4100679c:	e593302c 	ldr	r3, [r3, #44]	; 0x2c
410067a0:	e3530000 	cmp	r3, #0
410067a4:	0a00000e 	beq	410067e4 <sem_post+0xe4>
410067a8:	e51b3010 	ldr	r3, [fp, #-16]
410067ac:	e593202c 	ldr	r2, [r3, #44]	; 0x2c
410067b0:	e3a03001 	mov	r3, #1
410067b4:	e5823000 	str	r3, [r2]
410067b8:	e51b3010 	ldr	r3, [fp, #-16]
410067bc:	e593302c 	ldr	r3, [r3, #44]	; 0x2c
410067c0:	e1a00003 	mov	r0, r3
410067c4:	e59f31b4 	ldr	r3, [pc, #436]	; 41006980 <sem_post+0x280>
410067c8:	e51b201c 	ldr	r2, [fp, #-28]	; 0xffffffe4
410067cc:	e7923003 	ldr	r3, [r2, r3]
410067d0:	e1a01003 	mov	r1, r3
410067d4:	ebfff9fb 	bl	41004fc8 <vk_thread_enqueue>
410067d8:	e51b2010 	ldr	r2, [fp, #-16]
410067dc:	e3a03000 	mov	r3, #0
410067e0:	e582302c 	str	r3, [r2, #44]	; 0x2c
410067e4:	e51b3010 	ldr	r3, [fp, #-16]
410067e8:	e5933030 	ldr	r3, [r3, #48]	; 0x30
410067ec:	e3530000 	cmp	r3, #0
410067f0:	0a00000e 	beq	41006830 <sem_post+0x130>
410067f4:	e51b3010 	ldr	r3, [fp, #-16]
410067f8:	e5932030 	ldr	r2, [r3, #48]	; 0x30
410067fc:	e3a03001 	mov	r3, #1
41006800:	e5823000 	str	r3, [r2]
41006804:	e51b3010 	ldr	r3, [fp, #-16]
41006808:	e5933030 	ldr	r3, [r3, #48]	; 0x30
4100680c:	e1a00003 	mov	r0, r3
41006810:	e59f3168 	ldr	r3, [pc, #360]	; 41006980 <sem_post+0x280>
41006814:	e51b101c 	ldr	r1, [fp, #-28]	; 0xffffffe4
41006818:	e7913003 	ldr	r3, [r1, r3]
4100681c:	e1a01003 	mov	r1, r3
41006820:	ebfff9e8 	bl	41004fc8 <vk_thread_enqueue>
41006824:	e51b2010 	ldr	r2, [fp, #-16]
41006828:	e3a03000 	mov	r3, #0
4100682c:	e5823030 	str	r3, [r2, #48]	; 0x30
41006830:	e51b3010 	ldr	r3, [fp, #-16]
41006834:	e3a02000 	mov	r2, #0
41006838:	e5832008 	str	r2, [r3, #8]
4100683c:	e3a03000 	mov	r3, #0
41006840:	e50b3014 	str	r3, [fp, #-20]	; 0xffffffec
41006844:	ea000019 	b	410068b0 <sem_post+0x1b0>
41006848:	e51b3014 	ldr	r3, [fp, #-20]	; 0xffffffec
4100684c:	e51b1010 	ldr	r1, [fp, #-16]
41006850:	e283300c 	add	r3, r3, #12
41006854:	e3a02004 	mov	r2, #4
41006858:	e1a03103 	lsl	r3, r3, #2
4100685c:	e0813003 	add	r3, r1, r3
41006860:	e0833002 	add	r3, r3, r2
41006864:	e5932000 	ldr	r2, [r3]
41006868:	e59f3114 	ldr	r3, [pc, #276]	; 41006984 <sem_post+0x284>
4100686c:	e51b101c 	ldr	r1, [fp, #-28]	; 0xffffffe4
41006870:	e7913003 	ldr	r3, [r1, r3]
41006874:	e5933000 	ldr	r3, [r3]
41006878:	e1520003 	cmp	r2, r3
4100687c:	1a000008 	bne	410068a4 <sem_post+0x1a4>
41006880:	e51b3014 	ldr	r3, [fp, #-20]	; 0xffffffec
41006884:	e51b1010 	ldr	r1, [fp, #-16]
41006888:	e283300c 	add	r3, r3, #12
4100688c:	e3a02004 	mov	r2, #4
41006890:	e1a03103 	lsl	r3, r3, #2
41006894:	e0813003 	add	r3, r1, r3
41006898:	e0832002 	add	r2, r3, r2
4100689c:	e3a03000 	mov	r3, #0
410068a0:	e5823000 	str	r3, [r2]
410068a4:	e51b3014 	ldr	r3, [fp, #-20]	; 0xffffffec
410068a8:	e2833001 	add	r3, r3, #1
410068ac:	e50b3014 	str	r3, [fp, #-20]	; 0xffffffec
410068b0:	e51b3014 	ldr	r3, [fp, #-20]	; 0xffffffec
410068b4:	e3530002 	cmp	r3, #2
410068b8:	9affffe2 	bls	41006848 <sem_post+0x148>
410068bc:	e59f30c0 	ldr	r3, [pc, #192]	; 41006984 <sem_post+0x284>
410068c0:	e51b201c 	ldr	r2, [fp, #-28]	; 0xffffffe4
410068c4:	e7923003 	ldr	r3, [r2, r3]
410068c8:	e5933000 	ldr	r3, [r3]
410068cc:	e5932008 	ldr	r2, [r3, #8]
410068d0:	e59f30ac 	ldr	r3, [pc, #172]	; 41006984 <sem_post+0x284>
410068d4:	e51b101c 	ldr	r1, [fp, #-28]	; 0xffffffe4
410068d8:	e7913003 	ldr	r3, [r1, r3]
410068dc:	e5933000 	ldr	r3, [r3]
410068e0:	e593300c 	ldr	r3, [r3, #12]
410068e4:	e1520003 	cmp	r2, r3
410068e8:	0a00001d 	beq	41006964 <sem_post+0x264>
410068ec:	e59f3090 	ldr	r3, [pc, #144]	; 41006984 <sem_post+0x284>
410068f0:	e51b201c 	ldr	r2, [fp, #-28]	; 0xffffffe4
410068f4:	e7923003 	ldr	r3, [r2, r3]
410068f8:	e5933000 	ldr	r3, [r3]
410068fc:	e1a00003 	mov	r0, r3
41006900:	e59f3078 	ldr	r3, [pc, #120]	; 41006980 <sem_post+0x280>
41006904:	e51b101c 	ldr	r1, [fp, #-28]	; 0xffffffe4
41006908:	e7913003 	ldr	r3, [r1, r3]
4100690c:	e1a01003 	mov	r1, r3
41006910:	ebfffa1a 	bl	41005180 <vk_thread_dequeue>
41006914:	e59f3068 	ldr	r3, [pc, #104]	; 41006984 <sem_post+0x284>
41006918:	e51b201c 	ldr	r2, [fp, #-28]	; 0xffffffe4
4100691c:	e7923003 	ldr	r3, [r2, r3]
41006920:	e5932000 	ldr	r2, [r3]
41006924:	e59f3058 	ldr	r3, [pc, #88]	; 41006984 <sem_post+0x284>
41006928:	e51b101c 	ldr	r1, [fp, #-28]	; 0xffffffe4
4100692c:	e7913003 	ldr	r3, [r1, r3]
41006930:	e5933000 	ldr	r3, [r3]
41006934:	e593300c 	ldr	r3, [r3, #12]
41006938:	e5823008 	str	r3, [r2, #8]
4100693c:	e59f3040 	ldr	r3, [pc, #64]	; 41006984 <sem_post+0x284>
41006940:	e51b201c 	ldr	r2, [fp, #-28]	; 0xffffffe4
41006944:	e7923003 	ldr	r3, [r2, r3]
41006948:	e5933000 	ldr	r3, [r3]
4100694c:	e1a00003 	mov	r0, r3
41006950:	e59f3028 	ldr	r3, [pc, #40]	; 41006980 <sem_post+0x280>
41006954:	e51b101c 	ldr	r1, [fp, #-28]	; 0xffffffe4
41006958:	e7913003 	ldr	r3, [r1, r3]
4100695c:	e1a01003 	mov	r1, r3
41006960:	ebfff998 	bl	41004fc8 <vk_thread_enqueue>
41006964:	ebffeb85 	bl	41001780 <vk_swi_scheduler>
41006968:	ebffeb5a 	bl	410016d8 <vk_enable_interrupt>
4100696c:	e3a03000 	mov	r3, #0
41006970:	e1a00003 	mov	r0, r3
41006974:	e24bd00c 	sub	sp, fp, #12
41006978:	e89da800 	ldm	sp, {fp, sp, pc}
4100697c:	0000495c 	.word	0x0000495c
41006980:	0000007c 	.word	0x0000007c
41006984:	000000ac 	.word	0x000000ac

41006988 <sem_getvalue>:
41006988:	e1a0c00d 	mov	ip, sp
4100698c:	e92dd800 	push	{fp, ip, lr, pc}
41006990:	e24cb004 	sub	fp, ip, #4
41006994:	e24dd018 	sub	sp, sp, #24
41006998:	e50b0018 	str	r0, [fp, #-24]	; 0xffffffe8
4100699c:	e50b101c 	str	r1, [fp, #-28]	; 0xffffffe4
410069a0:	e51b3018 	ldr	r3, [fp, #-24]	; 0xffffffe8
410069a4:	e5933000 	ldr	r3, [r3]
410069a8:	e50b3010 	str	r3, [fp, #-16]
410069ac:	e51b301c 	ldr	r3, [fp, #-28]	; 0xffffffe4
410069b0:	e3530000 	cmp	r3, #0
410069b4:	0a000002 	beq	410069c4 <sem_getvalue+0x3c>
410069b8:	e51b3018 	ldr	r3, [fp, #-24]	; 0xffffffe8
410069bc:	e3530000 	cmp	r3, #0
410069c0:	1a000002 	bne	410069d0 <sem_getvalue+0x48>
410069c4:	e3a03001 	mov	r3, #1
410069c8:	e50b3020 	str	r3, [fp, #-32]	; 0xffffffe0
410069cc:	ea000005 	b	410069e8 <sem_getvalue+0x60>
410069d0:	e51b3010 	ldr	r3, [fp, #-16]
410069d4:	e593200c 	ldr	r2, [r3, #12]
410069d8:	e51b301c 	ldr	r3, [fp, #-28]	; 0xffffffe4
410069dc:	e5832000 	str	r2, [r3]
410069e0:	e3a03000 	mov	r3, #0
410069e4:	e50b3020 	str	r3, [fp, #-32]	; 0xffffffe0
410069e8:	e51b3020 	ldr	r3, [fp, #-32]	; 0xffffffe0
410069ec:	e1a00003 	mov	r0, r3
410069f0:	e24bd00c 	sub	sp, fp, #12
410069f4:	e89da800 	ldm	sp, {fp, sp, pc}

410069f8 <getc>:
410069f8:	e52db004 	push	{fp}		; (str fp, [sp, #-4]!)
410069fc:	e28db000 	add	fp, sp, #0
41006a00:	e24dd00c 	sub	sp, sp, #12
41006a04:	e59f3088 	ldr	r3, [pc, #136]	; 41006a94 <getc+0x9c>
41006a08:	e08f3003 	add	r3, pc, r3
41006a0c:	e320f000 	nop	{0}
41006a10:	e59f2080 	ldr	r2, [pc, #128]	; 41006a98 <getc+0xa0>
41006a14:	e7932002 	ldr	r2, [r3, r2]
41006a18:	e5921000 	ldr	r1, [r2]
41006a1c:	e59f2078 	ldr	r2, [pc, #120]	; 41006a9c <getc+0xa4>
41006a20:	e7932002 	ldr	r2, [r3, r2]
41006a24:	e5922000 	ldr	r2, [r2]
41006a28:	e1510002 	cmp	r1, r2
41006a2c:	0afffff7 	beq	41006a10 <getc+0x18>
41006a30:	e59f2060 	ldr	r2, [pc, #96]	; 41006a98 <getc+0xa0>
41006a34:	e7932002 	ldr	r2, [r3, r2]
41006a38:	e5922000 	ldr	r2, [r2]
41006a3c:	e2820001 	add	r0, r2, #1
41006a40:	e59f1050 	ldr	r1, [pc, #80]	; 41006a98 <getc+0xa0>
41006a44:	e7931001 	ldr	r1, [r3, r1]
41006a48:	e5810000 	str	r0, [r1]
41006a4c:	e59f104c 	ldr	r1, [pc, #76]	; 41006aa0 <getc+0xa8>
41006a50:	e7931001 	ldr	r1, [r3, r1]
41006a54:	e7d12002 	ldrb	r2, [r1, r2]
41006a58:	e54b2005 	strb	r2, [fp, #-5]
41006a5c:	e59f2034 	ldr	r2, [pc, #52]	; 41006a98 <getc+0xa0>
41006a60:	e7932002 	ldr	r2, [r3, r2]
41006a64:	e5922000 	ldr	r2, [r2]
41006a68:	e3520064 	cmp	r2, #100	; 0x64
41006a6c:	1a000003 	bne	41006a80 <getc+0x88>
41006a70:	e59f2020 	ldr	r2, [pc, #32]	; 41006a98 <getc+0xa0>
41006a74:	e7933002 	ldr	r3, [r3, r2]
41006a78:	e3a02000 	mov	r2, #0
41006a7c:	e5832000 	str	r2, [r3]
41006a80:	e55b3005 	ldrb	r3, [fp, #-5]
41006a84:	e1a00003 	mov	r0, r3
41006a88:	e28bd000 	add	sp, fp, #0
41006a8c:	e49db004 	pop	{fp}		; (ldr fp, [sp], #4)
41006a90:	e12fff1e 	bx	lr
41006a94:	00004670 	.word	0x00004670
41006a98:	00000064 	.word	0x00000064
41006a9c:	0000005c 	.word	0x0000005c
41006aa0:	00000078 	.word	0x00000078

41006aa4 <putc>:
41006aa4:	e52db004 	push	{fp}		; (str fp, [sp, #-4]!)
41006aa8:	e28db000 	add	fp, sp, #0
41006aac:	e24dd00c 	sub	sp, sp, #12
41006ab0:	e1a03000 	mov	r3, r0
41006ab4:	e54b3005 	strb	r3, [fp, #-5]
41006ab8:	e320f000 	nop	{0}
41006abc:	e3a03018 	mov	r3, #24
41006ac0:	e3403900 	movt	r3, #2304	; 0x900
41006ac4:	e5933000 	ldr	r3, [r3]
41006ac8:	e2033020 	and	r3, r3, #32
41006acc:	e3530000 	cmp	r3, #0
41006ad0:	1afffff9 	bne	41006abc <putc+0x18>
41006ad4:	e3a02409 	mov	r2, #150994944	; 0x9000000
41006ad8:	e55b3005 	ldrb	r3, [fp, #-5]
41006adc:	e5823000 	str	r3, [r2]
41006ae0:	e320f000 	nop	{0}
41006ae4:	e28bd000 	add	sp, fp, #0
41006ae8:	e49db004 	pop	{fp}		; (ldr fp, [sp], #4)
41006aec:	e12fff1e 	bx	lr

41006af0 <vh_serial_init>:
41006af0:	e52db004 	push	{fp}		; (str fp, [sp, #-4]!)
41006af4:	e28db000 	add	fp, sp, #0
41006af8:	e24dd014 	sub	sp, sp, #20
41006afc:	e59f30d8 	ldr	r3, [pc, #216]	; 41006bdc <vh_serial_init+0xec>
41006b00:	e08f3003 	add	r3, pc, r3
41006b04:	e3a0200d 	mov	r2, #13
41006b08:	e50b200c 	str	r2, [fp, #-12]
41006b0c:	e51b200c 	ldr	r2, [fp, #-12]
41006b10:	e1a02302 	lsl	r2, r2, #6
41006b14:	e2422d0d 	sub	r2, r2, #832	; 0x340
41006b18:	e50b2010 	str	r2, [fp, #-16]
41006b1c:	e51b2010 	ldr	r2, [fp, #-16]
41006b20:	e1a02102 	lsl	r2, r2, #2
41006b24:	e1a020a2 	lsr	r2, r2, #1
41006b28:	e50b2010 	str	r2, [fp, #-16]
41006b2c:	e3a02024 	mov	r2, #36	; 0x24
41006b30:	e3402900 	movt	r2, #2304	; 0x900
41006b34:	e51b100c 	ldr	r1, [fp, #-12]
41006b38:	e5821000 	str	r1, [r2]
41006b3c:	e3a02028 	mov	r2, #40	; 0x28
41006b40:	e3402900 	movt	r2, #2304	; 0x900
41006b44:	e51b1010 	ldr	r1, [fp, #-16]
41006b48:	e5821000 	str	r1, [r2]
41006b4c:	e3a0202c 	mov	r2, #44	; 0x2c
41006b50:	e3402900 	movt	r2, #2304	; 0x900
41006b54:	e3a01066 	mov	r1, #102	; 0x66
41006b58:	e5821000 	str	r1, [r2]
41006b5c:	e3a02030 	mov	r2, #48	; 0x30
41006b60:	e3402900 	movt	r2, #2304	; 0x900
41006b64:	e3001301 	movw	r1, #769	; 0x301
41006b68:	e5821000 	str	r1, [r2]
41006b6c:	e59f206c 	ldr	r2, [pc, #108]	; 41006be0 <vh_serial_init+0xf0>
41006b70:	e7932002 	ldr	r2, [r3, r2]
41006b74:	e3a01000 	mov	r1, #0
41006b78:	e5821000 	str	r1, [r2]
41006b7c:	e59f2060 	ldr	r2, [pc, #96]	; 41006be4 <vh_serial_init+0xf4>
41006b80:	e7932002 	ldr	r2, [r3, r2]
41006b84:	e3a01000 	mov	r1, #0
41006b88:	e5821000 	str	r1, [r2]
41006b8c:	e3a02000 	mov	r2, #0
41006b90:	e50b2008 	str	r2, [fp, #-8]
41006b94:	ea000008 	b	41006bbc <vh_serial_init+0xcc>
41006b98:	e59f2048 	ldr	r2, [pc, #72]	; 41006be8 <vh_serial_init+0xf8>
41006b9c:	e7931002 	ldr	r1, [r3, r2]
41006ba0:	e51b2008 	ldr	r2, [fp, #-8]
41006ba4:	e0812002 	add	r2, r1, r2
41006ba8:	e3a01000 	mov	r1, #0
41006bac:	e5c21000 	strb	r1, [r2]
41006bb0:	e51b2008 	ldr	r2, [fp, #-8]
41006bb4:	e2822001 	add	r2, r2, #1
41006bb8:	e50b2008 	str	r2, [fp, #-8]
41006bbc:	e51b2008 	ldr	r2, [fp, #-8]
41006bc0:	e3520063 	cmp	r2, #99	; 0x63
41006bc4:	dafffff3 	ble	41006b98 <vh_serial_init+0xa8>
41006bc8:	e320f000 	nop	{0}
41006bcc:	e320f000 	nop	{0}
41006bd0:	e28bd000 	add	sp, fp, #0
41006bd4:	e49db004 	pop	{fp}		; (ldr fp, [sp], #4)
41006bd8:	e12fff1e 	bx	lr
41006bdc:	00004578 	.word	0x00004578
41006be0:	0000005c 	.word	0x0000005c
41006be4:	00000064 	.word	0x00000064
41006be8:	00000078 	.word	0x00000078

41006bec <vh_serial_irq_enable>:
41006bec:	e52db004 	push	{fp}		; (str fp, [sp, #-4]!)
41006bf0:	e28db000 	add	fp, sp, #0
41006bf4:	e3a03fe1 	mov	r3, #900	; 0x384
41006bf8:	e3403800 	movt	r3, #2048	; 0x800
41006bfc:	e3a02002 	mov	r2, #2
41006c00:	e5832000 	str	r2, [r3]
41006c04:	e3a03fa1 	mov	r3, #644	; 0x284
41006c08:	e3403800 	movt	r3, #2048	; 0x800
41006c0c:	e3a02002 	mov	r2, #2
41006c10:	e5832000 	str	r2, [r3]
41006c14:	e3a03f41 	mov	r3, #260	; 0x104
41006c18:	e3403800 	movt	r3, #2048	; 0x800
41006c1c:	e3a02002 	mov	r2, #2
41006c20:	e5832000 	str	r2, [r3]
41006c24:	e3a03e82 	mov	r3, #2080	; 0x820
41006c28:	e3403800 	movt	r3, #2048	; 0x800
41006c2c:	e3a02c01 	mov	r2, #256	; 0x100
41006c30:	e5832000 	str	r2, [r3]
41006c34:	e3003c08 	movw	r3, #3080	; 0xc08
41006c38:	e3403800 	movt	r3, #2048	; 0x800
41006c3c:	e3a0200c 	mov	r2, #12
41006c40:	e5832000 	str	r2, [r3]
41006c44:	e3a03044 	mov	r3, #68	; 0x44
41006c48:	e3403900 	movt	r3, #2304	; 0x900
41006c4c:	e3a020ff 	mov	r2, #255	; 0xff
41006c50:	e5832000 	str	r2, [r3]
41006c54:	e3a03038 	mov	r3, #56	; 0x38
41006c58:	e3403900 	movt	r3, #2304	; 0x900
41006c5c:	e3a02010 	mov	r2, #16
41006c60:	e5832000 	str	r2, [r3]
41006c64:	e320f000 	nop	{0}
41006c68:	e28bd000 	add	sp, fp, #0
41006c6c:	e49db004 	pop	{fp}		; (ldr fp, [sp], #4)
41006c70:	e12fff1e 	bx	lr

41006c74 <vk_serial_push>:
41006c74:	e52db004 	push	{fp}		; (str fp, [sp, #-4]!)
41006c78:	e28db000 	add	fp, sp, #0
41006c7c:	e24dd00c 	sub	sp, sp, #12
41006c80:	e59f306c 	ldr	r3, [pc, #108]	; 41006cf4 <vk_serial_push+0x80>
41006c84:	e08f3003 	add	r3, pc, r3
41006c88:	e3a02409 	mov	r2, #150994944	; 0x9000000
41006c8c:	e5922000 	ldr	r2, [r2]
41006c90:	e54b2005 	strb	r2, [fp, #-5]
41006c94:	e59f205c 	ldr	r2, [pc, #92]	; 41006cf8 <vk_serial_push+0x84>
41006c98:	e7932002 	ldr	r2, [r3, r2]
41006c9c:	e5922000 	ldr	r2, [r2]
41006ca0:	e2820001 	add	r0, r2, #1
41006ca4:	e59f104c 	ldr	r1, [pc, #76]	; 41006cf8 <vk_serial_push+0x84>
41006ca8:	e7931001 	ldr	r1, [r3, r1]
41006cac:	e5810000 	str	r0, [r1]
41006cb0:	e59f1044 	ldr	r1, [pc, #68]	; 41006cfc <vk_serial_push+0x88>
41006cb4:	e7931001 	ldr	r1, [r3, r1]
41006cb8:	e55b0005 	ldrb	r0, [fp, #-5]
41006cbc:	e7c10002 	strb	r0, [r1, r2]
41006cc0:	e59f2030 	ldr	r2, [pc, #48]	; 41006cf8 <vk_serial_push+0x84>
41006cc4:	e7932002 	ldr	r2, [r3, r2]
41006cc8:	e5922000 	ldr	r2, [r2]
41006ccc:	e3520064 	cmp	r2, #100	; 0x64
41006cd0:	1a000003 	bne	41006ce4 <vk_serial_push+0x70>
41006cd4:	e59f201c 	ldr	r2, [pc, #28]	; 41006cf8 <vk_serial_push+0x84>
41006cd8:	e7933002 	ldr	r3, [r3, r2]
41006cdc:	e3a02000 	mov	r2, #0
41006ce0:	e5832000 	str	r2, [r3]
41006ce4:	e320f000 	nop	{0}
41006ce8:	e28bd000 	add	sp, fp, #0
41006cec:	e49db004 	pop	{fp}		; (ldr fp, [sp], #4)
41006cf0:	e12fff1e 	bx	lr
41006cf4:	000043f4 	.word	0x000043f4
41006cf8:	0000005c 	.word	0x0000005c
41006cfc:	00000078 	.word	0x00000078

41006d00 <vh_serial_interrupt_handler>:
41006d00:	e92d4800 	push	{fp, lr}
41006d04:	e28db004 	add	fp, sp, #4
41006d08:	ebffffd9 	bl	41006c74 <vk_serial_push>
41006d0c:	e320f000 	nop	{0}
41006d10:	e8bd8800 	pop	{fp, pc}

41006d14 <vh_seven_init>:
41006d14:	e1a0c00d 	mov	ip, sp
41006d18:	e92dd810 	push	{r4, fp, ip, lr, pc}
41006d1c:	e24cb004 	sub	fp, ip, #4
41006d20:	e24dd00c 	sub	sp, sp, #12
41006d24:	e59f40c4 	ldr	r4, [pc, #196]	; 41006df0 <vh_seven_init+0xdc>
41006d28:	e08f4004 	add	r4, pc, r4
41006d2c:	e59f20c0 	ldr	r2, [pc, #192]	; 41006df4 <vh_seven_init+0xe0>
41006d30:	e59f30bc 	ldr	r3, [pc, #188]	; 41006df4 <vh_seven_init+0xe0>
41006d34:	e5933000 	ldr	r3, [r3]
41006d38:	e3c3360f 	bic	r3, r3, #15728640	; 0xf00000
41006d3c:	e5823000 	str	r3, [r2]
41006d40:	e59f20ac 	ldr	r2, [pc, #172]	; 41006df4 <vh_seven_init+0xe0>
41006d44:	e59f30a8 	ldr	r3, [pc, #168]	; 41006df4 <vh_seven_init+0xe0>
41006d48:	e5933000 	ldr	r3, [r3]
41006d4c:	e3833602 	orr	r3, r3, #2097152	; 0x200000
41006d50:	e5823000 	str	r3, [r2]
41006d54:	e59f309c 	ldr	r3, [pc, #156]	; 41006df8 <vh_seven_init+0xe4>
41006d58:	e5933000 	ldr	r3, [r3]
41006d5c:	e59f2094 	ldr	r2, [pc, #148]	; 41006df8 <vh_seven_init+0xe4>
41006d60:	e3a03000 	mov	r3, #0
41006d64:	e5823000 	str	r3, [r2]
41006d68:	e59f2088 	ldr	r2, [pc, #136]	; 41006df8 <vh_seven_init+0xe4>
41006d6c:	e59f3084 	ldr	r3, [pc, #132]	; 41006df8 <vh_seven_init+0xe4>
41006d70:	e5933000 	ldr	r3, [r3]
41006d74:	e3833902 	orr	r3, r3, #32768	; 0x8000
41006d78:	e3833007 	orr	r3, r3, #7
41006d7c:	e5823000 	str	r3, [r2]
41006d80:	e59f2074 	ldr	r2, [pc, #116]	; 41006dfc <vh_seven_init+0xe8>
41006d84:	e59f3070 	ldr	r3, [pc, #112]	; 41006dfc <vh_seven_init+0xe8>
41006d88:	e5933000 	ldr	r3, [r3]
41006d8c:	e3833050 	orr	r3, r3, #80	; 0x50
41006d90:	e5823000 	str	r3, [r2]
41006d94:	e3a034e7 	mov	r3, #-419430400	; 0xe7000000
41006d98:	e5932000 	ldr	r2, [r3]
41006d9c:	e59f305c 	ldr	r3, [pc, #92]	; 41006e00 <vh_seven_init+0xec>
41006da0:	e0843003 	add	r3, r4, r3
41006da4:	e1a00003 	mov	r0, r3
41006da8:	e1a01002 	mov	r1, r2
41006dac:	ebfff703 	bl	410049c0 <printk>
41006db0:	e59f3040 	ldr	r3, [pc, #64]	; 41006df8 <vh_seven_init+0xe4>
41006db4:	e5932000 	ldr	r2, [r3]
41006db8:	e59f3044 	ldr	r3, [pc, #68]	; 41006e04 <vh_seven_init+0xf0>
41006dbc:	e0843003 	add	r3, r4, r3
41006dc0:	e1a00003 	mov	r0, r3
41006dc4:	e1a01002 	mov	r1, r2
41006dc8:	ebfff6fc 	bl	410049c0 <printk>
41006dcc:	e59f3028 	ldr	r3, [pc, #40]	; 41006dfc <vh_seven_init+0xe8>
41006dd0:	e5932000 	ldr	r2, [r3]
41006dd4:	e59f302c 	ldr	r3, [pc, #44]	; 41006e08 <vh_seven_init+0xf4>
41006dd8:	e0843003 	add	r3, r4, r3
41006ddc:	e1a00003 	mov	r0, r3
41006de0:	e1a01002 	mov	r1, r2
41006de4:	ebfff6f5 	bl	410049c0 <printk>
41006de8:	e24bd010 	sub	sp, fp, #16
41006dec:	e89da810 	ldm	sp, {r4, fp, sp, pc}
41006df0:	00004350 	.word	0x00004350
41006df4:	e03002a0 	.word	0xe03002a0
41006df8:	a800c080 	.word	0xa800c080
41006dfc:	a800c084 	.word	0xa800c084
41006e00:	fffffab8 	.word	0xfffffab8
41006e04:	fffffac8 	.word	0xfffffac8
41006e08:	fffffadc 	.word	0xfffffadc

41006e0c <strcasecmp>:
41006e0c:	e1a0c00d 	mov	ip, sp
41006e10:	e92dd800 	push	{fp, ip, lr, pc}
41006e14:	e24cb004 	sub	fp, ip, #4
41006e18:	e24dd018 	sub	sp, sp, #24
41006e1c:	e50b0018 	str	r0, [fp, #-24]	; 0xffffffe8
41006e20:	e50b101c 	str	r1, [fp, #-28]	; 0xffffffe4
41006e24:	ea000033 	b	41006ef8 <strcasecmp+0xec>
41006e28:	e51b3018 	ldr	r3, [fp, #-24]	; 0xffffffe8
41006e2c:	e5d33000 	ldrb	r3, [r3]
41006e30:	e3530060 	cmp	r3, #96	; 0x60
41006e34:	9a000008 	bls	41006e5c <strcasecmp+0x50>
41006e38:	e51b3018 	ldr	r3, [fp, #-24]	; 0xffffffe8
41006e3c:	e5d33000 	ldrb	r3, [r3]
41006e40:	e353007a 	cmp	r3, #122	; 0x7a
41006e44:	8a000004 	bhi	41006e5c <strcasecmp+0x50>
41006e48:	e51b3018 	ldr	r3, [fp, #-24]	; 0xffffffe8
41006e4c:	e5d33000 	ldrb	r3, [r3]
41006e50:	e2433020 	sub	r3, r3, #32
41006e54:	e50b3014 	str	r3, [fp, #-20]	; 0xffffffec
41006e58:	ea000002 	b	41006e68 <strcasecmp+0x5c>
41006e5c:	e51b3018 	ldr	r3, [fp, #-24]	; 0xffffffe8
41006e60:	e5d33000 	ldrb	r3, [r3]
41006e64:	e50b3014 	str	r3, [fp, #-20]	; 0xffffffec
41006e68:	e51b301c 	ldr	r3, [fp, #-28]	; 0xffffffe4
41006e6c:	e5d33000 	ldrb	r3, [r3]
41006e70:	e3530060 	cmp	r3, #96	; 0x60
41006e74:	9a000008 	bls	41006e9c <strcasecmp+0x90>
41006e78:	e51b301c 	ldr	r3, [fp, #-28]	; 0xffffffe4
41006e7c:	e5d33000 	ldrb	r3, [r3]
41006e80:	e353007a 	cmp	r3, #122	; 0x7a
41006e84:	8a000004 	bhi	41006e9c <strcasecmp+0x90>
41006e88:	e51b301c 	ldr	r3, [fp, #-28]	; 0xffffffe4
41006e8c:	e5d33000 	ldrb	r3, [r3]
41006e90:	e2433020 	sub	r3, r3, #32
41006e94:	e50b3010 	str	r3, [fp, #-16]
41006e98:	ea000002 	b	41006ea8 <strcasecmp+0x9c>
41006e9c:	e51b301c 	ldr	r3, [fp, #-28]	; 0xffffffe4
41006ea0:	e5d33000 	ldrb	r3, [r3]
41006ea4:	e50b3010 	str	r3, [fp, #-16]
41006ea8:	e51b2014 	ldr	r2, [fp, #-20]	; 0xffffffec
41006eac:	e51b3010 	ldr	r3, [fp, #-16]
41006eb0:	e1520003 	cmp	r2, r3
41006eb4:	da000002 	ble	41006ec4 <strcasecmp+0xb8>
41006eb8:	e3a03001 	mov	r3, #1
41006ebc:	e50b3020 	str	r3, [fp, #-32]	; 0xffffffe0
41006ec0:	ea000024 	b	41006f58 <strcasecmp+0x14c>
41006ec4:	e51b2014 	ldr	r2, [fp, #-20]	; 0xffffffec
41006ec8:	e51b3010 	ldr	r3, [fp, #-16]
41006ecc:	e1520003 	cmp	r2, r3
41006ed0:	aa000002 	bge	41006ee0 <strcasecmp+0xd4>
41006ed4:	e3e03000 	mvn	r3, #0
41006ed8:	e50b3020 	str	r3, [fp, #-32]	; 0xffffffe0
41006edc:	ea00001d 	b	41006f58 <strcasecmp+0x14c>
41006ee0:	e51b3018 	ldr	r3, [fp, #-24]	; 0xffffffe8
41006ee4:	e2833001 	add	r3, r3, #1
41006ee8:	e50b3018 	str	r3, [fp, #-24]	; 0xffffffe8
41006eec:	e51b301c 	ldr	r3, [fp, #-28]	; 0xffffffe4
41006ef0:	e2833001 	add	r3, r3, #1
41006ef4:	e50b301c 	str	r3, [fp, #-28]	; 0xffffffe4
41006ef8:	e51b3018 	ldr	r3, [fp, #-24]	; 0xffffffe8
41006efc:	e5d33000 	ldrb	r3, [r3]
41006f00:	e3530000 	cmp	r3, #0
41006f04:	0a000003 	beq	41006f18 <strcasecmp+0x10c>
41006f08:	e51b301c 	ldr	r3, [fp, #-28]	; 0xffffffe4
41006f0c:	e5d33000 	ldrb	r3, [r3]
41006f10:	e3530000 	cmp	r3, #0
41006f14:	1affffc3 	bne	41006e28 <strcasecmp+0x1c>
41006f18:	e51b3018 	ldr	r3, [fp, #-24]	; 0xffffffe8
41006f1c:	e5d33000 	ldrb	r3, [r3]
41006f20:	e3530000 	cmp	r3, #0
41006f24:	0a000002 	beq	41006f34 <strcasecmp+0x128>
41006f28:	e3a03001 	mov	r3, #1
41006f2c:	e50b3020 	str	r3, [fp, #-32]	; 0xffffffe0
41006f30:	ea000008 	b	41006f58 <strcasecmp+0x14c>
41006f34:	e51b301c 	ldr	r3, [fp, #-28]	; 0xffffffe4
41006f38:	e5d33000 	ldrb	r3, [r3]
41006f3c:	e3530000 	cmp	r3, #0
41006f40:	0a000002 	beq	41006f50 <strcasecmp+0x144>
41006f44:	e3e03000 	mvn	r3, #0
41006f48:	e50b3020 	str	r3, [fp, #-32]	; 0xffffffe0
41006f4c:	ea000001 	b	41006f58 <strcasecmp+0x14c>
41006f50:	e3a03000 	mov	r3, #0
41006f54:	e50b3020 	str	r3, [fp, #-32]	; 0xffffffe0
41006f58:	e51b3020 	ldr	r3, [fp, #-32]	; 0xffffffe0
41006f5c:	e1a00003 	mov	r0, r3
41006f60:	e24bd00c 	sub	sp, fp, #12
41006f64:	e89da800 	ldm	sp, {fp, sp, pc}

41006f68 <TOLOWER>:
41006f68:	e1a0c00d 	mov	ip, sp
41006f6c:	e92dd800 	push	{fp, ip, lr, pc}
41006f70:	e24cb004 	sub	fp, ip, #4
41006f74:	e24dd008 	sub	sp, sp, #8
41006f78:	e1a03000 	mov	r3, r0
41006f7c:	e54b300d 	strb	r3, [fp, #-13]
41006f80:	e55b300d 	ldrb	r3, [fp, #-13]
41006f84:	e3530040 	cmp	r3, #64	; 0x40
41006f88:	9a000007 	bls	41006fac <TOLOWER+0x44>
41006f8c:	e55b300d 	ldrb	r3, [fp, #-13]
41006f90:	e353005a 	cmp	r3, #90	; 0x5a
41006f94:	8a000004 	bhi	41006fac <TOLOWER+0x44>
41006f98:	e55b300d 	ldrb	r3, [fp, #-13]
41006f9c:	e2833020 	add	r3, r3, #32
41006fa0:	e20330ff 	and	r3, r3, #255	; 0xff
41006fa4:	e50b3014 	str	r3, [fp, #-20]	; 0xffffffec
41006fa8:	ea000001 	b	41006fb4 <TOLOWER+0x4c>
41006fac:	e55b300d 	ldrb	r3, [fp, #-13]
41006fb0:	e50b3014 	str	r3, [fp, #-20]	; 0xffffffec
41006fb4:	e51b3014 	ldr	r3, [fp, #-20]	; 0xffffffec
41006fb8:	e1a00003 	mov	r0, r3
41006fbc:	e24bd00c 	sub	sp, fp, #12
41006fc0:	e89da800 	ldm	sp, {fp, sp, pc}

41006fc4 <strncasecmp>:
41006fc4:	e1a0c00d 	mov	ip, sp
41006fc8:	e92dd800 	push	{fp, ip, lr, pc}
41006fcc:	e24cb004 	sub	fp, ip, #4
41006fd0:	e24dd020 	sub	sp, sp, #32
41006fd4:	e50b0020 	str	r0, [fp, #-32]	; 0xffffffe0
41006fd8:	e50b1024 	str	r1, [fp, #-36]	; 0xffffffdc
41006fdc:	e50b2028 	str	r2, [fp, #-40]	; 0xffffffd8
41006fe0:	e51b3020 	ldr	r3, [fp, #-32]	; 0xffffffe0
41006fe4:	e50b3018 	str	r3, [fp, #-24]	; 0xffffffe8
41006fe8:	e51b3024 	ldr	r3, [fp, #-36]	; 0xffffffdc
41006fec:	e50b3014 	str	r3, [fp, #-20]	; 0xffffffec
41006ff0:	e51b2018 	ldr	r2, [fp, #-24]	; 0xffffffe8
41006ff4:	e51b3014 	ldr	r3, [fp, #-20]	; 0xffffffec
41006ff8:	e1520003 	cmp	r2, r3
41006ffc:	0a000002 	beq	4100700c <strncasecmp+0x48>
41007000:	e51b3028 	ldr	r3, [fp, #-40]	; 0xffffffd8
41007004:	e3530000 	cmp	r3, #0
41007008:	1a000002 	bne	41007018 <strncasecmp+0x54>
4100700c:	e3a03000 	mov	r3, #0
41007010:	e50b302c 	str	r3, [fp, #-44]	; 0xffffffd4
41007014:	ea000027 	b	410070b8 <strncasecmp+0xf4>
41007018:	e51b3018 	ldr	r3, [fp, #-24]	; 0xffffffe8
4100701c:	e5d32000 	ldrb	r2, [r3]
41007020:	e51b3018 	ldr	r3, [fp, #-24]	; 0xffffffe8
41007024:	e2833001 	add	r3, r3, #1
41007028:	e50b3018 	str	r3, [fp, #-24]	; 0xffffffe8
4100702c:	e1a00002 	mov	r0, r2
41007030:	ebffffcc 	bl	41006f68 <TOLOWER>
41007034:	e1a03000 	mov	r3, r0
41007038:	e54b300e 	strb	r3, [fp, #-14]
4100703c:	e51b3014 	ldr	r3, [fp, #-20]	; 0xffffffec
41007040:	e5d32000 	ldrb	r2, [r3]
41007044:	e51b3014 	ldr	r3, [fp, #-20]	; 0xffffffec
41007048:	e2833001 	add	r3, r3, #1
4100704c:	e50b3014 	str	r3, [fp, #-20]	; 0xffffffec
41007050:	e1a00002 	mov	r0, r2
41007054:	ebffffc3 	bl	41006f68 <TOLOWER>
41007058:	e1a03000 	mov	r3, r0
4100705c:	e54b300d 	strb	r3, [fp, #-13]
41007060:	e55b300e 	ldrb	r3, [fp, #-14]
41007064:	e3530000 	cmp	r3, #0
41007068:	0a000003 	beq	4100707c <strncasecmp+0xb8>
4100706c:	e55b200e 	ldrb	r2, [fp, #-14]
41007070:	e55b300d 	ldrb	r3, [fp, #-13]
41007074:	e1520003 	cmp	r2, r3
41007078:	0a000004 	beq	41007090 <strncasecmp+0xcc>
4100707c:	e55b200e 	ldrb	r2, [fp, #-14]
41007080:	e55b300d 	ldrb	r3, [fp, #-13]
41007084:	e0632002 	rsb	r2, r3, r2
41007088:	e50b202c 	str	r2, [fp, #-44]	; 0xffffffd4
4100708c:	ea000009 	b	410070b8 <strncasecmp+0xf4>
41007090:	e51b3028 	ldr	r3, [fp, #-40]	; 0xffffffd8
41007094:	e2433001 	sub	r3, r3, #1
41007098:	e50b3028 	str	r3, [fp, #-40]	; 0xffffffd8
4100709c:	e51b3028 	ldr	r3, [fp, #-40]	; 0xffffffd8
410070a0:	e3530000 	cmp	r3, #0
410070a4:	caffffdb 	bgt	41007018 <strncasecmp+0x54>
410070a8:	e55b200e 	ldrb	r2, [fp, #-14]
410070ac:	e55b300d 	ldrb	r3, [fp, #-13]
410070b0:	e0632002 	rsb	r2, r3, r2
410070b4:	e50b202c 	str	r2, [fp, #-44]	; 0xffffffd4
410070b8:	e51b302c 	ldr	r3, [fp, #-44]	; 0xffffffd4
410070bc:	e1a00003 	mov	r0, r3
410070c0:	e24bd00c 	sub	sp, fp, #12
410070c4:	e89da800 	ldm	sp, {fp, sp, pc}

410070c8 <abs>:
410070c8:	e1a0c00d 	mov	ip, sp
410070cc:	e92dd800 	push	{fp, ip, lr, pc}
410070d0:	e24cb004 	sub	fp, ip, #4
410070d4:	e24dd008 	sub	sp, sp, #8
410070d8:	e50b0010 	str	r0, [fp, #-16]
410070dc:	e51b3010 	ldr	r3, [fp, #-16]
410070e0:	e3530000 	cmp	r3, #0
410070e4:	aa000003 	bge	410070f8 <abs+0x30>
410070e8:	e51b3010 	ldr	r3, [fp, #-16]
410070ec:	e2633000 	rsb	r3, r3, #0
410070f0:	e50b3014 	str	r3, [fp, #-20]	; 0xffffffec
410070f4:	ea000001 	b	41007100 <abs+0x38>
410070f8:	e51b3010 	ldr	r3, [fp, #-16]
410070fc:	e50b3014 	str	r3, [fp, #-20]	; 0xffffffec
41007100:	e51b3014 	ldr	r3, [fp, #-20]	; 0xffffffec
41007104:	e1a00003 	mov	r0, r3
41007108:	e24bd00c 	sub	sp, fp, #12
4100710c:	e89da800 	ldm	sp, {fp, sp, pc}

41007110 <atoi>:
41007110:	e1a0c00d 	mov	ip, sp
41007114:	e92dd800 	push	{fp, ip, lr, pc}
41007118:	e24cb004 	sub	fp, ip, #4
4100711c:	e24dd008 	sub	sp, sp, #8
41007120:	e50b0010 	str	r0, [fp, #-16]
41007124:	e51b0010 	ldr	r0, [fp, #-16]
41007128:	e3a01000 	mov	r1, #0
4100712c:	e3a02000 	mov	r2, #0
41007130:	e3a03000 	mov	r3, #0
41007134:	eb0001dd 	bl	410078b0 <strtoul>
41007138:	e1a03000 	mov	r3, r0
4100713c:	e1a00003 	mov	r0, r3
41007140:	e24bd00c 	sub	sp, fp, #12
41007144:	e89da800 	ldm	sp, {fp, sp, pc}

41007148 <atol>:
41007148:	e1a0c00d 	mov	ip, sp
4100714c:	e92dd800 	push	{fp, ip, lr, pc}
41007150:	e24cb004 	sub	fp, ip, #4
41007154:	e24dd008 	sub	sp, sp, #8
41007158:	e50b0010 	str	r0, [fp, #-16]
4100715c:	e51b0010 	ldr	r0, [fp, #-16]
41007160:	e3a01000 	mov	r1, #0
41007164:	e3a02000 	mov	r2, #0
41007168:	e3a03000 	mov	r3, #0
4100716c:	eb0001cf 	bl	410078b0 <strtoul>
41007170:	e1a03000 	mov	r3, r0
41007174:	e1a00003 	mov	r0, r3
41007178:	e24bd00c 	sub	sp, fp, #12
4100717c:	e89da800 	ldm	sp, {fp, sp, pc}

41007180 <itoa>:
41007180:	e1a0c00d 	mov	ip, sp
41007184:	e92dd800 	push	{fp, ip, lr, pc}
41007188:	e24cb004 	sub	fp, ip, #4
4100718c:	e24dd028 	sub	sp, sp, #40	; 0x28
41007190:	e50b0028 	str	r0, [fp, #-40]	; 0xffffffd8
41007194:	e50b102c 	str	r1, [fp, #-44]	; 0xffffffd4
41007198:	e3a03000 	mov	r3, #0
4100719c:	e50b301c 	str	r3, [fp, #-28]	; 0xffffffe4
410071a0:	e3a03000 	mov	r3, #0
410071a4:	e50b3018 	str	r3, [fp, #-24]	; 0xffffffe8
410071a8:	e3a03000 	mov	r3, #0
410071ac:	e50b3010 	str	r3, [fp, #-16]
410071b0:	e51b3028 	ldr	r3, [fp, #-40]	; 0xffffffd8
410071b4:	e3530009 	cmp	r3, #9
410071b8:	8a000016 	bhi	41007218 <itoa+0x98>
410071bc:	e51b0018 	ldr	r0, [fp, #-24]	; 0xffffffe8
410071c0:	e51b1028 	ldr	r1, [fp, #-40]	; 0xffffffd8
410071c4:	e59f3184 	ldr	r3, [pc, #388]	; 41007350 <itoa+0x1d0>
410071c8:	e0832391 	umull	r2, r3, r1, r3
410071cc:	e1a031a3 	lsr	r3, r3, #3
410071d0:	e50b3034 	str	r3, [fp, #-52]	; 0xffffffcc
410071d4:	e51b3034 	ldr	r3, [fp, #-52]	; 0xffffffcc
410071d8:	e1a03083 	lsl	r3, r3, #1
410071dc:	e1a02103 	lsl	r2, r3, #2
410071e0:	e0833002 	add	r3, r3, r2
410071e4:	e0633001 	rsb	r3, r3, r1
410071e8:	e50b3034 	str	r3, [fp, #-52]	; 0xffffffcc
410071ec:	e51bc034 	ldr	ip, [fp, #-52]	; 0xffffffcc
410071f0:	e20c30ff 	and	r3, ip, #255	; 0xff
410071f4:	e2833030 	add	r3, r3, #48	; 0x30
410071f8:	e20310ff 	and	r1, r3, #255	; 0xff
410071fc:	e3e02015 	mvn	r2, #21
41007200:	e24bc00c 	sub	ip, fp, #12
41007204:	e08c3000 	add	r3, ip, r0
41007208:	e0832002 	add	r2, r3, r2
4100720c:	e1a03001 	mov	r3, r1
41007210:	e5c23000 	strb	r3, [r2]
41007214:	ea000030 	b	410072dc <itoa+0x15c>
41007218:	e51b1028 	ldr	r1, [fp, #-40]	; 0xffffffd8
4100721c:	e59f312c 	ldr	r3, [pc, #300]	; 41007350 <itoa+0x1d0>
41007220:	e0830391 	umull	r0, r3, r1, r3
41007224:	e1a031a3 	lsr	r3, r3, #3
41007228:	e50b3030 	str	r3, [fp, #-48]	; 0xffffffd0
4100722c:	e51b3030 	ldr	r3, [fp, #-48]	; 0xffffffd0
41007230:	e1a03083 	lsl	r3, r3, #1
41007234:	e1a02103 	lsl	r2, r3, #2
41007238:	e0833002 	add	r3, r3, r2
4100723c:	e0633001 	rsb	r3, r3, r1
41007240:	e50b3030 	str	r3, [fp, #-48]	; 0xffffffd0
41007244:	e51b1030 	ldr	r1, [fp, #-48]	; 0xffffffd0
41007248:	e50b101c 	str	r1, [fp, #-28]	; 0xffffffe4
4100724c:	e51b0018 	ldr	r0, [fp, #-24]	; 0xffffffe8
41007250:	e51b301c 	ldr	r3, [fp, #-28]	; 0xffffffe4
41007254:	e20330ff 	and	r3, r3, #255	; 0xff
41007258:	e2833030 	add	r3, r3, #48	; 0x30
4100725c:	e20310ff 	and	r1, r3, #255	; 0xff
41007260:	e3e02015 	mvn	r2, #21
41007264:	e24bc00c 	sub	ip, fp, #12
41007268:	e08c3000 	add	r3, ip, r0
4100726c:	e0832002 	add	r2, r3, r2
41007270:	e1a03001 	mov	r3, r1
41007274:	e5c23000 	strb	r3, [r2]
41007278:	e51b3018 	ldr	r3, [fp, #-24]	; 0xffffffe8
4100727c:	e2833001 	add	r3, r3, #1
41007280:	e50b3018 	str	r3, [fp, #-24]	; 0xffffffe8
41007284:	e51b2028 	ldr	r2, [fp, #-40]	; 0xffffffd8
41007288:	e59f30c0 	ldr	r3, [pc, #192]	; 41007350 <itoa+0x1d0>
4100728c:	e0830392 	umull	r0, r3, r2, r3
41007290:	e1a031a3 	lsr	r3, r3, #3
41007294:	e50b3028 	str	r3, [fp, #-40]	; 0xffffffd8
41007298:	e51b3028 	ldr	r3, [fp, #-40]	; 0xffffffd8
4100729c:	e353000a 	cmp	r3, #10
410072a0:	8affffdc 	bhi	41007218 <itoa+0x98>
410072a4:	e51b3028 	ldr	r3, [fp, #-40]	; 0xffffffd8
410072a8:	e3530000 	cmp	r3, #0
410072ac:	0a00000a 	beq	410072dc <itoa+0x15c>
410072b0:	e51b0018 	ldr	r0, [fp, #-24]	; 0xffffffe8
410072b4:	e51b3028 	ldr	r3, [fp, #-40]	; 0xffffffd8
410072b8:	e20330ff 	and	r3, r3, #255	; 0xff
410072bc:	e2833030 	add	r3, r3, #48	; 0x30
410072c0:	e20310ff 	and	r1, r3, #255	; 0xff
410072c4:	e3e02015 	mvn	r2, #21
410072c8:	e24bc00c 	sub	ip, fp, #12
410072cc:	e08c3000 	add	r3, ip, r0
410072d0:	e0832002 	add	r2, r3, r2
410072d4:	e1a03001 	mov	r3, r1
410072d8:	e5c23000 	strb	r3, [r2]
410072dc:	e51b3018 	ldr	r3, [fp, #-24]	; 0xffffffe8
410072e0:	e50b3014 	str	r3, [fp, #-20]	; 0xffffffec
410072e4:	ea00000f 	b	41007328 <itoa+0x1a8>
410072e8:	e51b2010 	ldr	r2, [fp, #-16]
410072ec:	e51b302c 	ldr	r3, [fp, #-44]	; 0xffffffd4
410072f0:	e0831002 	add	r1, r3, r2
410072f4:	e51b3014 	ldr	r3, [fp, #-20]	; 0xffffffec
410072f8:	e3e02015 	mvn	r2, #21
410072fc:	e24b000c 	sub	r0, fp, #12
41007300:	e0803003 	add	r3, r0, r3
41007304:	e0833002 	add	r3, r3, r2
41007308:	e5d33000 	ldrb	r3, [r3]
4100730c:	e5c13000 	strb	r3, [r1]
41007310:	e51b3010 	ldr	r3, [fp, #-16]
41007314:	e2833001 	add	r3, r3, #1
41007318:	e50b3010 	str	r3, [fp, #-16]
4100731c:	e51b3014 	ldr	r3, [fp, #-20]	; 0xffffffec
41007320:	e2433001 	sub	r3, r3, #1
41007324:	e50b3014 	str	r3, [fp, #-20]	; 0xffffffec
41007328:	e51b3014 	ldr	r3, [fp, #-20]	; 0xffffffec
4100732c:	e3530000 	cmp	r3, #0
41007330:	aaffffec 	bge	410072e8 <itoa+0x168>
41007334:	e51b2010 	ldr	r2, [fp, #-16]
41007338:	e51b302c 	ldr	r3, [fp, #-44]	; 0xffffffd4
4100733c:	e0832002 	add	r2, r3, r2
41007340:	e3a03000 	mov	r3, #0
41007344:	e5c23000 	strb	r3, [r2]
41007348:	e24bd00c 	sub	sp, fp, #12
4100734c:	e89da800 	ldm	sp, {fp, sp, pc}
41007350:	cccccccd 	.word	0xcccccccd

41007354 <itoa16>:
41007354:	e1a0c00d 	mov	ip, sp
41007358:	e92dd800 	push	{fp, ip, lr, pc}
4100735c:	e24cb004 	sub	fp, ip, #4
41007360:	e24dd020 	sub	sp, sp, #32
41007364:	e50b0028 	str	r0, [fp, #-40]	; 0xffffffd8
41007368:	e50b102c 	str	r1, [fp, #-44]	; 0xffffffd4
4100736c:	e3a03000 	mov	r3, #0
41007370:	e50b301c 	str	r3, [fp, #-28]	; 0xffffffe4
41007374:	e3a03000 	mov	r3, #0
41007378:	e50b3018 	str	r3, [fp, #-24]	; 0xffffffe8
4100737c:	e3a03000 	mov	r3, #0
41007380:	e50b3010 	str	r3, [fp, #-16]
41007384:	e51b3028 	ldr	r3, [fp, #-40]	; 0xffffffd8
41007388:	e3530009 	cmp	r3, #9
4100738c:	8a00000c 	bhi	410073c4 <itoa16+0x70>
41007390:	e51b0018 	ldr	r0, [fp, #-24]	; 0xffffffe8
41007394:	e51b3028 	ldr	r3, [fp, #-40]	; 0xffffffd8
41007398:	e20330ff 	and	r3, r3, #255	; 0xff
4100739c:	e203300f 	and	r3, r3, #15
410073a0:	e2833030 	add	r3, r3, #48	; 0x30
410073a4:	e20310ff 	and	r1, r3, #255	; 0xff
410073a8:	e3e02015 	mvn	r2, #21
410073ac:	e24bc00c 	sub	ip, fp, #12
410073b0:	e08c3000 	add	r3, ip, r0
410073b4:	e0832002 	add	r2, r3, r2
410073b8:	e1a03001 	mov	r3, r1
410073bc:	e5c23000 	strb	r3, [r2]
410073c0:	ea000024 	b	41007458 <itoa16+0x104>
410073c4:	e51b3028 	ldr	r3, [fp, #-40]	; 0xffffffd8
410073c8:	e203300f 	and	r3, r3, #15
410073cc:	e50b301c 	str	r3, [fp, #-28]	; 0xffffffe4
410073d0:	e51b0018 	ldr	r0, [fp, #-24]	; 0xffffffe8
410073d4:	e51b301c 	ldr	r3, [fp, #-28]	; 0xffffffe4
410073d8:	e20330ff 	and	r3, r3, #255	; 0xff
410073dc:	e2833030 	add	r3, r3, #48	; 0x30
410073e0:	e20310ff 	and	r1, r3, #255	; 0xff
410073e4:	e3e02015 	mvn	r2, #21
410073e8:	e24bc00c 	sub	ip, fp, #12
410073ec:	e08c3000 	add	r3, ip, r0
410073f0:	e0832002 	add	r2, r3, r2
410073f4:	e1a03001 	mov	r3, r1
410073f8:	e5c23000 	strb	r3, [r2]
410073fc:	e51b3018 	ldr	r3, [fp, #-24]	; 0xffffffe8
41007400:	e2833001 	add	r3, r3, #1
41007404:	e50b3018 	str	r3, [fp, #-24]	; 0xffffffe8
41007408:	e51b3028 	ldr	r3, [fp, #-40]	; 0xffffffd8
4100740c:	e1a03223 	lsr	r3, r3, #4
41007410:	e50b3028 	str	r3, [fp, #-40]	; 0xffffffd8
41007414:	e51b3028 	ldr	r3, [fp, #-40]	; 0xffffffd8
41007418:	e3530010 	cmp	r3, #16
4100741c:	8affffe8 	bhi	410073c4 <itoa16+0x70>
41007420:	e51b3028 	ldr	r3, [fp, #-40]	; 0xffffffd8
41007424:	e3530000 	cmp	r3, #0
41007428:	0a00000a 	beq	41007458 <itoa16+0x104>
4100742c:	e51b0018 	ldr	r0, [fp, #-24]	; 0xffffffe8
41007430:	e51b3028 	ldr	r3, [fp, #-40]	; 0xffffffd8
41007434:	e20330ff 	and	r3, r3, #255	; 0xff
41007438:	e2833030 	add	r3, r3, #48	; 0x30
4100743c:	e20310ff 	and	r1, r3, #255	; 0xff
41007440:	e3e02015 	mvn	r2, #21
41007444:	e24bc00c 	sub	ip, fp, #12
41007448:	e08c3000 	add	r3, ip, r0
4100744c:	e0832002 	add	r2, r3, r2
41007450:	e1a03001 	mov	r3, r1
41007454:	e5c23000 	strb	r3, [r2]
41007458:	e51b3018 	ldr	r3, [fp, #-24]	; 0xffffffe8
4100745c:	e50b3014 	str	r3, [fp, #-20]	; 0xffffffec
41007460:	ea00000f 	b	410074a4 <itoa16+0x150>
41007464:	e51b2010 	ldr	r2, [fp, #-16]
41007468:	e51b302c 	ldr	r3, [fp, #-44]	; 0xffffffd4
4100746c:	e0831002 	add	r1, r3, r2
41007470:	e51b3014 	ldr	r3, [fp, #-20]	; 0xffffffec
41007474:	e3e02015 	mvn	r2, #21
41007478:	e24b000c 	sub	r0, fp, #12
4100747c:	e0803003 	add	r3, r0, r3
41007480:	e0833002 	add	r3, r3, r2
41007484:	e5d33000 	ldrb	r3, [r3]
41007488:	e5c13000 	strb	r3, [r1]
4100748c:	e51b3010 	ldr	r3, [fp, #-16]
41007490:	e2833001 	add	r3, r3, #1
41007494:	e50b3010 	str	r3, [fp, #-16]
41007498:	e51b3014 	ldr	r3, [fp, #-20]	; 0xffffffec
4100749c:	e2433001 	sub	r3, r3, #1
410074a0:	e50b3014 	str	r3, [fp, #-20]	; 0xffffffec
410074a4:	e51b3014 	ldr	r3, [fp, #-20]	; 0xffffffec
410074a8:	e3530000 	cmp	r3, #0
410074ac:	aaffffec 	bge	41007464 <itoa16+0x110>
410074b0:	e51b2010 	ldr	r2, [fp, #-16]
410074b4:	e51b302c 	ldr	r3, [fp, #-44]	; 0xffffffd4
410074b8:	e0832002 	add	r2, r3, r2
410074bc:	e3a03000 	mov	r3, #0
410074c0:	e5c23000 	strb	r3, [r2]
410074c4:	e24bd00c 	sub	sp, fp, #12
410074c8:	e89da800 	ldm	sp, {fp, sp, pc}

410074cc <UpperStr>:
410074cc:	e1a0c00d 	mov	ip, sp
410074d0:	e92dd800 	push	{fp, ip, lr, pc}
410074d4:	e24cb004 	sub	fp, ip, #4
410074d8:	e24dd008 	sub	sp, sp, #8
410074dc:	e50b0010 	str	r0, [fp, #-16]
410074e0:	ea000009 	b	4100750c <UpperStr+0x40>
410074e4:	e51b3010 	ldr	r3, [fp, #-16]
410074e8:	e5d33000 	ldrb	r3, [r3]
410074ec:	e1a00003 	mov	r0, r3
410074f0:	eb00000b 	bl	41007524 <__toupper>
410074f4:	e1a03000 	mov	r3, r0
410074f8:	e51b2010 	ldr	r2, [fp, #-16]
410074fc:	e5c23000 	strb	r3, [r2]
41007500:	e51b3010 	ldr	r3, [fp, #-16]
41007504:	e2833001 	add	r3, r3, #1
41007508:	e50b3010 	str	r3, [fp, #-16]
4100750c:	e51b3010 	ldr	r3, [fp, #-16]
41007510:	e5d33000 	ldrb	r3, [r3]
41007514:	e3530000 	cmp	r3, #0
41007518:	1afffff1 	bne	410074e4 <UpperStr+0x18>
4100751c:	e24bd00c 	sub	sp, fp, #12
41007520:	e89da800 	ldm	sp, {fp, sp, pc}

41007524 <__toupper>:
41007524:	e1a0c00d 	mov	ip, sp
41007528:	e92dd800 	push	{fp, ip, lr, pc}
4100752c:	e24cb004 	sub	fp, ip, #4
41007530:	e24dd008 	sub	sp, sp, #8
41007534:	e59f2040 	ldr	r2, [pc, #64]	; 4100757c <__toupper+0x58>
41007538:	e08f2002 	add	r2, pc, r2
4100753c:	e1a03000 	mov	r3, r0
41007540:	e54b300d 	strb	r3, [fp, #-13]
41007544:	e55b100d 	ldrb	r1, [fp, #-13]
41007548:	e59f3030 	ldr	r3, [pc, #48]	; 41007580 <__toupper+0x5c>
4100754c:	e7923003 	ldr	r3, [r2, r3]
41007550:	e7d33001 	ldrb	r3, [r3, r1]
41007554:	e2033002 	and	r3, r3, #2
41007558:	e3530000 	cmp	r3, #0
4100755c:	0a000002 	beq	4100756c <__toupper+0x48>
41007560:	e55b300d 	ldrb	r3, [fp, #-13]
41007564:	e2433020 	sub	r3, r3, #32
41007568:	e54b300d 	strb	r3, [fp, #-13]
4100756c:	e55b300d 	ldrb	r3, [fp, #-13]
41007570:	e1a00003 	mov	r0, r3
41007574:	e24bd00c 	sub	sp, fp, #12
41007578:	e89da800 	ldm	sp, {fp, sp, pc}
4100757c:	00003b40 	.word	0x00003b40
41007580:	0000006c 	.word	0x0000006c

41007584 <LowerStr>:
41007584:	e1a0c00d 	mov	ip, sp
41007588:	e92dd800 	push	{fp, ip, lr, pc}
4100758c:	e24cb004 	sub	fp, ip, #4
41007590:	e24dd008 	sub	sp, sp, #8
41007594:	e50b0010 	str	r0, [fp, #-16]
41007598:	ea000009 	b	410075c4 <LowerStr+0x40>
4100759c:	e51b3010 	ldr	r3, [fp, #-16]
410075a0:	e5d33000 	ldrb	r3, [r3]
410075a4:	e1a00003 	mov	r0, r3
410075a8:	eb00000b 	bl	410075dc <__tolower>
410075ac:	e1a03000 	mov	r3, r0
410075b0:	e51b2010 	ldr	r2, [fp, #-16]
410075b4:	e5c23000 	strb	r3, [r2]
410075b8:	e51b3010 	ldr	r3, [fp, #-16]
410075bc:	e2833001 	add	r3, r3, #1
410075c0:	e50b3010 	str	r3, [fp, #-16]
410075c4:	e51b3010 	ldr	r3, [fp, #-16]
410075c8:	e5d33000 	ldrb	r3, [r3]
410075cc:	e3530000 	cmp	r3, #0
410075d0:	1afffff1 	bne	4100759c <LowerStr+0x18>
410075d4:	e24bd00c 	sub	sp, fp, #12
410075d8:	e89da800 	ldm	sp, {fp, sp, pc}

410075dc <__tolower>:
410075dc:	e1a0c00d 	mov	ip, sp
410075e0:	e92dd800 	push	{fp, ip, lr, pc}
410075e4:	e24cb004 	sub	fp, ip, #4
410075e8:	e24dd008 	sub	sp, sp, #8
410075ec:	e59f2044 	ldr	r2, [pc, #68]	; 41007638 <__tolower+0x5c>
410075f0:	e08f2002 	add	r2, pc, r2
410075f4:	e1a03000 	mov	r3, r0
410075f8:	e54b300d 	strb	r3, [fp, #-13]
410075fc:	e55b100d 	ldrb	r1, [fp, #-13]
41007600:	e59f3034 	ldr	r3, [pc, #52]	; 4100763c <__tolower+0x60>
41007604:	e7923003 	ldr	r3, [r2, r3]
41007608:	e7d33001 	ldrb	r3, [r3, r1]
4100760c:	e2033001 	and	r3, r3, #1
41007610:	e20330ff 	and	r3, r3, #255	; 0xff
41007614:	e3530000 	cmp	r3, #0
41007618:	0a000002 	beq	41007628 <__tolower+0x4c>
4100761c:	e55b300d 	ldrb	r3, [fp, #-13]
41007620:	e2833020 	add	r3, r3, #32
41007624:	e54b300d 	strb	r3, [fp, #-13]
41007628:	e55b300d 	ldrb	r3, [fp, #-13]
4100762c:	e1a00003 	mov	r0, r3
41007630:	e24bd00c 	sub	sp, fp, #12
41007634:	e89da800 	ldm	sp, {fp, sp, pc}
41007638:	00003a88 	.word	0x00003a88
4100763c:	0000006c 	.word	0x0000006c

41007640 <u32todecimal>:
41007640:	e1a0c00d 	mov	ip, sp
41007644:	e92dd800 	push	{fp, ip, lr, pc}
41007648:	e24cb004 	sub	fp, ip, #4
4100764c:	e24dd030 	sub	sp, sp, #48	; 0x30
41007650:	e59f2140 	ldr	r2, [pc, #320]	; 41007798 <u32todecimal+0x158>
41007654:	e50b2038 	str	r2, [fp, #-56]	; 0xffffffc8
41007658:	e51b3038 	ldr	r3, [fp, #-56]	; 0xffffffc8
4100765c:	e08f3003 	add	r3, pc, r3
41007660:	e50b3038 	str	r3, [fp, #-56]	; 0xffffffc8
41007664:	e50b0030 	str	r0, [fp, #-48]	; 0xffffffd0
41007668:	e50b1034 	str	r1, [fp, #-52]	; 0xffffffcc
4100766c:	e3a03000 	mov	r3, #0
41007670:	e50b3018 	str	r3, [fp, #-24]	; 0xffffffe8
41007674:	e3a03000 	mov	r3, #0
41007678:	e50b3014 	str	r3, [fp, #-20]	; 0xffffffec
4100767c:	e51b3034 	ldr	r3, [fp, #-52]	; 0xffffffcc
41007680:	e3530000 	cmp	r3, #0
41007684:	0a00003a 	beq	41007774 <u32todecimal+0x134>
41007688:	ea00001c 	b	41007700 <u32todecimal+0xc0>
4100768c:	e51b1034 	ldr	r1, [fp, #-52]	; 0xffffffcc
41007690:	e59f3104 	ldr	r3, [pc, #260]	; 4100779c <u32todecimal+0x15c>
41007694:	e083c391 	umull	ip, r3, r1, r3
41007698:	e1a031a3 	lsr	r3, r3, #3
4100769c:	e1a03083 	lsl	r3, r3, #1
410076a0:	e1a02103 	lsl	r2, r3, #2
410076a4:	e0833002 	add	r3, r3, r2
410076a8:	e0633001 	rsb	r3, r3, r1
410076ac:	e50b3010 	str	r3, [fp, #-16]
410076b0:	e51b0018 	ldr	r0, [fp, #-24]	; 0xffffffe8
410076b4:	e51b2010 	ldr	r2, [fp, #-16]
410076b8:	e59f30e0 	ldr	r3, [pc, #224]	; 410077a0 <u32todecimal+0x160>
410076bc:	e51b1038 	ldr	r1, [fp, #-56]	; 0xffffffc8
410076c0:	e0813003 	add	r3, r1, r3
410076c4:	e7d31002 	ldrb	r1, [r3, r2]
410076c8:	e3e0201b 	mvn	r2, #27
410076cc:	e24bc00c 	sub	ip, fp, #12
410076d0:	e08c3000 	add	r3, ip, r0
410076d4:	e0832002 	add	r2, r3, r2
410076d8:	e1a03001 	mov	r3, r1
410076dc:	e5c23000 	strb	r3, [r2]
410076e0:	e51b3018 	ldr	r3, [fp, #-24]	; 0xffffffe8
410076e4:	e2833001 	add	r3, r3, #1
410076e8:	e50b3018 	str	r3, [fp, #-24]	; 0xffffffe8
410076ec:	e51b2034 	ldr	r2, [fp, #-52]	; 0xffffffcc
410076f0:	e59f30a4 	ldr	r3, [pc, #164]	; 4100779c <u32todecimal+0x15c>
410076f4:	e0830392 	umull	r0, r3, r2, r3
410076f8:	e1a031a3 	lsr	r3, r3, #3
410076fc:	e50b3034 	str	r3, [fp, #-52]	; 0xffffffcc
41007700:	e51b3034 	ldr	r3, [fp, #-52]	; 0xffffffcc
41007704:	e3530000 	cmp	r3, #0
41007708:	1affffdf 	bne	4100768c <u32todecimal+0x4c>
4100770c:	ea00000f 	b	41007750 <u32todecimal+0x110>
41007710:	e51b3018 	ldr	r3, [fp, #-24]	; 0xffffffe8
41007714:	e2433001 	sub	r3, r3, #1
41007718:	e50b3018 	str	r3, [fp, #-24]	; 0xffffffe8
4100771c:	e51b2014 	ldr	r2, [fp, #-20]	; 0xffffffec
41007720:	e51b3030 	ldr	r3, [fp, #-48]	; 0xffffffd0
41007724:	e0831002 	add	r1, r3, r2
41007728:	e51b3018 	ldr	r3, [fp, #-24]	; 0xffffffe8
4100772c:	e3e0201b 	mvn	r2, #27
41007730:	e24bc00c 	sub	ip, fp, #12
41007734:	e08c3003 	add	r3, ip, r3
41007738:	e0833002 	add	r3, r3, r2
4100773c:	e5d33000 	ldrb	r3, [r3]
41007740:	e5c13000 	strb	r3, [r1]
41007744:	e51b3014 	ldr	r3, [fp, #-20]	; 0xffffffec
41007748:	e2833001 	add	r3, r3, #1
4100774c:	e50b3014 	str	r3, [fp, #-20]	; 0xffffffec
41007750:	e51b3018 	ldr	r3, [fp, #-24]	; 0xffffffe8
41007754:	e3530000 	cmp	r3, #0
41007758:	caffffec 	bgt	41007710 <u32todecimal+0xd0>
4100775c:	e51b2014 	ldr	r2, [fp, #-20]	; 0xffffffec
41007760:	e51b3030 	ldr	r3, [fp, #-48]	; 0xffffffd0
41007764:	e0832002 	add	r2, r3, r2
41007768:	e3a03000 	mov	r3, #0
4100776c:	e5c23000 	strb	r3, [r2]
41007770:	ea000006 	b	41007790 <u32todecimal+0x150>
41007774:	e51b2030 	ldr	r2, [fp, #-48]	; 0xffffffd0
41007778:	e3a03030 	mov	r3, #48	; 0x30
4100777c:	e5c23000 	strb	r3, [r2]
41007780:	e51b3030 	ldr	r3, [fp, #-48]	; 0xffffffd0
41007784:	e2832001 	add	r2, r3, #1
41007788:	e3a03000 	mov	r3, #0
4100778c:	e5c23000 	strb	r3, [r2]
41007790:	e24bd00c 	sub	sp, fp, #12
41007794:	e89da800 	ldm	sp, {fp, sp, pc}
41007798:	00003a1c 	.word	0x00003a1c
4100779c:	cccccccd 	.word	0xcccccccd
410077a0:	ffffff08 	.word	0xffffff08

410077a4 <binarytohex>:
410077a4:	e1a0c00d 	mov	ip, sp
410077a8:	e92dd800 	push	{fp, ip, lr, pc}
410077ac:	e24cb004 	sub	fp, ip, #4
410077b0:	e24dd018 	sub	sp, sp, #24
410077b4:	e59f30e8 	ldr	r3, [pc, #232]	; 410078a4 <binarytohex+0x100>
410077b8:	e50b3024 	str	r3, [fp, #-36]	; 0xffffffdc
410077bc:	e51b3024 	ldr	r3, [fp, #-36]	; 0xffffffdc
410077c0:	e08f3003 	add	r3, pc, r3
410077c4:	e50b3024 	str	r3, [fp, #-36]	; 0xffffffdc
410077c8:	e50b0018 	str	r0, [fp, #-24]	; 0xffffffe8
410077cc:	e50b101c 	str	r1, [fp, #-28]	; 0xffffffe4
410077d0:	e50b2020 	str	r2, [fp, #-32]	; 0xffffffe0
410077d4:	e51b3020 	ldr	r3, [fp, #-32]	; 0xffffffe0
410077d8:	e1a03083 	lsl	r3, r3, #1
410077dc:	e2633000 	rsb	r3, r3, #0
410077e0:	e1e03003 	mvn	r3, r3
410077e4:	e1a03103 	lsl	r3, r3, #2
410077e8:	e50b3010 	str	r3, [fp, #-16]
410077ec:	e59f30b4 	ldr	r3, [pc, #180]	; 410078a8 <binarytohex+0x104>
410077f0:	e51b0024 	ldr	r0, [fp, #-36]	; 0xffffffdc
410077f4:	e0803003 	add	r3, r0, r3
410077f8:	e5d33000 	ldrb	r3, [r3]
410077fc:	e3530030 	cmp	r3, #48	; 0x30
41007800:	0a000004 	beq	41007818 <binarytohex+0x74>
41007804:	e59f30a0 	ldr	r3, [pc, #160]	; 410078ac <binarytohex+0x108>
41007808:	e51b2024 	ldr	r2, [fp, #-36]	; 0xffffffdc
4100780c:	e0823003 	add	r3, r2, r3
41007810:	e1a00003 	mov	r0, r3
41007814:	eb0000b9 	bl	41007b00 <putstr>
41007818:	e3a03000 	mov	r3, #0
4100781c:	e50b3014 	str	r3, [fp, #-20]	; 0xffffffec
41007820:	ea000011 	b	4100786c <binarytohex+0xc8>
41007824:	e51b2014 	ldr	r2, [fp, #-20]	; 0xffffffec
41007828:	e51b3018 	ldr	r3, [fp, #-24]	; 0xffffffe8
4100782c:	e0831002 	add	r1, r3, r2
41007830:	e51b201c 	ldr	r2, [fp, #-28]	; 0xffffffe4
41007834:	e51b3010 	ldr	r3, [fp, #-16]
41007838:	e1a03352 	asr	r3, r2, r3
4100783c:	e203200f 	and	r2, r3, #15
41007840:	e59f3060 	ldr	r3, [pc, #96]	; 410078a8 <binarytohex+0x104>
41007844:	e51b0024 	ldr	r0, [fp, #-36]	; 0xffffffdc
41007848:	e0803003 	add	r3, r0, r3
4100784c:	e7d33002 	ldrb	r3, [r3, r2]
41007850:	e5c13000 	strb	r3, [r1]
41007854:	e51b3010 	ldr	r3, [fp, #-16]
41007858:	e2433004 	sub	r3, r3, #4
4100785c:	e50b3010 	str	r3, [fp, #-16]
41007860:	e51b3014 	ldr	r3, [fp, #-20]	; 0xffffffec
41007864:	e2833001 	add	r3, r3, #1
41007868:	e50b3014 	str	r3, [fp, #-20]	; 0xffffffec
4100786c:	e51b3020 	ldr	r3, [fp, #-32]	; 0xffffffe0
41007870:	e1a02083 	lsl	r2, r3, #1
41007874:	e51b3014 	ldr	r3, [fp, #-20]	; 0xffffffec
41007878:	e1520003 	cmp	r2, r3
4100787c:	caffffe8 	bgt	41007824 <binarytohex+0x80>
41007880:	e51b3020 	ldr	r3, [fp, #-32]	; 0xffffffe0
41007884:	e1a03083 	lsl	r3, r3, #1
41007888:	e1a02003 	mov	r2, r3
4100788c:	e51b3018 	ldr	r3, [fp, #-24]	; 0xffffffe8
41007890:	e0832002 	add	r2, r3, r2
41007894:	e3a03000 	mov	r3, #0
41007898:	e5c23000 	strb	r3, [r2]
4100789c:	e24bd00c 	sub	sp, fp, #12
410078a0:	e89da800 	ldm	sp, {fp, sp, pc}
410078a4:	000038b8 	.word	0x000038b8
410078a8:	ffffff08 	.word	0xffffff08
410078ac:	fffffaf0 	.word	0xfffffaf0

410078b0 <strtoul>:
410078b0:	e1a0c00d 	mov	ip, sp
410078b4:	e92dd800 	push	{fp, ip, lr, pc}
410078b8:	e24cb004 	sub	fp, ip, #4
410078bc:	e24dd030 	sub	sp, sp, #48	; 0x30
410078c0:	e50b0028 	str	r0, [fp, #-40]	; 0xffffffd8
410078c4:	e50b102c 	str	r1, [fp, #-44]	; 0xffffffd4
410078c8:	e50b2030 	str	r2, [fp, #-48]	; 0xffffffd0
410078cc:	e50b3034 	str	r3, [fp, #-52]	; 0xffffffcc
410078d0:	e3a03000 	mov	r3, #0
410078d4:	e50b3020 	str	r3, [fp, #-32]	; 0xffffffe0
410078d8:	e3a0300a 	mov	r3, #10
410078dc:	e50b3018 	str	r3, [fp, #-24]	; 0xffffffe8
410078e0:	e3a03000 	mov	r3, #0
410078e4:	e50b3014 	str	r3, [fp, #-20]	; 0xffffffec
410078e8:	e3a03000 	mov	r3, #0
410078ec:	e50b3010 	str	r3, [fp, #-16]
410078f0:	e51b2034 	ldr	r2, [fp, #-52]	; 0xffffffcc
410078f4:	e3a03000 	mov	r3, #0
410078f8:	e5823000 	str	r3, [r2]
410078fc:	ea000056 	b	41007a5c <strtoul+0x1ac>
41007900:	e51b3014 	ldr	r3, [fp, #-20]	; 0xffffffec
41007904:	e3530000 	cmp	r3, #0
41007908:	1a000005 	bne	41007924 <strtoul+0x74>
4100790c:	e55b301a 	ldrb	r3, [fp, #-26]	; 0xffffffe6
41007910:	e3530030 	cmp	r3, #48	; 0x30
41007914:	1a000002 	bne	41007924 <strtoul+0x74>
41007918:	e3a03001 	mov	r3, #1
4100791c:	e50b3010 	str	r3, [fp, #-16]
41007920:	ea000047 	b	41007a44 <strtoul+0x194>
41007924:	e51b3010 	ldr	r3, [fp, #-16]
41007928:	e3530000 	cmp	r3, #0
4100792c:	0a00000e 	beq	4100796c <strtoul+0xbc>
41007930:	e51b3014 	ldr	r3, [fp, #-20]	; 0xffffffec
41007934:	e3530001 	cmp	r3, #1
41007938:	1a00000b 	bne	4100796c <strtoul+0xbc>
4100793c:	e55b301a 	ldrb	r3, [fp, #-26]	; 0xffffffe6
41007940:	e3530078 	cmp	r3, #120	; 0x78
41007944:	1a000002 	bne	41007954 <strtoul+0xa4>
41007948:	e3a03010 	mov	r3, #16
4100794c:	e50b3018 	str	r3, [fp, #-24]	; 0xffffffe8
41007950:	ea00003b 	b	41007a44 <strtoul+0x194>
41007954:	e55b301a 	ldrb	r3, [fp, #-26]	; 0xffffffe6
41007958:	e353006f 	cmp	r3, #111	; 0x6f
4100795c:	1a000002 	bne	4100796c <strtoul+0xbc>
41007960:	e3a03008 	mov	r3, #8
41007964:	e50b3018 	str	r3, [fp, #-24]	; 0xffffffe8
41007968:	ea000035 	b	41007a44 <strtoul+0x194>
4100796c:	e55b301a 	ldrb	r3, [fp, #-26]	; 0xffffffe6
41007970:	e353002f 	cmp	r3, #47	; 0x2f
41007974:	9a000006 	bls	41007994 <strtoul+0xe4>
41007978:	e55b301a 	ldrb	r3, [fp, #-26]	; 0xffffffe6
4100797c:	e3530039 	cmp	r3, #57	; 0x39
41007980:	8a000003 	bhi	41007994 <strtoul+0xe4>
41007984:	e55b301a 	ldrb	r3, [fp, #-26]	; 0xffffffe6
41007988:	e2433030 	sub	r3, r3, #48	; 0x30
4100798c:	e54b3019 	strb	r3, [fp, #-25]	; 0xffffffe7
41007990:	ea000019 	b	410079fc <strtoul+0x14c>
41007994:	e55b301a 	ldrb	r3, [fp, #-26]	; 0xffffffe6
41007998:	e3530060 	cmp	r3, #96	; 0x60
4100799c:	9a000006 	bls	410079bc <strtoul+0x10c>
410079a0:	e55b301a 	ldrb	r3, [fp, #-26]	; 0xffffffe6
410079a4:	e353007a 	cmp	r3, #122	; 0x7a
410079a8:	8a000003 	bhi	410079bc <strtoul+0x10c>
410079ac:	e55b301a 	ldrb	r3, [fp, #-26]	; 0xffffffe6
410079b0:	e2433057 	sub	r3, r3, #87	; 0x57
410079b4:	e54b3019 	strb	r3, [fp, #-25]	; 0xffffffe7
410079b8:	ea00000f 	b	410079fc <strtoul+0x14c>
410079bc:	e55b301a 	ldrb	r3, [fp, #-26]	; 0xffffffe6
410079c0:	e3530040 	cmp	r3, #64	; 0x40
410079c4:	9a000006 	bls	410079e4 <strtoul+0x134>
410079c8:	e55b301a 	ldrb	r3, [fp, #-26]	; 0xffffffe6
410079cc:	e353005a 	cmp	r3, #90	; 0x5a
410079d0:	8a000003 	bhi	410079e4 <strtoul+0x134>
410079d4:	e55b301a 	ldrb	r3, [fp, #-26]	; 0xffffffe6
410079d8:	e2433037 	sub	r3, r3, #55	; 0x37
410079dc:	e54b3019 	strb	r3, [fp, #-25]	; 0xffffffe7
410079e0:	ea000005 	b	410079fc <strtoul+0x14c>
410079e4:	e51b2034 	ldr	r2, [fp, #-52]	; 0xffffffcc
410079e8:	e3a03003 	mov	r3, #3
410079ec:	e5823000 	str	r3, [r2]
410079f0:	e3a03000 	mov	r3, #0
410079f4:	e50b3038 	str	r3, [fp, #-56]	; 0xffffffc8
410079f8:	ea00001f 	b	41007a7c <strtoul+0x1cc>
410079fc:	e55b2019 	ldrb	r2, [fp, #-25]	; 0xffffffe7
41007a00:	e51b3018 	ldr	r3, [fp, #-24]	; 0xffffffe8
41007a04:	e1520003 	cmp	r2, r3
41007a08:	ba000005 	blt	41007a24 <strtoul+0x174>
41007a0c:	e51b2034 	ldr	r2, [fp, #-52]	; 0xffffffcc
41007a10:	e3a03004 	mov	r3, #4
41007a14:	e5823000 	str	r3, [r2]
41007a18:	e3a03000 	mov	r3, #0
41007a1c:	e50b3038 	str	r3, [fp, #-56]	; 0xffffffc8
41007a20:	ea000015 	b	41007a7c <strtoul+0x1cc>
41007a24:	e51b2018 	ldr	r2, [fp, #-24]	; 0xffffffe8
41007a28:	e51b3020 	ldr	r3, [fp, #-32]	; 0xffffffe0
41007a2c:	e0030392 	mul	r3, r2, r3
41007a30:	e50b3020 	str	r3, [fp, #-32]	; 0xffffffe0
41007a34:	e55b2019 	ldrb	r2, [fp, #-25]	; 0xffffffe7
41007a38:	e51b3020 	ldr	r3, [fp, #-32]	; 0xffffffe0
41007a3c:	e0833002 	add	r3, r3, r2
41007a40:	e50b3020 	str	r3, [fp, #-32]	; 0xffffffe0
41007a44:	e51b3028 	ldr	r3, [fp, #-40]	; 0xffffffd8
41007a48:	e2833001 	add	r3, r3, #1
41007a4c:	e50b3028 	str	r3, [fp, #-40]	; 0xffffffd8
41007a50:	e51b3014 	ldr	r3, [fp, #-20]	; 0xffffffec
41007a54:	e2833001 	add	r3, r3, #1
41007a58:	e50b3014 	str	r3, [fp, #-20]	; 0xffffffec
41007a5c:	e51b3028 	ldr	r3, [fp, #-40]	; 0xffffffd8
41007a60:	e5d33000 	ldrb	r3, [r3]
41007a64:	e54b301a 	strb	r3, [fp, #-26]	; 0xffffffe6
41007a68:	e55b301a 	ldrb	r3, [fp, #-26]	; 0xffffffe6
41007a6c:	e3530000 	cmp	r3, #0
41007a70:	1affffa2 	bne	41007900 <strtoul+0x50>
41007a74:	e51b3020 	ldr	r3, [fp, #-32]	; 0xffffffe0
41007a78:	e50b3038 	str	r3, [fp, #-56]	; 0xffffffc8
41007a7c:	e51b3038 	ldr	r3, [fp, #-56]	; 0xffffffc8
41007a80:	e1a00003 	mov	r0, r3
41007a84:	e24bd00c 	sub	sp, fp, #12
41007a88:	e89da800 	ldm	sp, {fp, sp, pc}

41007a8c <putnstr>:
41007a8c:	e1a0c00d 	mov	ip, sp
41007a90:	e92dd800 	push	{fp, ip, lr, pc}
41007a94:	e24cb004 	sub	fp, ip, #4
41007a98:	e24dd008 	sub	sp, sp, #8
41007a9c:	e50b0010 	str	r0, [fp, #-16]
41007aa0:	e50b1014 	str	r1, [fp, #-20]	; 0xffffffec
41007aa4:	e51b3010 	ldr	r3, [fp, #-16]
41007aa8:	e3530000 	cmp	r3, #0
41007aac:	0a000011 	beq	41007af8 <putnstr+0x6c>
41007ab0:	ea000009 	b	41007adc <putnstr+0x50>
41007ab4:	e51b3010 	ldr	r3, [fp, #-16]
41007ab8:	e5d33000 	ldrb	r3, [r3]
41007abc:	e1a00003 	mov	r0, r3
41007ac0:	ebfffbf7 	bl	41006aa4 <putc>
41007ac4:	e51b3010 	ldr	r3, [fp, #-16]
41007ac8:	e2833001 	add	r3, r3, #1
41007acc:	e50b3010 	str	r3, [fp, #-16]
41007ad0:	e51b3014 	ldr	r3, [fp, #-20]	; 0xffffffec
41007ad4:	e2433001 	sub	r3, r3, #1
41007ad8:	e50b3014 	str	r3, [fp, #-20]	; 0xffffffec
41007adc:	e51b3014 	ldr	r3, [fp, #-20]	; 0xffffffec
41007ae0:	e3530000 	cmp	r3, #0
41007ae4:	0a000003 	beq	41007af8 <putnstr+0x6c>
41007ae8:	e51b3010 	ldr	r3, [fp, #-16]
41007aec:	e5d33000 	ldrb	r3, [r3]
41007af0:	e3530000 	cmp	r3, #0
41007af4:	1affffee 	bne	41007ab4 <putnstr+0x28>
41007af8:	e24bd00c 	sub	sp, fp, #12
41007afc:	e89da800 	ldm	sp, {fp, sp, pc}

41007b00 <putstr>:
41007b00:	e1a0c00d 	mov	ip, sp
41007b04:	e92dd800 	push	{fp, ip, lr, pc}
41007b08:	e24cb004 	sub	fp, ip, #4
41007b0c:	e24dd008 	sub	sp, sp, #8
41007b10:	e50b0010 	str	r0, [fp, #-16]
41007b14:	e51b0010 	ldr	r0, [fp, #-16]
41007b18:	eb000206 	bl	41008338 <strlen>
41007b1c:	e1a03000 	mov	r3, r0
41007b20:	e51b0010 	ldr	r0, [fp, #-16]
41007b24:	e1a01003 	mov	r1, r3
41007b28:	ebffffd7 	bl	41007a8c <putnstr>
41007b2c:	e24bd00c 	sub	sp, fp, #12
41007b30:	e89da800 	ldm	sp, {fp, sp, pc}

41007b34 <putstr_hex>:
41007b34:	e1a0c00d 	mov	ip, sp
41007b38:	e92dd810 	push	{r4, fp, ip, lr, pc}
41007b3c:	e24cb004 	sub	fp, ip, #4
41007b40:	e24dd01c 	sub	sp, sp, #28
41007b44:	e59f404c 	ldr	r4, [pc, #76]	; 41007b98 <putstr_hex+0x64>
41007b48:	e08f4004 	add	r4, pc, r4
41007b4c:	e50b0028 	str	r0, [fp, #-40]	; 0xffffffd8
41007b50:	e50b102c 	str	r1, [fp, #-44]	; 0xffffffd4
41007b54:	e51b202c 	ldr	r2, [fp, #-44]	; 0xffffffd4
41007b58:	e24b301d 	sub	r3, fp, #29
41007b5c:	e1a00003 	mov	r0, r3
41007b60:	e1a01002 	mov	r1, r2
41007b64:	e3a02004 	mov	r2, #4
41007b68:	ebffff0d 	bl	410077a4 <binarytohex>
41007b6c:	e51b0028 	ldr	r0, [fp, #-40]	; 0xffffffd8
41007b70:	ebffffe2 	bl	41007b00 <putstr>
41007b74:	e24b301d 	sub	r3, fp, #29
41007b78:	e1a00003 	mov	r0, r3
41007b7c:	ebffffdf 	bl	41007b00 <putstr>
41007b80:	e59f3014 	ldr	r3, [pc, #20]	; 41007b9c <putstr_hex+0x68>
41007b84:	e0843003 	add	r3, r4, r3
41007b88:	e1a00003 	mov	r0, r3
41007b8c:	ebffffdb 	bl	41007b00 <putstr>
41007b90:	e24bd010 	sub	sp, fp, #16
41007b94:	e89da810 	ldm	sp, {r4, fp, sp, pc}
41007b98:	00003530 	.word	0x00003530
41007b9c:	fffffb10 	.word	0xfffffb10

41007ba0 <gets>:
41007ba0:	e1a0c00d 	mov	ip, sp
41007ba4:	e92dd800 	push	{fp, ip, lr, pc}
41007ba8:	e24cb004 	sub	fp, ip, #4
41007bac:	e24dd010 	sub	sp, sp, #16
41007bb0:	e59f10e4 	ldr	r1, [pc, #228]	; 41007c9c <gets+0xfc>
41007bb4:	e50b101c 	str	r1, [fp, #-28]	; 0xffffffe4
41007bb8:	e51b201c 	ldr	r2, [fp, #-28]	; 0xffffffe4
41007bbc:	e08f2002 	add	r2, pc, r2
41007bc0:	e50b201c 	str	r2, [fp, #-28]	; 0xffffffe4
41007bc4:	e50b0018 	str	r0, [fp, #-24]	; 0xffffffe8
41007bc8:	e3a03000 	mov	r3, #0
41007bcc:	e50b3014 	str	r3, [fp, #-20]	; 0xffffffec
41007bd0:	ea000024 	b	41007c68 <gets+0xc8>
41007bd4:	e55b300d 	ldrb	r3, [fp, #-13]
41007bd8:	e3530008 	cmp	r3, #8
41007bdc:	0a000010 	beq	41007c24 <gets+0x84>
41007be0:	e51b3014 	ldr	r3, [fp, #-20]	; 0xffffffec
41007be4:	e2833001 	add	r3, r3, #1
41007be8:	e50b3014 	str	r3, [fp, #-20]	; 0xffffffec
41007bec:	e51b2018 	ldr	r2, [fp, #-24]	; 0xffffffe8
41007bf0:	e55b300d 	ldrb	r3, [fp, #-13]
41007bf4:	e5c23000 	strb	r3, [r2]
41007bf8:	e51b3018 	ldr	r3, [fp, #-24]	; 0xffffffe8
41007bfc:	e2833001 	add	r3, r3, #1
41007c00:	e50b3018 	str	r3, [fp, #-24]	; 0xffffffe8
41007c04:	e55b200d 	ldrb	r2, [fp, #-13]
41007c08:	e59f3090 	ldr	r3, [pc, #144]	; 41007ca0 <gets+0x100>
41007c0c:	e51b101c 	ldr	r1, [fp, #-28]	; 0xffffffe4
41007c10:	e0813003 	add	r3, r1, r3
41007c14:	e1a00003 	mov	r0, r3
41007c18:	e1a01002 	mov	r1, r2
41007c1c:	ebfff367 	bl	410049c0 <printk>
41007c20:	ea000010 	b	41007c68 <gets+0xc8>
41007c24:	e51b3014 	ldr	r3, [fp, #-20]	; 0xffffffec
41007c28:	e3530000 	cmp	r3, #0
41007c2c:	da00000d 	ble	41007c68 <gets+0xc8>
41007c30:	e51b3014 	ldr	r3, [fp, #-20]	; 0xffffffec
41007c34:	e2433001 	sub	r3, r3, #1
41007c38:	e50b3014 	str	r3, [fp, #-20]	; 0xffffffec
41007c3c:	e51b2018 	ldr	r2, [fp, #-24]	; 0xffffffe8
41007c40:	e3a03020 	mov	r3, #32
41007c44:	e5c23000 	strb	r3, [r2]
41007c48:	e51b3018 	ldr	r3, [fp, #-24]	; 0xffffffe8
41007c4c:	e2433001 	sub	r3, r3, #1
41007c50:	e50b3018 	str	r3, [fp, #-24]	; 0xffffffe8
41007c54:	e59f3048 	ldr	r3, [pc, #72]	; 41007ca4 <gets+0x104>
41007c58:	e51b201c 	ldr	r2, [fp, #-28]	; 0xffffffe4
41007c5c:	e0823003 	add	r3, r2, r3
41007c60:	e1a00003 	mov	r0, r3
41007c64:	ebfff355 	bl	410049c0 <printk>
41007c68:	ebfffb62 	bl	410069f8 <getc>
41007c6c:	e1a03000 	mov	r3, r0
41007c70:	e54b300d 	strb	r3, [fp, #-13]
41007c74:	e55b300d 	ldrb	r3, [fp, #-13]
41007c78:	e353000d 	cmp	r3, #13
41007c7c:	1affffd4 	bne	41007bd4 <gets+0x34>
41007c80:	e51b2018 	ldr	r2, [fp, #-24]	; 0xffffffe8
41007c84:	e3a03000 	mov	r3, #0
41007c88:	e5c23000 	strb	r3, [r2]
41007c8c:	e51b3014 	ldr	r3, [fp, #-20]	; 0xffffffec
41007c90:	e1a00003 	mov	r0, r3
41007c94:	e24bd00c 	sub	sp, fp, #12
41007c98:	e89da800 	ldm	sp, {fp, sp, pc}
41007c9c:	000034bc 	.word	0x000034bc
41007ca0:	fffffb14 	.word	0xfffffb14
41007ca4:	fffffb18 	.word	0xfffffb18

41007ca8 <get_cmd>:
41007ca8:	e1a0c00d 	mov	ip, sp
41007cac:	e92dd800 	push	{fp, ip, lr, pc}
41007cb0:	e24cb004 	sub	fp, ip, #4
41007cb4:	e24dd010 	sub	sp, sp, #16
41007cb8:	e59f1168 	ldr	r1, [pc, #360]	; 41007e28 <get_cmd+0x180>
41007cbc:	e50b101c 	str	r1, [fp, #-28]	; 0xffffffe4
41007cc0:	e51b201c 	ldr	r2, [fp, #-28]	; 0xffffffe4
41007cc4:	e08f2002 	add	r2, pc, r2
41007cc8:	e50b201c 	str	r2, [fp, #-28]	; 0xffffffe4
41007ccc:	e50b0018 	str	r0, [fp, #-24]	; 0xffffffe8
41007cd0:	e3a03000 	mov	r3, #0
41007cd4:	e50b3014 	str	r3, [fp, #-20]	; 0xffffffec
41007cd8:	ea000045 	b	41007df4 <get_cmd+0x14c>
41007cdc:	e55b300d 	ldrb	r3, [fp, #-13]
41007ce0:	e353001b 	cmp	r3, #27
41007ce4:	1a00001d 	bne	41007d60 <get_cmd+0xb8>
41007ce8:	e51b3018 	ldr	r3, [fp, #-24]	; 0xffffffe8
41007cec:	e5d33000 	ldrb	r3, [r3]
41007cf0:	e353002a 	cmp	r3, #42	; 0x2a
41007cf4:	0a00003e 	beq	41007df4 <get_cmd+0x14c>
41007cf8:	e51b3018 	ldr	r3, [fp, #-24]	; 0xffffffe8
41007cfc:	e5d33000 	ldrb	r3, [r3]
41007d00:	e3530000 	cmp	r3, #0
41007d04:	0a00003a 	beq	41007df4 <get_cmd+0x14c>
41007d08:	e51b3014 	ldr	r3, [fp, #-20]	; 0xffffffec
41007d0c:	e3530000 	cmp	r3, #0
41007d10:	1a000037 	bne	41007df4 <get_cmd+0x14c>
41007d14:	e59f3110 	ldr	r3, [pc, #272]	; 41007e2c <get_cmd+0x184>
41007d18:	e51b101c 	ldr	r1, [fp, #-28]	; 0xffffffe4
41007d1c:	e0813003 	add	r3, r1, r3
41007d20:	e1a00003 	mov	r0, r3
41007d24:	e51b1018 	ldr	r1, [fp, #-24]	; 0xffffffe8
41007d28:	ebfff324 	bl	410049c0 <printk>
41007d2c:	ea000005 	b	41007d48 <get_cmd+0xa0>
41007d30:	e51b3018 	ldr	r3, [fp, #-24]	; 0xffffffe8
41007d34:	e2833001 	add	r3, r3, #1
41007d38:	e50b3018 	str	r3, [fp, #-24]	; 0xffffffe8
41007d3c:	e51b3014 	ldr	r3, [fp, #-20]	; 0xffffffec
41007d40:	e2833001 	add	r3, r3, #1
41007d44:	e50b3014 	str	r3, [fp, #-20]	; 0xffffffec
41007d48:	e51b3018 	ldr	r3, [fp, #-24]	; 0xffffffe8
41007d4c:	e5d33000 	ldrb	r3, [r3]
41007d50:	e3530000 	cmp	r3, #0
41007d54:	1afffff5 	bne	41007d30 <get_cmd+0x88>
41007d58:	ebfffb26 	bl	410069f8 <getc>
41007d5c:	ea000024 	b	41007df4 <get_cmd+0x14c>
41007d60:	e55b300d 	ldrb	r3, [fp, #-13]
41007d64:	e3530008 	cmp	r3, #8
41007d68:	0a000010 	beq	41007db0 <get_cmd+0x108>
41007d6c:	e51b3014 	ldr	r3, [fp, #-20]	; 0xffffffec
41007d70:	e2833001 	add	r3, r3, #1
41007d74:	e50b3014 	str	r3, [fp, #-20]	; 0xffffffec
41007d78:	e51b2018 	ldr	r2, [fp, #-24]	; 0xffffffe8
41007d7c:	e55b300d 	ldrb	r3, [fp, #-13]
41007d80:	e5c23000 	strb	r3, [r2]
41007d84:	e51b3018 	ldr	r3, [fp, #-24]	; 0xffffffe8
41007d88:	e2833001 	add	r3, r3, #1
41007d8c:	e50b3018 	str	r3, [fp, #-24]	; 0xffffffe8
41007d90:	e55b200d 	ldrb	r2, [fp, #-13]
41007d94:	e59f3094 	ldr	r3, [pc, #148]	; 41007e30 <get_cmd+0x188>
41007d98:	e51b101c 	ldr	r1, [fp, #-28]	; 0xffffffe4
41007d9c:	e0813003 	add	r3, r1, r3
41007da0:	e1a00003 	mov	r0, r3
41007da4:	e1a01002 	mov	r1, r2
41007da8:	ebfff304 	bl	410049c0 <printk>
41007dac:	ea000010 	b	41007df4 <get_cmd+0x14c>
41007db0:	e51b3014 	ldr	r3, [fp, #-20]	; 0xffffffec
41007db4:	e3530000 	cmp	r3, #0
41007db8:	da00000d 	ble	41007df4 <get_cmd+0x14c>
41007dbc:	e51b3014 	ldr	r3, [fp, #-20]	; 0xffffffec
41007dc0:	e2433001 	sub	r3, r3, #1
41007dc4:	e50b3014 	str	r3, [fp, #-20]	; 0xffffffec
41007dc8:	e51b2018 	ldr	r2, [fp, #-24]	; 0xffffffe8
41007dcc:	e3a03020 	mov	r3, #32
41007dd0:	e5c23000 	strb	r3, [r2]
41007dd4:	e51b3018 	ldr	r3, [fp, #-24]	; 0xffffffe8
41007dd8:	e2433001 	sub	r3, r3, #1
41007ddc:	e50b3018 	str	r3, [fp, #-24]	; 0xffffffe8
41007de0:	e59f304c 	ldr	r3, [pc, #76]	; 41007e34 <get_cmd+0x18c>
41007de4:	e51b201c 	ldr	r2, [fp, #-28]	; 0xffffffe4
41007de8:	e0823003 	add	r3, r2, r3
41007dec:	e1a00003 	mov	r0, r3
41007df0:	ebfff2f2 	bl	410049c0 <printk>
41007df4:	ebfffaff 	bl	410069f8 <getc>
41007df8:	e1a03000 	mov	r3, r0
41007dfc:	e54b300d 	strb	r3, [fp, #-13]
41007e00:	e55b300d 	ldrb	r3, [fp, #-13]
41007e04:	e353000d 	cmp	r3, #13
41007e08:	1affffb3 	bne	41007cdc <get_cmd+0x34>
41007e0c:	e51b2018 	ldr	r2, [fp, #-24]	; 0xffffffe8
41007e10:	e3a03000 	mov	r3, #0
41007e14:	e5c23000 	strb	r3, [r2]
41007e18:	e51b3014 	ldr	r3, [fp, #-20]	; 0xffffffec
41007e1c:	e1a00003 	mov	r0, r3
41007e20:	e24bd00c 	sub	sp, fp, #12
41007e24:	e89da800 	ldm	sp, {fp, sp, pc}
41007e28:	000033b4 	.word	0x000033b4
41007e2c:	fffffb1c 	.word	0xfffffb1c
41007e30:	fffffb14 	.word	0xfffffb14
41007e34:	fffffb18 	.word	0xfffffb18

41007e38 <strnicmp>:
41007e38:	e1a0c00d 	mov	ip, sp
41007e3c:	e92dd800 	push	{fp, ip, lr, pc}
41007e40:	e24cb004 	sub	fp, ip, #4
41007e44:	e24dd018 	sub	sp, sp, #24
41007e48:	e50b0018 	str	r0, [fp, #-24]	; 0xffffffe8
41007e4c:	e50b101c 	str	r1, [fp, #-28]	; 0xffffffe4
41007e50:	e50b2020 	str	r2, [fp, #-32]	; 0xffffffe0
41007e54:	e3a03000 	mov	r3, #0
41007e58:	e54b300e 	strb	r3, [fp, #-14]
41007e5c:	e3a03000 	mov	r3, #0
41007e60:	e54b300d 	strb	r3, [fp, #-13]
41007e64:	e51b3020 	ldr	r3, [fp, #-32]	; 0xffffffe0
41007e68:	e3530000 	cmp	r3, #0
41007e6c:	0a000029 	beq	41007f18 <strnicmp+0xe0>
41007e70:	e51b3018 	ldr	r3, [fp, #-24]	; 0xffffffe8
41007e74:	e5d33000 	ldrb	r3, [r3]
41007e78:	e54b300e 	strb	r3, [fp, #-14]
41007e7c:	e51b301c 	ldr	r3, [fp, #-28]	; 0xffffffe4
41007e80:	e5d33000 	ldrb	r3, [r3]
41007e84:	e54b300d 	strb	r3, [fp, #-13]
41007e88:	e51b3018 	ldr	r3, [fp, #-24]	; 0xffffffe8
41007e8c:	e2833001 	add	r3, r3, #1
41007e90:	e50b3018 	str	r3, [fp, #-24]	; 0xffffffe8
41007e94:	e51b301c 	ldr	r3, [fp, #-28]	; 0xffffffe4
41007e98:	e2833001 	add	r3, r3, #1
41007e9c:	e50b301c 	str	r3, [fp, #-28]	; 0xffffffe4
41007ea0:	e55b300e 	ldrb	r3, [fp, #-14]
41007ea4:	e3530000 	cmp	r3, #0
41007ea8:	0a00001a 	beq	41007f18 <strnicmp+0xe0>
41007eac:	e55b300d 	ldrb	r3, [fp, #-13]
41007eb0:	e3530000 	cmp	r3, #0
41007eb4:	0a000017 	beq	41007f18 <strnicmp+0xe0>
41007eb8:	e55b200e 	ldrb	r2, [fp, #-14]
41007ebc:	e55b300d 	ldrb	r3, [fp, #-13]
41007ec0:	e1520003 	cmp	r2, r3
41007ec4:	0a00000d 	beq	41007f00 <strnicmp+0xc8>
41007ec8:	e55b300e 	ldrb	r3, [fp, #-14]
41007ecc:	e1a00003 	mov	r0, r3
41007ed0:	ebfffdc1 	bl	410075dc <__tolower>
41007ed4:	e1a03000 	mov	r3, r0
41007ed8:	e54b300e 	strb	r3, [fp, #-14]
41007edc:	e55b300d 	ldrb	r3, [fp, #-13]
41007ee0:	e1a00003 	mov	r0, r3
41007ee4:	ebfffdbc 	bl	410075dc <__tolower>
41007ee8:	e1a03000 	mov	r3, r0
41007eec:	e54b300d 	strb	r3, [fp, #-13]
41007ef0:	e55b200e 	ldrb	r2, [fp, #-14]
41007ef4:	e55b300d 	ldrb	r3, [fp, #-13]
41007ef8:	e1520003 	cmp	r2, r3
41007efc:	1a000005 	bne	41007f18 <strnicmp+0xe0>
41007f00:	e51b3020 	ldr	r3, [fp, #-32]	; 0xffffffe0
41007f04:	e2433001 	sub	r3, r3, #1
41007f08:	e50b3020 	str	r3, [fp, #-32]	; 0xffffffe0
41007f0c:	e51b3020 	ldr	r3, [fp, #-32]	; 0xffffffe0
41007f10:	e3530000 	cmp	r3, #0
41007f14:	1affffd5 	bne	41007e70 <strnicmp+0x38>
41007f18:	e55b200e 	ldrb	r2, [fp, #-14]
41007f1c:	e55b300d 	ldrb	r3, [fp, #-13]
41007f20:	e0633002 	rsb	r3, r3, r2
41007f24:	e1a00003 	mov	r0, r3
41007f28:	e24bd00c 	sub	sp, fp, #12
41007f2c:	e89da800 	ldm	sp, {fp, sp, pc}

41007f30 <strcpy>:
41007f30:	e1a0c00d 	mov	ip, sp
41007f34:	e92dd800 	push	{fp, ip, lr, pc}
41007f38:	e24cb004 	sub	fp, ip, #4
41007f3c:	e24dd010 	sub	sp, sp, #16
41007f40:	e50b0018 	str	r0, [fp, #-24]	; 0xffffffe8
41007f44:	e50b101c 	str	r1, [fp, #-28]	; 0xffffffe4
41007f48:	e51b3018 	ldr	r3, [fp, #-24]	; 0xffffffe8
41007f4c:	e50b3010 	str	r3, [fp, #-16]
41007f50:	e51b301c 	ldr	r3, [fp, #-28]	; 0xffffffe4
41007f54:	e5d33000 	ldrb	r3, [r3]
41007f58:	e51b2018 	ldr	r2, [fp, #-24]	; 0xffffffe8
41007f5c:	e5c23000 	strb	r3, [r2]
41007f60:	e51b3018 	ldr	r3, [fp, #-24]	; 0xffffffe8
41007f64:	e5d33000 	ldrb	r3, [r3]
41007f68:	e3530000 	cmp	r3, #0
41007f6c:	03a03000 	moveq	r3, #0
41007f70:	13a03001 	movne	r3, #1
41007f74:	e20320ff 	and	r2, r3, #255	; 0xff
41007f78:	e51b3018 	ldr	r3, [fp, #-24]	; 0xffffffe8
41007f7c:	e2833001 	add	r3, r3, #1
41007f80:	e50b3018 	str	r3, [fp, #-24]	; 0xffffffe8
41007f84:	e51b301c 	ldr	r3, [fp, #-28]	; 0xffffffe4
41007f88:	e2833001 	add	r3, r3, #1
41007f8c:	e50b301c 	str	r3, [fp, #-28]	; 0xffffffe4
41007f90:	e3520000 	cmp	r2, #0
41007f94:	1affffed 	bne	41007f50 <strcpy+0x20>
41007f98:	e51b3010 	ldr	r3, [fp, #-16]
41007f9c:	e1a00003 	mov	r0, r3
41007fa0:	e24bd00c 	sub	sp, fp, #12
41007fa4:	e89da800 	ldm	sp, {fp, sp, pc}

41007fa8 <strncpy>:
41007fa8:	e1a0c00d 	mov	ip, sp
41007fac:	e92dd800 	push	{fp, ip, lr, pc}
41007fb0:	e24cb004 	sub	fp, ip, #4
41007fb4:	e24dd018 	sub	sp, sp, #24
41007fb8:	e50b0018 	str	r0, [fp, #-24]	; 0xffffffe8
41007fbc:	e50b101c 	str	r1, [fp, #-28]	; 0xffffffe4
41007fc0:	e50b2020 	str	r2, [fp, #-32]	; 0xffffffe0
41007fc4:	e51b3018 	ldr	r3, [fp, #-24]	; 0xffffffe8
41007fc8:	e50b3010 	str	r3, [fp, #-16]
41007fcc:	e51b3020 	ldr	r3, [fp, #-32]	; 0xffffffe0
41007fd0:	e3530000 	cmp	r3, #0
41007fd4:	03a03000 	moveq	r3, #0
41007fd8:	13a03001 	movne	r3, #1
41007fdc:	e20320ff 	and	r2, r3, #255	; 0xff
41007fe0:	e51b3020 	ldr	r3, [fp, #-32]	; 0xffffffe0
41007fe4:	e2433001 	sub	r3, r3, #1
41007fe8:	e50b3020 	str	r3, [fp, #-32]	; 0xffffffe0
41007fec:	e2223001 	eor	r3, r2, #1
41007ff0:	e20330ff 	and	r3, r3, #255	; 0xff
41007ff4:	e3530000 	cmp	r3, #0
41007ff8:	1a000011 	bne	41008044 <strncpy+0x9c>
41007ffc:	e51b301c 	ldr	r3, [fp, #-28]	; 0xffffffe4
41008000:	e5d33000 	ldrb	r3, [r3]
41008004:	e51b2018 	ldr	r2, [fp, #-24]	; 0xffffffe8
41008008:	e5c23000 	strb	r3, [r2]
4100800c:	e51b3018 	ldr	r3, [fp, #-24]	; 0xffffffe8
41008010:	e5d33000 	ldrb	r3, [r3]
41008014:	e3530000 	cmp	r3, #0
41008018:	03a03000 	moveq	r3, #0
4100801c:	13a03001 	movne	r3, #1
41008020:	e20320ff 	and	r2, r3, #255	; 0xff
41008024:	e51b3018 	ldr	r3, [fp, #-24]	; 0xffffffe8
41008028:	e2833001 	add	r3, r3, #1
4100802c:	e50b3018 	str	r3, [fp, #-24]	; 0xffffffe8
41008030:	e51b301c 	ldr	r3, [fp, #-28]	; 0xffffffe4
41008034:	e2833001 	add	r3, r3, #1
41008038:	e50b301c 	str	r3, [fp, #-28]	; 0xffffffe4
4100803c:	e3520000 	cmp	r2, #0
41008040:	1affffe1 	bne	41007fcc <strncpy+0x24>
41008044:	e51b3010 	ldr	r3, [fp, #-16]
41008048:	e1a00003 	mov	r0, r3
4100804c:	e24bd00c 	sub	sp, fp, #12
41008050:	e89da800 	ldm	sp, {fp, sp, pc}

41008054 <strcat>:
41008054:	e1a0c00d 	mov	ip, sp
41008058:	e92dd800 	push	{fp, ip, lr, pc}
4100805c:	e24cb004 	sub	fp, ip, #4
41008060:	e24dd010 	sub	sp, sp, #16
41008064:	e50b0018 	str	r0, [fp, #-24]	; 0xffffffe8
41008068:	e50b101c 	str	r1, [fp, #-28]	; 0xffffffe4
4100806c:	e51b3018 	ldr	r3, [fp, #-24]	; 0xffffffe8
41008070:	e50b3010 	str	r3, [fp, #-16]
41008074:	ea000002 	b	41008084 <strcat+0x30>
41008078:	e51b3018 	ldr	r3, [fp, #-24]	; 0xffffffe8
4100807c:	e2833001 	add	r3, r3, #1
41008080:	e50b3018 	str	r3, [fp, #-24]	; 0xffffffe8
41008084:	e51b3018 	ldr	r3, [fp, #-24]	; 0xffffffe8
41008088:	e5d33000 	ldrb	r3, [r3]
4100808c:	e3530000 	cmp	r3, #0
41008090:	1afffff8 	bne	41008078 <strcat+0x24>
41008094:	e51b301c 	ldr	r3, [fp, #-28]	; 0xffffffe4
41008098:	e5d33000 	ldrb	r3, [r3]
4100809c:	e51b2018 	ldr	r2, [fp, #-24]	; 0xffffffe8
410080a0:	e5c23000 	strb	r3, [r2]
410080a4:	e51b3018 	ldr	r3, [fp, #-24]	; 0xffffffe8
410080a8:	e5d33000 	ldrb	r3, [r3]
410080ac:	e3530000 	cmp	r3, #0
410080b0:	03a03000 	moveq	r3, #0
410080b4:	13a03001 	movne	r3, #1
410080b8:	e20320ff 	and	r2, r3, #255	; 0xff
410080bc:	e51b3018 	ldr	r3, [fp, #-24]	; 0xffffffe8
410080c0:	e2833001 	add	r3, r3, #1
410080c4:	e50b3018 	str	r3, [fp, #-24]	; 0xffffffe8
410080c8:	e51b301c 	ldr	r3, [fp, #-28]	; 0xffffffe4
410080cc:	e2833001 	add	r3, r3, #1
410080d0:	e50b301c 	str	r3, [fp, #-28]	; 0xffffffe4
410080d4:	e3520000 	cmp	r2, #0
410080d8:	1affffed 	bne	41008094 <strcat+0x40>
410080dc:	e51b3010 	ldr	r3, [fp, #-16]
410080e0:	e1a00003 	mov	r0, r3
410080e4:	e24bd00c 	sub	sp, fp, #12
410080e8:	e89da800 	ldm	sp, {fp, sp, pc}

410080ec <strncat>:
410080ec:	e1a0c00d 	mov	ip, sp
410080f0:	e92dd800 	push	{fp, ip, lr, pc}
410080f4:	e24cb004 	sub	fp, ip, #4
410080f8:	e24dd018 	sub	sp, sp, #24
410080fc:	e50b0018 	str	r0, [fp, #-24]	; 0xffffffe8
41008100:	e50b101c 	str	r1, [fp, #-28]	; 0xffffffe4
41008104:	e50b2020 	str	r2, [fp, #-32]	; 0xffffffe0
41008108:	e51b3018 	ldr	r3, [fp, #-24]	; 0xffffffe8
4100810c:	e50b3010 	str	r3, [fp, #-16]
41008110:	e51b3020 	ldr	r3, [fp, #-32]	; 0xffffffe0
41008114:	e3530000 	cmp	r3, #0
41008118:	0a000024 	beq	410081b0 <strncat+0xc4>
4100811c:	ea000002 	b	4100812c <strncat+0x40>
41008120:	e51b3018 	ldr	r3, [fp, #-24]	; 0xffffffe8
41008124:	e2833001 	add	r3, r3, #1
41008128:	e50b3018 	str	r3, [fp, #-24]	; 0xffffffe8
4100812c:	e51b3018 	ldr	r3, [fp, #-24]	; 0xffffffe8
41008130:	e5d33000 	ldrb	r3, [r3]
41008134:	e3530000 	cmp	r3, #0
41008138:	1afffff8 	bne	41008120 <strncat+0x34>
4100813c:	ea000009 	b	41008168 <strncat+0x7c>
41008140:	e51b3020 	ldr	r3, [fp, #-32]	; 0xffffffe0
41008144:	e2433001 	sub	r3, r3, #1
41008148:	e50b3020 	str	r3, [fp, #-32]	; 0xffffffe0
4100814c:	e51b3020 	ldr	r3, [fp, #-32]	; 0xffffffe0
41008150:	e3530000 	cmp	r3, #0
41008154:	1a000003 	bne	41008168 <strncat+0x7c>
41008158:	e51b3018 	ldr	r3, [fp, #-24]	; 0xffffffe8
4100815c:	e3a02000 	mov	r2, #0
41008160:	e5c32000 	strb	r2, [r3]
41008164:	ea000011 	b	410081b0 <strncat+0xc4>
41008168:	e51b301c 	ldr	r3, [fp, #-28]	; 0xffffffe4
4100816c:	e5d33000 	ldrb	r3, [r3]
41008170:	e51b2018 	ldr	r2, [fp, #-24]	; 0xffffffe8
41008174:	e5c23000 	strb	r3, [r2]
41008178:	e51b3018 	ldr	r3, [fp, #-24]	; 0xffffffe8
4100817c:	e5d33000 	ldrb	r3, [r3]
41008180:	e3530000 	cmp	r3, #0
41008184:	03a03000 	moveq	r3, #0
41008188:	13a03001 	movne	r3, #1
4100818c:	e20320ff 	and	r2, r3, #255	; 0xff
41008190:	e51b3018 	ldr	r3, [fp, #-24]	; 0xffffffe8
41008194:	e2833001 	add	r3, r3, #1
41008198:	e50b3018 	str	r3, [fp, #-24]	; 0xffffffe8
4100819c:	e51b301c 	ldr	r3, [fp, #-28]	; 0xffffffe4
410081a0:	e2833001 	add	r3, r3, #1
410081a4:	e50b301c 	str	r3, [fp, #-28]	; 0xffffffe4
410081a8:	e3520000 	cmp	r2, #0
410081ac:	1affffe3 	bne	41008140 <strncat+0x54>
410081b0:	e51b3010 	ldr	r3, [fp, #-16]
410081b4:	e1a00003 	mov	r0, r3
410081b8:	e24bd00c 	sub	sp, fp, #12
410081bc:	e89da800 	ldm	sp, {fp, sp, pc}

410081c0 <strcmp>:
410081c0:	e1a0c00d 	mov	ip, sp
410081c4:	e92dd800 	push	{fp, ip, lr, pc}
410081c8:	e24cb004 	sub	fp, ip, #4
410081cc:	e24dd010 	sub	sp, sp, #16
410081d0:	e50b0010 	str	r0, [fp, #-16]
410081d4:	e50b1014 	str	r1, [fp, #-20]	; 0xffffffec
410081d8:	e51b3010 	ldr	r3, [fp, #-16]
410081dc:	e5d32000 	ldrb	r2, [r3]
410081e0:	e51b3014 	ldr	r3, [fp, #-20]	; 0xffffffec
410081e4:	e5d33000 	ldrb	r3, [r3]
410081e8:	e0633002 	rsb	r3, r3, r2
410081ec:	e20330ff 	and	r3, r3, #255	; 0xff
410081f0:	e50b3018 	str	r3, [fp, #-24]	; 0xffffffe8
410081f4:	e51b2018 	ldr	r2, [fp, #-24]	; 0xffffffe8
410081f8:	e1a03c02 	lsl	r3, r2, #24
410081fc:	e1a03c43 	asr	r3, r3, #24
41008200:	e3530000 	cmp	r3, #0
41008204:	03a03000 	moveq	r3, #0
41008208:	13a03001 	movne	r3, #1
4100820c:	e20320ff 	and	r2, r3, #255	; 0xff
41008210:	e51b3014 	ldr	r3, [fp, #-20]	; 0xffffffec
41008214:	e2833001 	add	r3, r3, #1
41008218:	e50b3014 	str	r3, [fp, #-20]	; 0xffffffec
4100821c:	e3520000 	cmp	r2, #0
41008220:	1a00000a 	bne	41008250 <strcmp+0x90>
41008224:	e51b3010 	ldr	r3, [fp, #-16]
41008228:	e5d33000 	ldrb	r3, [r3]
4100822c:	e3530000 	cmp	r3, #0
41008230:	13a03000 	movne	r3, #0
41008234:	03a03001 	moveq	r3, #1
41008238:	e20320ff 	and	r2, r3, #255	; 0xff
4100823c:	e51b3010 	ldr	r3, [fp, #-16]
41008240:	e2833001 	add	r3, r3, #1
41008244:	e50b3010 	str	r3, [fp, #-16]
41008248:	e3520000 	cmp	r2, #0
4100824c:	0affffe1 	beq	410081d8 <strcmp+0x18>
41008250:	e51b2018 	ldr	r2, [fp, #-24]	; 0xffffffe8
41008254:	e1a03c02 	lsl	r3, r2, #24
41008258:	e1a03c43 	asr	r3, r3, #24
4100825c:	e1a00003 	mov	r0, r3
41008260:	e24bd00c 	sub	sp, fp, #12
41008264:	e89da800 	ldm	sp, {fp, sp, pc}

41008268 <strncmp>:
41008268:	e1a0c00d 	mov	ip, sp
4100826c:	e92dd800 	push	{fp, ip, lr, pc}
41008270:	e24cb004 	sub	fp, ip, #4
41008274:	e24dd010 	sub	sp, sp, #16
41008278:	e50b0010 	str	r0, [fp, #-16]
4100827c:	e50b1014 	str	r1, [fp, #-20]	; 0xffffffec
41008280:	e50b2018 	str	r2, [fp, #-24]	; 0xffffffe8
41008284:	e3a02000 	mov	r2, #0
41008288:	e50b201c 	str	r2, [fp, #-28]	; 0xffffffe4
4100828c:	ea000020 	b	41008314 <strncmp+0xac>
41008290:	e51b3010 	ldr	r3, [fp, #-16]
41008294:	e5d32000 	ldrb	r2, [r3]
41008298:	e51b3014 	ldr	r3, [fp, #-20]	; 0xffffffec
4100829c:	e5d33000 	ldrb	r3, [r3]
410082a0:	e0633002 	rsb	r3, r3, r2
410082a4:	e20330ff 	and	r3, r3, #255	; 0xff
410082a8:	e50b301c 	str	r3, [fp, #-28]	; 0xffffffe4
410082ac:	e51b201c 	ldr	r2, [fp, #-28]	; 0xffffffe4
410082b0:	e1a03c02 	lsl	r3, r2, #24
410082b4:	e1a03c43 	asr	r3, r3, #24
410082b8:	e3530000 	cmp	r3, #0
410082bc:	03a03000 	moveq	r3, #0
410082c0:	13a03001 	movne	r3, #1
410082c4:	e20320ff 	and	r2, r3, #255	; 0xff
410082c8:	e51b3014 	ldr	r3, [fp, #-20]	; 0xffffffec
410082cc:	e2833001 	add	r3, r3, #1
410082d0:	e50b3014 	str	r3, [fp, #-20]	; 0xffffffec
410082d4:	e3520000 	cmp	r2, #0
410082d8:	1a000010 	bne	41008320 <strncmp+0xb8>
410082dc:	e51b3010 	ldr	r3, [fp, #-16]
410082e0:	e5d33000 	ldrb	r3, [r3]
410082e4:	e3530000 	cmp	r3, #0
410082e8:	13a03000 	movne	r3, #0
410082ec:	03a03001 	moveq	r3, #1
410082f0:	e20320ff 	and	r2, r3, #255	; 0xff
410082f4:	e51b3010 	ldr	r3, [fp, #-16]
410082f8:	e2833001 	add	r3, r3, #1
410082fc:	e50b3010 	str	r3, [fp, #-16]
41008300:	e3520000 	cmp	r2, #0
41008304:	1a000005 	bne	41008320 <strncmp+0xb8>
41008308:	e51b3018 	ldr	r3, [fp, #-24]	; 0xffffffe8
4100830c:	e2433001 	sub	r3, r3, #1
41008310:	e50b3018 	str	r3, [fp, #-24]	; 0xffffffe8
41008314:	e51b3018 	ldr	r3, [fp, #-24]	; 0xffffffe8
41008318:	e3530000 	cmp	r3, #0
4100831c:	1affffdb 	bne	41008290 <strncmp+0x28>
41008320:	e51b201c 	ldr	r2, [fp, #-28]	; 0xffffffe4
41008324:	e1a03c02 	lsl	r3, r2, #24
41008328:	e1a03c43 	asr	r3, r3, #24
4100832c:	e1a00003 	mov	r0, r3
41008330:	e24bd00c 	sub	sp, fp, #12
41008334:	e89da800 	ldm	sp, {fp, sp, pc}

41008338 <strlen>:
41008338:	e1a0c00d 	mov	ip, sp
4100833c:	e92dd800 	push	{fp, ip, lr, pc}
41008340:	e24cb004 	sub	fp, ip, #4
41008344:	e24dd010 	sub	sp, sp, #16
41008348:	e50b0018 	str	r0, [fp, #-24]	; 0xffffffe8
4100834c:	e51b3018 	ldr	r3, [fp, #-24]	; 0xffffffe8
41008350:	e50b3010 	str	r3, [fp, #-16]
41008354:	ea000002 	b	41008364 <strlen+0x2c>
41008358:	e51b3010 	ldr	r3, [fp, #-16]
4100835c:	e2833001 	add	r3, r3, #1
41008360:	e50b3010 	str	r3, [fp, #-16]
41008364:	e51b3010 	ldr	r3, [fp, #-16]
41008368:	e5d33000 	ldrb	r3, [r3]
4100836c:	e3530000 	cmp	r3, #0
41008370:	1afffff8 	bne	41008358 <strlen+0x20>
41008374:	e51b2010 	ldr	r2, [fp, #-16]
41008378:	e51b3018 	ldr	r3, [fp, #-24]	; 0xffffffe8
4100837c:	e0633002 	rsb	r3, r3, r2
41008380:	e1a00003 	mov	r0, r3
41008384:	e24bd00c 	sub	sp, fp, #12
41008388:	e89da800 	ldm	sp, {fp, sp, pc}

4100838c <strnlen>:
4100838c:	e1a0c00d 	mov	ip, sp
41008390:	e92dd800 	push	{fp, ip, lr, pc}
41008394:	e24cb004 	sub	fp, ip, #4
41008398:	e24dd010 	sub	sp, sp, #16
4100839c:	e50b0018 	str	r0, [fp, #-24]	; 0xffffffe8
410083a0:	e50b101c 	str	r1, [fp, #-28]	; 0xffffffe4
410083a4:	e51b3018 	ldr	r3, [fp, #-24]	; 0xffffffe8
410083a8:	e50b3010 	str	r3, [fp, #-16]
410083ac:	ea000002 	b	410083bc <strnlen+0x30>
410083b0:	e51b3010 	ldr	r3, [fp, #-16]
410083b4:	e2833001 	add	r3, r3, #1
410083b8:	e50b3010 	str	r3, [fp, #-16]
410083bc:	e51b301c 	ldr	r3, [fp, #-28]	; 0xffffffe4
410083c0:	e3530000 	cmp	r3, #0
410083c4:	03a03000 	moveq	r3, #0
410083c8:	13a03001 	movne	r3, #1
410083cc:	e20320ff 	and	r2, r3, #255	; 0xff
410083d0:	e51b301c 	ldr	r3, [fp, #-28]	; 0xffffffe4
410083d4:	e2433001 	sub	r3, r3, #1
410083d8:	e50b301c 	str	r3, [fp, #-28]	; 0xffffffe4
410083dc:	e2223001 	eor	r3, r2, #1
410083e0:	e20330ff 	and	r3, r3, #255	; 0xff
410083e4:	e3530000 	cmp	r3, #0
410083e8:	1a000003 	bne	410083fc <strnlen+0x70>
410083ec:	e51b3010 	ldr	r3, [fp, #-16]
410083f0:	e5d33000 	ldrb	r3, [r3]
410083f4:	e3530000 	cmp	r3, #0
410083f8:	1affffec 	bne	410083b0 <strnlen+0x24>
410083fc:	e51b2010 	ldr	r2, [fp, #-16]
41008400:	e51b3018 	ldr	r3, [fp, #-24]	; 0xffffffe8
41008404:	e0633002 	rsb	r3, r3, r2
41008408:	e1a00003 	mov	r0, r3
4100840c:	e24bd00c 	sub	sp, fp, #12
41008410:	e89da800 	ldm	sp, {fp, sp, pc}

41008414 <strspn>:
41008414:	e1a0c00d 	mov	ip, sp
41008418:	e92dd800 	push	{fp, ip, lr, pc}
4100841c:	e24cb004 	sub	fp, ip, #4
41008420:	e24dd020 	sub	sp, sp, #32
41008424:	e50b0020 	str	r0, [fp, #-32]	; 0xffffffe0
41008428:	e50b1024 	str	r1, [fp, #-36]	; 0xffffffdc
4100842c:	e3a03000 	mov	r3, #0
41008430:	e50b3010 	str	r3, [fp, #-16]
41008434:	e51b3020 	ldr	r3, [fp, #-32]	; 0xffffffe0
41008438:	e50b3018 	str	r3, [fp, #-24]	; 0xffffffe8
4100843c:	ea00001c 	b	410084b4 <strspn+0xa0>
41008440:	e51b3024 	ldr	r3, [fp, #-36]	; 0xffffffdc
41008444:	e50b3014 	str	r3, [fp, #-20]	; 0xffffffec
41008448:	ea000008 	b	41008470 <strspn+0x5c>
4100844c:	e51b3018 	ldr	r3, [fp, #-24]	; 0xffffffe8
41008450:	e5d32000 	ldrb	r2, [r3]
41008454:	e51b3014 	ldr	r3, [fp, #-20]	; 0xffffffec
41008458:	e5d33000 	ldrb	r3, [r3]
4100845c:	e1520003 	cmp	r2, r3
41008460:	0a000006 	beq	41008480 <strspn+0x6c>
41008464:	e51b3014 	ldr	r3, [fp, #-20]	; 0xffffffec
41008468:	e2833001 	add	r3, r3, #1
4100846c:	e50b3014 	str	r3, [fp, #-20]	; 0xffffffec
41008470:	e51b3014 	ldr	r3, [fp, #-20]	; 0xffffffec
41008474:	e5d33000 	ldrb	r3, [r3]
41008478:	e3530000 	cmp	r3, #0
4100847c:	1afffff2 	bne	4100844c <strspn+0x38>
41008480:	e51b3014 	ldr	r3, [fp, #-20]	; 0xffffffec
41008484:	e5d33000 	ldrb	r3, [r3]
41008488:	e3530000 	cmp	r3, #0
4100848c:	1a000002 	bne	4100849c <strspn+0x88>
41008490:	e51b3010 	ldr	r3, [fp, #-16]
41008494:	e50b3028 	str	r3, [fp, #-40]	; 0xffffffd8
41008498:	ea00000b 	b	410084cc <strspn+0xb8>
4100849c:	e51b3010 	ldr	r3, [fp, #-16]
410084a0:	e2833001 	add	r3, r3, #1
410084a4:	e50b3010 	str	r3, [fp, #-16]
410084a8:	e51b3018 	ldr	r3, [fp, #-24]	; 0xffffffe8
410084ac:	e2833001 	add	r3, r3, #1
410084b0:	e50b3018 	str	r3, [fp, #-24]	; 0xffffffe8
410084b4:	e51b3018 	ldr	r3, [fp, #-24]	; 0xffffffe8
410084b8:	e5d33000 	ldrb	r3, [r3]
410084bc:	e3530000 	cmp	r3, #0
410084c0:	1affffde 	bne	41008440 <strspn+0x2c>
410084c4:	e51b3010 	ldr	r3, [fp, #-16]
410084c8:	e50b3028 	str	r3, [fp, #-40]	; 0xffffffd8
410084cc:	e51b3028 	ldr	r3, [fp, #-40]	; 0xffffffd8
410084d0:	e1a00003 	mov	r0, r3
410084d4:	e24bd00c 	sub	sp, fp, #12
410084d8:	e89da800 	ldm	sp, {fp, sp, pc}

410084dc <strpbrk>:
410084dc:	e1a0c00d 	mov	ip, sp
410084e0:	e92dd800 	push	{fp, ip, lr, pc}
410084e4:	e24cb004 	sub	fp, ip, #4
410084e8:	e24dd018 	sub	sp, sp, #24
410084ec:	e50b0018 	str	r0, [fp, #-24]	; 0xffffffe8
410084f0:	e50b101c 	str	r1, [fp, #-28]	; 0xffffffe4
410084f4:	e51b3018 	ldr	r3, [fp, #-24]	; 0xffffffe8
410084f8:	e50b3014 	str	r3, [fp, #-20]	; 0xffffffec
410084fc:	ea000015 	b	41008558 <strpbrk+0x7c>
41008500:	e51b301c 	ldr	r3, [fp, #-28]	; 0xffffffe4
41008504:	e50b3010 	str	r3, [fp, #-16]
41008508:	ea00000b 	b	4100853c <strpbrk+0x60>
4100850c:	e51b3014 	ldr	r3, [fp, #-20]	; 0xffffffec
41008510:	e5d32000 	ldrb	r2, [r3]
41008514:	e51b3010 	ldr	r3, [fp, #-16]
41008518:	e5d33000 	ldrb	r3, [r3]
4100851c:	e1520003 	cmp	r2, r3
41008520:	1a000002 	bne	41008530 <strpbrk+0x54>
41008524:	e51b3014 	ldr	r3, [fp, #-20]	; 0xffffffec
41008528:	e50b3020 	str	r3, [fp, #-32]	; 0xffffffe0
4100852c:	ea00000f 	b	41008570 <strpbrk+0x94>
41008530:	e51b3010 	ldr	r3, [fp, #-16]
41008534:	e2833001 	add	r3, r3, #1
41008538:	e50b3010 	str	r3, [fp, #-16]
4100853c:	e51b3010 	ldr	r3, [fp, #-16]
41008540:	e5d33000 	ldrb	r3, [r3]
41008544:	e3530000 	cmp	r3, #0
41008548:	1affffef 	bne	4100850c <strpbrk+0x30>
4100854c:	e51b3014 	ldr	r3, [fp, #-20]	; 0xffffffec
41008550:	e2833001 	add	r3, r3, #1
41008554:	e50b3014 	str	r3, [fp, #-20]	; 0xffffffec
41008558:	e51b3014 	ldr	r3, [fp, #-20]	; 0xffffffec
4100855c:	e5d33000 	ldrb	r3, [r3]
41008560:	e3530000 	cmp	r3, #0
41008564:	1affffe5 	bne	41008500 <strpbrk+0x24>
41008568:	e3a03000 	mov	r3, #0
4100856c:	e50b3020 	str	r3, [fp, #-32]	; 0xffffffe0
41008570:	e51b3020 	ldr	r3, [fp, #-32]	; 0xffffffe0
41008574:	e1a00003 	mov	r0, r3
41008578:	e24bd00c 	sub	sp, fp, #12
4100857c:	e89da800 	ldm	sp, {fp, sp, pc}

41008580 <strtok>:
41008580:	e1a0c00d 	mov	ip, sp
41008584:	e92dd800 	push	{fp, ip, lr, pc}
41008588:	e24cb004 	sub	fp, ip, #4
4100858c:	e24dd020 	sub	sp, sp, #32
41008590:	e59f2120 	ldr	r2, [pc, #288]	; 410086b8 <strtok+0x138>
41008594:	e50b2028 	str	r2, [fp, #-40]	; 0xffffffd8
41008598:	e51b3028 	ldr	r3, [fp, #-40]	; 0xffffffd8
4100859c:	e08f3003 	add	r3, pc, r3
410085a0:	e50b3028 	str	r3, [fp, #-40]	; 0xffffffd8
410085a4:	e50b0018 	str	r0, [fp, #-24]	; 0xffffffe8
410085a8:	e50b101c 	str	r1, [fp, #-28]	; 0xffffffe4
410085ac:	e51b3018 	ldr	r3, [fp, #-24]	; 0xffffffe8
410085b0:	e3530000 	cmp	r3, #0
410085b4:	0a000002 	beq	410085c4 <strtok+0x44>
410085b8:	e51b1018 	ldr	r1, [fp, #-24]	; 0xffffffe8
410085bc:	e50b1024 	str	r1, [fp, #-36]	; 0xffffffdc
410085c0:	ea000004 	b	410085d8 <strtok+0x58>
410085c4:	e59f30f0 	ldr	r3, [pc, #240]	; 410086bc <strtok+0x13c>
410085c8:	e51b2028 	ldr	r2, [fp, #-40]	; 0xffffffd8
410085cc:	e7923003 	ldr	r3, [r2, r3]
410085d0:	e5933000 	ldr	r3, [r3]
410085d4:	e50b3024 	str	r3, [fp, #-36]	; 0xffffffdc
410085d8:	e51b3024 	ldr	r3, [fp, #-36]	; 0xffffffdc
410085dc:	e50b3014 	str	r3, [fp, #-20]	; 0xffffffec
410085e0:	e51b3014 	ldr	r3, [fp, #-20]	; 0xffffffec
410085e4:	e3530000 	cmp	r3, #0
410085e8:	1a000002 	bne	410085f8 <strtok+0x78>
410085ec:	e3a01000 	mov	r1, #0
410085f0:	e50b1020 	str	r1, [fp, #-32]	; 0xffffffe0
410085f4:	ea00002b 	b	410086a8 <strtok+0x128>
410085f8:	e51b0014 	ldr	r0, [fp, #-20]	; 0xffffffec
410085fc:	e51b101c 	ldr	r1, [fp, #-28]	; 0xffffffe4
41008600:	ebffff83 	bl	41008414 <strspn>
41008604:	e1a02000 	mov	r2, r0
41008608:	e51b3014 	ldr	r3, [fp, #-20]	; 0xffffffec
4100860c:	e0833002 	add	r3, r3, r2
41008610:	e50b3014 	str	r3, [fp, #-20]	; 0xffffffec
41008614:	e51b3014 	ldr	r3, [fp, #-20]	; 0xffffffec
41008618:	e5d33000 	ldrb	r3, [r3]
4100861c:	e3530000 	cmp	r3, #0
41008620:	1a000007 	bne	41008644 <strtok+0xc4>
41008624:	e59f3090 	ldr	r3, [pc, #144]	; 410086bc <strtok+0x13c>
41008628:	e51b1028 	ldr	r1, [fp, #-40]	; 0xffffffd8
4100862c:	e7912003 	ldr	r2, [r1, r3]
41008630:	e3a03000 	mov	r3, #0
41008634:	e5823000 	str	r3, [r2]
41008638:	e3a02000 	mov	r2, #0
4100863c:	e50b2020 	str	r2, [fp, #-32]	; 0xffffffe0
41008640:	ea000018 	b	410086a8 <strtok+0x128>
41008644:	e51b0014 	ldr	r0, [fp, #-20]	; 0xffffffec
41008648:	e51b101c 	ldr	r1, [fp, #-28]	; 0xffffffe4
4100864c:	ebffffa2 	bl	410084dc <strpbrk>
41008650:	e1a03000 	mov	r3, r0
41008654:	e50b3010 	str	r3, [fp, #-16]
41008658:	e51b3010 	ldr	r3, [fp, #-16]
4100865c:	e3530000 	cmp	r3, #0
41008660:	0a000009 	beq	4100868c <strtok+0x10c>
41008664:	e51b3010 	ldr	r3, [fp, #-16]
41008668:	e5d33000 	ldrb	r3, [r3]
4100866c:	e3530000 	cmp	r3, #0
41008670:	0a000005 	beq	4100868c <strtok+0x10c>
41008674:	e51b2010 	ldr	r2, [fp, #-16]
41008678:	e3a03000 	mov	r3, #0
4100867c:	e5c23000 	strb	r3, [r2]
41008680:	e51b3010 	ldr	r3, [fp, #-16]
41008684:	e2833001 	add	r3, r3, #1
41008688:	e50b3010 	str	r3, [fp, #-16]
4100868c:	e59f3028 	ldr	r3, [pc, #40]	; 410086bc <strtok+0x13c>
41008690:	e51b1028 	ldr	r1, [fp, #-40]	; 0xffffffd8
41008694:	e7912003 	ldr	r2, [r1, r3]
41008698:	e51b3010 	ldr	r3, [fp, #-16]
4100869c:	e5823000 	str	r3, [r2]
410086a0:	e51b2014 	ldr	r2, [fp, #-20]	; 0xffffffec
410086a4:	e50b2020 	str	r2, [fp, #-32]	; 0xffffffe0
410086a8:	e51b3020 	ldr	r3, [fp, #-32]	; 0xffffffe0
410086ac:	e1a00003 	mov	r0, r3
410086b0:	e24bd00c 	sub	sp, fp, #12
410086b4:	e89da800 	ldm	sp, {fp, sp, pc}
410086b8:	00002adc 	.word	0x00002adc
410086bc:	0000002c 	.word	0x0000002c

410086c0 <strsep>:
410086c0:	e1a0c00d 	mov	ip, sp
410086c4:	e92dd800 	push	{fp, ip, lr, pc}
410086c8:	e24cb004 	sub	fp, ip, #4
410086cc:	e24dd018 	sub	sp, sp, #24
410086d0:	e50b0018 	str	r0, [fp, #-24]	; 0xffffffe8
410086d4:	e50b101c 	str	r1, [fp, #-28]	; 0xffffffe4
410086d8:	e51b3018 	ldr	r3, [fp, #-24]	; 0xffffffe8
410086dc:	e5933000 	ldr	r3, [r3]
410086e0:	e50b3014 	str	r3, [fp, #-20]	; 0xffffffec
410086e4:	e51b3014 	ldr	r3, [fp, #-20]	; 0xffffffec
410086e8:	e3530000 	cmp	r3, #0
410086ec:	1a000002 	bne	410086fc <strsep+0x3c>
410086f0:	e3a03000 	mov	r3, #0
410086f4:	e50b3020 	str	r3, [fp, #-32]	; 0xffffffe0
410086f8:	ea000012 	b	41008748 <strsep+0x88>
410086fc:	e51b0014 	ldr	r0, [fp, #-20]	; 0xffffffec
41008700:	e51b101c 	ldr	r1, [fp, #-28]	; 0xffffffe4
41008704:	ebffff74 	bl	410084dc <strpbrk>
41008708:	e1a03000 	mov	r3, r0
4100870c:	e50b3010 	str	r3, [fp, #-16]
41008710:	e51b3010 	ldr	r3, [fp, #-16]
41008714:	e3530000 	cmp	r3, #0
41008718:	0a000005 	beq	41008734 <strsep+0x74>
4100871c:	e51b2010 	ldr	r2, [fp, #-16]
41008720:	e3a03000 	mov	r3, #0
41008724:	e5c23000 	strb	r3, [r2]
41008728:	e51b3010 	ldr	r3, [fp, #-16]
4100872c:	e2833001 	add	r3, r3, #1
41008730:	e50b3010 	str	r3, [fp, #-16]
41008734:	e51b2018 	ldr	r2, [fp, #-24]	; 0xffffffe8
41008738:	e51b3010 	ldr	r3, [fp, #-16]
4100873c:	e5823000 	str	r3, [r2]
41008740:	e51b3014 	ldr	r3, [fp, #-20]	; 0xffffffec
41008744:	e50b3020 	str	r3, [fp, #-32]	; 0xffffffe0
41008748:	e51b3020 	ldr	r3, [fp, #-32]	; 0xffffffe0
4100874c:	e1a00003 	mov	r0, r3
41008750:	e24bd00c 	sub	sp, fp, #12
41008754:	e89da800 	ldm	sp, {fp, sp, pc}

41008758 <bcopy>:
41008758:	e1a0c00d 	mov	ip, sp
4100875c:	e92dd800 	push	{fp, ip, lr, pc}
41008760:	e24cb004 	sub	fp, ip, #4
41008764:	e24dd018 	sub	sp, sp, #24
41008768:	e50b0018 	str	r0, [fp, #-24]	; 0xffffffe8
4100876c:	e50b101c 	str	r1, [fp, #-28]	; 0xffffffe4
41008770:	e50b2020 	str	r2, [fp, #-32]	; 0xffffffe0
41008774:	e51b301c 	ldr	r3, [fp, #-28]	; 0xffffffe4
41008778:	e50b3010 	str	r3, [fp, #-16]
4100877c:	ea000009 	b	410087a8 <bcopy+0x50>
41008780:	e51b3018 	ldr	r3, [fp, #-24]	; 0xffffffe8
41008784:	e5d33000 	ldrb	r3, [r3]
41008788:	e51b2010 	ldr	r2, [fp, #-16]
4100878c:	e5c23000 	strb	r3, [r2]
41008790:	e51b3010 	ldr	r3, [fp, #-16]
41008794:	e2833001 	add	r3, r3, #1
41008798:	e50b3010 	str	r3, [fp, #-16]
4100879c:	e51b3018 	ldr	r3, [fp, #-24]	; 0xffffffe8
410087a0:	e2833001 	add	r3, r3, #1
410087a4:	e50b3018 	str	r3, [fp, #-24]	; 0xffffffe8
410087a8:	e51b3020 	ldr	r3, [fp, #-32]	; 0xffffffe0
410087ac:	e3530000 	cmp	r3, #0
410087b0:	03a03000 	moveq	r3, #0
410087b4:	13a03001 	movne	r3, #1
410087b8:	e20320ff 	and	r2, r3, #255	; 0xff
410087bc:	e51b3020 	ldr	r3, [fp, #-32]	; 0xffffffe0
410087c0:	e2433001 	sub	r3, r3, #1
410087c4:	e50b3020 	str	r3, [fp, #-32]	; 0xffffffe0
410087c8:	e3520000 	cmp	r2, #0
410087cc:	1affffeb 	bne	41008780 <bcopy+0x28>
410087d0:	e51b301c 	ldr	r3, [fp, #-28]	; 0xffffffe4
410087d4:	e1a00003 	mov	r0, r3
410087d8:	e24bd00c 	sub	sp, fp, #12
410087dc:	e89da800 	ldm	sp, {fp, sp, pc}

410087e0 <memcmp>:
410087e0:	e1a0c00d 	mov	ip, sp
410087e4:	e92dd800 	push	{fp, ip, lr, pc}
410087e8:	e24cb004 	sub	fp, ip, #4
410087ec:	e24dd020 	sub	sp, sp, #32
410087f0:	e50b0020 	str	r0, [fp, #-32]	; 0xffffffe0
410087f4:	e50b1024 	str	r1, [fp, #-36]	; 0xffffffdc
410087f8:	e50b2028 	str	r2, [fp, #-40]	; 0xffffffd8
410087fc:	e3a03000 	mov	r3, #0
41008800:	e50b3010 	str	r3, [fp, #-16]
41008804:	e51b3020 	ldr	r3, [fp, #-32]	; 0xffffffe0
41008808:	e50b3018 	str	r3, [fp, #-24]	; 0xffffffe8
4100880c:	e51b3024 	ldr	r3, [fp, #-36]	; 0xffffffdc
41008810:	e50b3014 	str	r3, [fp, #-20]	; 0xffffffec
41008814:	ea000012 	b	41008864 <memcmp+0x84>
41008818:	e51b3018 	ldr	r3, [fp, #-24]	; 0xffffffe8
4100881c:	e5d33000 	ldrb	r3, [r3]
41008820:	e1a02003 	mov	r2, r3
41008824:	e51b3014 	ldr	r3, [fp, #-20]	; 0xffffffec
41008828:	e5d33000 	ldrb	r3, [r3]
4100882c:	e0633002 	rsb	r3, r3, r2
41008830:	e50b3010 	str	r3, [fp, #-16]
41008834:	e51b3010 	ldr	r3, [fp, #-16]
41008838:	e3530000 	cmp	r3, #0
4100883c:	1a00000b 	bne	41008870 <memcmp+0x90>
41008840:	e51b3018 	ldr	r3, [fp, #-24]	; 0xffffffe8
41008844:	e2833001 	add	r3, r3, #1
41008848:	e50b3018 	str	r3, [fp, #-24]	; 0xffffffe8
4100884c:	e51b3014 	ldr	r3, [fp, #-20]	; 0xffffffec
41008850:	e2833001 	add	r3, r3, #1
41008854:	e50b3014 	str	r3, [fp, #-20]	; 0xffffffec
41008858:	e51b3028 	ldr	r3, [fp, #-40]	; 0xffffffd8
4100885c:	e2433001 	sub	r3, r3, #1
41008860:	e50b3028 	str	r3, [fp, #-40]	; 0xffffffd8
41008864:	e51b3028 	ldr	r3, [fp, #-40]	; 0xffffffd8
41008868:	e3530000 	cmp	r3, #0
4100886c:	1affffe9 	bne	41008818 <memcmp+0x38>
41008870:	e51b3010 	ldr	r3, [fp, #-16]
41008874:	e1a00003 	mov	r0, r3
41008878:	e24bd00c 	sub	sp, fp, #12
4100887c:	e89da800 	ldm	sp, {fp, sp, pc}

41008880 <memscan>:
41008880:	e1a0c00d 	mov	ip, sp
41008884:	e92dd800 	push	{fp, ip, lr, pc}
41008888:	e24cb004 	sub	fp, ip, #4
4100888c:	e24dd018 	sub	sp, sp, #24
41008890:	e50b0018 	str	r0, [fp, #-24]	; 0xffffffe8
41008894:	e50b101c 	str	r1, [fp, #-28]	; 0xffffffe4
41008898:	e50b2020 	str	r2, [fp, #-32]	; 0xffffffe0
4100889c:	e51b3018 	ldr	r3, [fp, #-24]	; 0xffffffe8
410088a0:	e50b3010 	str	r3, [fp, #-16]
410088a4:	ea00000e 	b	410088e4 <memscan+0x64>
410088a8:	e51b3010 	ldr	r3, [fp, #-16]
410088ac:	e5d33000 	ldrb	r3, [r3]
410088b0:	e1a02003 	mov	r2, r3
410088b4:	e51b301c 	ldr	r3, [fp, #-28]	; 0xffffffe4
410088b8:	e1520003 	cmp	r2, r3
410088bc:	1a000002 	bne	410088cc <memscan+0x4c>
410088c0:	e51b3010 	ldr	r3, [fp, #-16]
410088c4:	e50b3024 	str	r3, [fp, #-36]	; 0xffffffdc
410088c8:	ea00000a 	b	410088f8 <memscan+0x78>
410088cc:	e51b3010 	ldr	r3, [fp, #-16]
410088d0:	e2833001 	add	r3, r3, #1
410088d4:	e50b3010 	str	r3, [fp, #-16]
410088d8:	e51b3020 	ldr	r3, [fp, #-32]	; 0xffffffe0
410088dc:	e2433001 	sub	r3, r3, #1
410088e0:	e50b3020 	str	r3, [fp, #-32]	; 0xffffffe0
410088e4:	e51b3020 	ldr	r3, [fp, #-32]	; 0xffffffe0
410088e8:	e3530000 	cmp	r3, #0
410088ec:	1affffed 	bne	410088a8 <memscan+0x28>
410088f0:	e51b3010 	ldr	r3, [fp, #-16]
410088f4:	e50b3024 	str	r3, [fp, #-36]	; 0xffffffdc
410088f8:	e51b3024 	ldr	r3, [fp, #-36]	; 0xffffffdc
410088fc:	e1a00003 	mov	r0, r3
41008900:	e24bd00c 	sub	sp, fp, #12
41008904:	e89da800 	ldm	sp, {fp, sp, pc}

41008908 <strstr>:
41008908:	e1a0c00d 	mov	ip, sp
4100890c:	e92dd800 	push	{fp, ip, lr, pc}
41008910:	e24cb004 	sub	fp, ip, #4
41008914:	e24dd018 	sub	sp, sp, #24
41008918:	e50b0018 	str	r0, [fp, #-24]	; 0xffffffe8
4100891c:	e50b101c 	str	r1, [fp, #-28]	; 0xffffffe4
41008920:	e51b001c 	ldr	r0, [fp, #-28]	; 0xffffffe4
41008924:	ebfffe83 	bl	41008338 <strlen>
41008928:	e1a03000 	mov	r3, r0
4100892c:	e50b3010 	str	r3, [fp, #-16]
41008930:	e51b3010 	ldr	r3, [fp, #-16]
41008934:	e3530000 	cmp	r3, #0
41008938:	1a000002 	bne	41008948 <strstr+0x40>
4100893c:	e51b3018 	ldr	r3, [fp, #-24]	; 0xffffffe8
41008940:	e50b3020 	str	r3, [fp, #-32]	; 0xffffffe0
41008944:	ea00001b 	b	410089b8 <strstr+0xb0>
41008948:	e51b0018 	ldr	r0, [fp, #-24]	; 0xffffffe8
4100894c:	ebfffe79 	bl	41008338 <strlen>
41008950:	e1a03000 	mov	r3, r0
41008954:	e50b3014 	str	r3, [fp, #-20]	; 0xffffffec
41008958:	ea000010 	b	410089a0 <strstr+0x98>
4100895c:	e51b3014 	ldr	r3, [fp, #-20]	; 0xffffffec
41008960:	e2433001 	sub	r3, r3, #1
41008964:	e50b3014 	str	r3, [fp, #-20]	; 0xffffffec
41008968:	e51b3010 	ldr	r3, [fp, #-16]
4100896c:	e51b0018 	ldr	r0, [fp, #-24]	; 0xffffffe8
41008970:	e51b101c 	ldr	r1, [fp, #-28]	; 0xffffffe4
41008974:	e1a02003 	mov	r2, r3
41008978:	ebffff98 	bl	410087e0 <memcmp>
4100897c:	e1a03000 	mov	r3, r0
41008980:	e3530000 	cmp	r3, #0
41008984:	1a000002 	bne	41008994 <strstr+0x8c>
41008988:	e51b3018 	ldr	r3, [fp, #-24]	; 0xffffffe8
4100898c:	e50b3020 	str	r3, [fp, #-32]	; 0xffffffe0
41008990:	ea000008 	b	410089b8 <strstr+0xb0>
41008994:	e51b3018 	ldr	r3, [fp, #-24]	; 0xffffffe8
41008998:	e2833001 	add	r3, r3, #1
4100899c:	e50b3018 	str	r3, [fp, #-24]	; 0xffffffe8
410089a0:	e51b2014 	ldr	r2, [fp, #-20]	; 0xffffffec
410089a4:	e51b3010 	ldr	r3, [fp, #-16]
410089a8:	e1520003 	cmp	r2, r3
410089ac:	aaffffea 	bge	4100895c <strstr+0x54>
410089b0:	e3a03000 	mov	r3, #0
410089b4:	e50b3020 	str	r3, [fp, #-32]	; 0xffffffe0
410089b8:	e51b3020 	ldr	r3, [fp, #-32]	; 0xffffffe0
410089bc:	e1a00003 	mov	r0, r3
410089c0:	e24bd00c 	sub	sp, fp, #12
410089c4:	e89da800 	ldm	sp, {fp, sp, pc}

410089c8 <init_thread_id>:
410089c8:	e1a0c00d 	mov	ip, sp
410089cc:	e92dd800 	push	{fp, ip, lr, pc}
410089d0:	e24cb004 	sub	fp, ip, #4
410089d4:	e59f3014 	ldr	r3, [pc, #20]	; 410089f0 <init_thread_id+0x28>
410089d8:	e08f3003 	add	r3, pc, r3
410089dc:	e59f2010 	ldr	r2, [pc, #16]	; 410089f4 <init_thread_id+0x2c>
410089e0:	e7932002 	ldr	r2, [r3, r2]
410089e4:	e3a03000 	mov	r3, #0
410089e8:	e5823000 	str	r3, [r2]
410089ec:	e89da800 	ldm	sp, {fp, sp, pc}
410089f0:	000026a0 	.word	0x000026a0
410089f4:	000000b0 	.word	0x000000b0

410089f8 <pthread_create>:
410089f8:	e1a0c00d 	mov	ip, sp
410089fc:	e92dd800 	push	{fp, ip, lr, pc}
41008a00:	e24cb004 	sub	fp, ip, #4
41008a04:	e24dd028 	sub	sp, sp, #40	; 0x28
41008a08:	e59fc30c 	ldr	ip, [pc, #780]	; 41008d1c <pthread_create+0x324>
41008a0c:	e50bc034 	str	ip, [fp, #-52]	; 0xffffffcc
41008a10:	e51bc034 	ldr	ip, [fp, #-52]	; 0xffffffcc
41008a14:	e08fc00c 	add	ip, pc, ip
41008a18:	e50bc034 	str	ip, [fp, #-52]	; 0xffffffcc
41008a1c:	e50b0020 	str	r0, [fp, #-32]	; 0xffffffe0
41008a20:	e50b1024 	str	r1, [fp, #-36]	; 0xffffffdc
41008a24:	e50b2028 	str	r2, [fp, #-40]	; 0xffffffd8
41008a28:	e50b302c 	str	r3, [fp, #-44]	; 0xffffffd4
41008a2c:	ebfff4ee 	bl	41005dec <vk_scheduler_lock>
41008a30:	e3a00084 	mov	r0, #132	; 0x84
41008a34:	ebffe40a 	bl	41001a64 <vk_malloc>
41008a38:	e1a03000 	mov	r3, r0
41008a3c:	e50b3014 	str	r3, [fp, #-20]	; 0xffffffec
41008a40:	e51b3014 	ldr	r3, [fp, #-20]	; 0xffffffec
41008a44:	e3530000 	cmp	r3, #0
41008a48:	1a000007 	bne	41008a6c <pthread_create+0x74>
41008a4c:	e59f32cc 	ldr	r3, [pc, #716]	; 41008d20 <pthread_create+0x328>
41008a50:	e51b1034 	ldr	r1, [fp, #-52]	; 0xffffffcc
41008a54:	e0813003 	add	r3, r1, r3
41008a58:	e1a00003 	mov	r0, r3
41008a5c:	ebffefd7 	bl	410049c0 <printk>
41008a60:	e3a02001 	mov	r2, #1
41008a64:	e50b2030 	str	r2, [fp, #-48]	; 0xffffffd0
41008a68:	ea0000a7 	b	41008d0c <pthread_create+0x314>
41008a6c:	e3a00b01 	mov	r0, #1024	; 0x400
41008a70:	ebffe3fb 	bl	41001a64 <vk_malloc>
41008a74:	e1a03000 	mov	r3, r0
41008a78:	e50b3018 	str	r3, [fp, #-24]	; 0xffffffe8
41008a7c:	e51b3018 	ldr	r3, [fp, #-24]	; 0xffffffe8
41008a80:	e3530000 	cmp	r3, #0
41008a84:	1a000007 	bne	41008aa8 <pthread_create+0xb0>
41008a88:	e59f3294 	ldr	r3, [pc, #660]	; 41008d24 <pthread_create+0x32c>
41008a8c:	e51bc034 	ldr	ip, [fp, #-52]	; 0xffffffcc
41008a90:	e08c3003 	add	r3, ip, r3
41008a94:	e1a00003 	mov	r0, r3
41008a98:	ebffefc8 	bl	410049c0 <printk>
41008a9c:	e3a01001 	mov	r1, #1
41008aa0:	e50b1030 	str	r1, [fp, #-48]	; 0xffffffd0
41008aa4:	ea000098 	b	41008d0c <pthread_create+0x314>
41008aa8:	e59f3278 	ldr	r3, [pc, #632]	; 41008d28 <pthread_create+0x330>
41008aac:	e51b2034 	ldr	r2, [fp, #-52]	; 0xffffffcc
41008ab0:	e7923003 	ldr	r3, [r2, r3]
41008ab4:	e5932000 	ldr	r2, [r3]
41008ab8:	e51b3014 	ldr	r3, [fp, #-20]	; 0xffffffec
41008abc:	e5832004 	str	r2, [r3, #4]
41008ac0:	e59f3260 	ldr	r3, [pc, #608]	; 41008d28 <pthread_create+0x330>
41008ac4:	e51bc034 	ldr	ip, [fp, #-52]	; 0xffffffcc
41008ac8:	e79c3003 	ldr	r3, [ip, r3]
41008acc:	e5933000 	ldr	r3, [r3]
41008ad0:	e2832001 	add	r2, r3, #1
41008ad4:	e59f324c 	ldr	r3, [pc, #588]	; 41008d28 <pthread_create+0x330>
41008ad8:	e51b1034 	ldr	r1, [fp, #-52]	; 0xffffffcc
41008adc:	e7913003 	ldr	r3, [r1, r3]
41008ae0:	e5832000 	str	r2, [r3]
41008ae4:	e51b2014 	ldr	r2, [fp, #-20]	; 0xffffffec
41008ae8:	e3a03001 	mov	r3, #1
41008aec:	e5823000 	str	r3, [r2]
41008af0:	e51b2028 	ldr	r2, [fp, #-40]	; 0xffffffd8
41008af4:	e59f3230 	ldr	r3, [pc, #560]	; 41008d2c <pthread_create+0x334>
41008af8:	e51bc034 	ldr	ip, [fp, #-52]	; 0xffffffcc
41008afc:	e79c3003 	ldr	r3, [ip, r3]
41008b00:	e1520003 	cmp	r2, r3
41008b04:	1a000006 	bne	41008b24 <pthread_create+0x12c>
41008b08:	e51b2014 	ldr	r2, [fp, #-20]	; 0xffffffec
41008b0c:	e3a03000 	mov	r3, #0
41008b10:	e5823008 	str	r3, [r2, #8]
41008b14:	e51b2014 	ldr	r2, [fp, #-20]	; 0xffffffec
41008b18:	e3a03000 	mov	r3, #0
41008b1c:	e582300c 	str	r3, [r2, #12]
41008b20:	ea000016 	b	41008b80 <pthread_create+0x188>
41008b24:	e51b3020 	ldr	r3, [fp, #-32]	; 0xffffffe0
41008b28:	e5933000 	ldr	r3, [r3]
41008b2c:	e3530000 	cmp	r3, #0
41008b30:	0a000003 	beq	41008b44 <pthread_create+0x14c>
41008b34:	e51b3020 	ldr	r3, [fp, #-32]	; 0xffffffe0
41008b38:	e5933000 	ldr	r3, [r3]
41008b3c:	e353001f 	cmp	r3, #31
41008b40:	9a000006 	bls	41008b60 <pthread_create+0x168>
41008b44:	e51b2014 	ldr	r2, [fp, #-20]	; 0xffffffec
41008b48:	e3a0300f 	mov	r3, #15
41008b4c:	e5823008 	str	r3, [r2, #8]
41008b50:	e51b2014 	ldr	r2, [fp, #-20]	; 0xffffffec
41008b54:	e3a0300f 	mov	r3, #15
41008b58:	e582300c 	str	r3, [r2, #12]
41008b5c:	ea000007 	b	41008b80 <pthread_create+0x188>
41008b60:	e51b3020 	ldr	r3, [fp, #-32]	; 0xffffffe0
41008b64:	e5932000 	ldr	r2, [r3]
41008b68:	e51b3014 	ldr	r3, [fp, #-20]	; 0xffffffec
41008b6c:	e5832008 	str	r2, [r3, #8]
41008b70:	e51b3020 	ldr	r3, [fp, #-32]	; 0xffffffe0
41008b74:	e5932000 	ldr	r2, [r3]
41008b78:	e51b3014 	ldr	r3, [fp, #-20]	; 0xffffffec
41008b7c:	e583200c 	str	r2, [r3, #12]
41008b80:	e51b2014 	ldr	r2, [fp, #-20]	; 0xffffffec
41008b84:	e3a03000 	mov	r3, #0
41008b88:	e5823010 	str	r3, [r2, #16]
41008b8c:	e51b2014 	ldr	r2, [fp, #-20]	; 0xffffffec
41008b90:	e3a03000 	mov	r3, #0
41008b94:	e5823018 	str	r3, [r2, #24]
41008b98:	e51b2014 	ldr	r2, [fp, #-20]	; 0xffffffec
41008b9c:	e3a03000 	mov	r3, #0
41008ba0:	e5823014 	str	r3, [r2, #20]
41008ba4:	e51b2014 	ldr	r2, [fp, #-20]	; 0xffffffec
41008ba8:	e3a03000 	mov	r3, #0
41008bac:	e582301c 	str	r3, [r2, #28]
41008bb0:	e51b2014 	ldr	r2, [fp, #-20]	; 0xffffffec
41008bb4:	e3a03000 	mov	r3, #0
41008bb8:	e5823034 	str	r3, [r2, #52]	; 0x34
41008bbc:	e51b2014 	ldr	r2, [fp, #-20]	; 0xffffffec
41008bc0:	e3a03000 	mov	r3, #0
41008bc4:	e582302c 	str	r3, [r2, #44]	; 0x2c
41008bc8:	e51b2014 	ldr	r2, [fp, #-20]	; 0xffffffec
41008bcc:	e3a03000 	mov	r3, #0
41008bd0:	e5823030 	str	r3, [r2, #48]	; 0x30
41008bd4:	e51b3014 	ldr	r3, [fp, #-20]	; 0xffffffec
41008bd8:	e2832040 	add	r2, r3, #64	; 0x40
41008bdc:	e51b3014 	ldr	r3, [fp, #-20]	; 0xffffffec
41008be0:	e5832020 	str	r2, [r3, #32]
41008be4:	e51b2014 	ldr	r2, [fp, #-20]	; 0xffffffec
41008be8:	e51b3018 	ldr	r3, [fp, #-24]	; 0xffffffe8
41008bec:	e5823024 	str	r3, [r2, #36]	; 0x24
41008bf0:	e51b2014 	ldr	r2, [fp, #-20]	; 0xffffffec
41008bf4:	e51b3028 	ldr	r3, [fp, #-40]	; 0xffffffd8
41008bf8:	e5823028 	str	r3, [r2, #40]	; 0x28
41008bfc:	e51b2014 	ldr	r2, [fp, #-20]	; 0xffffffec
41008c00:	e3a03000 	mov	r3, #0
41008c04:	e5823038 	str	r3, [r2, #56]	; 0x38
41008c08:	e51b2014 	ldr	r2, [fp, #-20]	; 0xffffffec
41008c0c:	e3a03000 	mov	r3, #0
41008c10:	e582303c 	str	r3, [r2, #60]	; 0x3c
41008c14:	e59f3114 	ldr	r3, [pc, #276]	; 41008d30 <pthread_create+0x338>
41008c18:	e51b1034 	ldr	r1, [fp, #-52]	; 0xffffffcc
41008c1c:	e7913003 	ldr	r3, [r1, r3]
41008c20:	e5933000 	ldr	r3, [r3]
41008c24:	e1a02003 	mov	r2, r3
41008c28:	e51b3014 	ldr	r3, [fp, #-20]	; 0xffffffec
41008c2c:	e5832040 	str	r2, [r3, #64]	; 0x40
41008c30:	e51b3014 	ldr	r3, [fp, #-20]	; 0xffffffec
41008c34:	e5933028 	ldr	r3, [r3, #40]	; 0x28
41008c38:	e1a02003 	mov	r2, r3
41008c3c:	e51b3014 	ldr	r3, [fp, #-20]	; 0xffffffec
41008c40:	e5832044 	str	r2, [r3, #68]	; 0x44
41008c44:	e51b202c 	ldr	r2, [fp, #-44]	; 0xffffffd4
41008c48:	e51b3014 	ldr	r3, [fp, #-20]	; 0xffffffec
41008c4c:	e5832048 	str	r2, [r3, #72]	; 0x48
41008c50:	e3a03000 	mov	r3, #0
41008c54:	e50b3010 	str	r3, [fp, #-16]
41008c58:	ea00000b 	b	41008c8c <pthread_create+0x294>
41008c5c:	e51b3010 	ldr	r3, [fp, #-16]
41008c60:	e51b1014 	ldr	r1, [fp, #-20]	; 0xffffffec
41008c64:	e2833012 	add	r3, r3, #18
41008c68:	e3a02004 	mov	r2, #4
41008c6c:	e1a03103 	lsl	r3, r3, #2
41008c70:	e0813003 	add	r3, r1, r3
41008c74:	e0832002 	add	r2, r3, r2
41008c78:	e3a03000 	mov	r3, #0
41008c7c:	e5823000 	str	r3, [r2]
41008c80:	e51b3010 	ldr	r3, [fp, #-16]
41008c84:	e2833001 	add	r3, r3, #1
41008c88:	e50b3010 	str	r3, [fp, #-16]
41008c8c:	e51b3010 	ldr	r3, [fp, #-16]
41008c90:	e353000b 	cmp	r3, #11
41008c94:	9afffff0 	bls	41008c5c <pthread_create+0x264>
41008c98:	e51b3018 	ldr	r3, [fp, #-24]	; 0xffffffe8
41008c9c:	e2833b01 	add	r3, r3, #1024	; 0x400
41008ca0:	e1a02003 	mov	r2, r3
41008ca4:	e51b3014 	ldr	r3, [fp, #-20]	; 0xffffffec
41008ca8:	e583207c 	str	r2, [r3, #124]	; 0x7c
41008cac:	e59f3080 	ldr	r3, [pc, #128]	; 41008d34 <pthread_create+0x33c>
41008cb0:	e51b2034 	ldr	r2, [fp, #-52]	; 0xffffffcc
41008cb4:	e7923003 	ldr	r3, [r2, r3]
41008cb8:	e1a02003 	mov	r2, r3
41008cbc:	e51b3014 	ldr	r3, [fp, #-20]	; 0xffffffec
41008cc0:	e5832080 	str	r2, [r3, #128]	; 0x80
41008cc4:	e51b2020 	ldr	r2, [fp, #-32]	; 0xffffffe0
41008cc8:	e51b3014 	ldr	r3, [fp, #-20]	; 0xffffffec
41008ccc:	e5823004 	str	r3, [r2, #4]
41008cd0:	e51b0014 	ldr	r0, [fp, #-20]	; 0xffffffec
41008cd4:	e59f305c 	ldr	r3, [pc, #92]	; 41008d38 <pthread_create+0x340>
41008cd8:	e51bc034 	ldr	ip, [fp, #-52]	; 0xffffffcc
41008cdc:	e79c3003 	ldr	r3, [ip, r3]
41008ce0:	e1a01003 	mov	r1, r3
41008ce4:	ebfff0b7 	bl	41004fc8 <vk_thread_enqueue>
41008ce8:	e51b0014 	ldr	r0, [fp, #-20]	; 0xffffffec
41008cec:	e59f3048 	ldr	r3, [pc, #72]	; 41008d3c <pthread_create+0x344>
41008cf0:	e51b1034 	ldr	r1, [fp, #-52]	; 0xffffffcc
41008cf4:	e7913003 	ldr	r3, [r1, r3]
41008cf8:	e1a01003 	mov	r1, r3
41008cfc:	ebfff0b1 	bl	41004fc8 <vk_thread_enqueue>
41008d00:	ebfff453 	bl	41005e54 <vk_scheduler_unlock>
41008d04:	e3a02000 	mov	r2, #0
41008d08:	e50b2030 	str	r2, [fp, #-48]	; 0xffffffd0
41008d0c:	e51b3030 	ldr	r3, [fp, #-48]	; 0xffffffd0
41008d10:	e1a00003 	mov	r0, r3
41008d14:	e24bd00c 	sub	sp, fp, #12
41008d18:	e89da800 	ldm	sp, {fp, sp, pc}
41008d1c:	00002664 	.word	0x00002664
41008d20:	fffffb20 	.word	0xfffffb20
41008d24:	fffffb58 	.word	0xfffffb58
41008d28:	000000b0 	.word	0x000000b0
41008d2c:	00000068 	.word	0x00000068
41008d30:	000000a4 	.word	0x000000a4
41008d34:	00000010 	.word	0x00000010
41008d38:	00000098 	.word	0x00000098
41008d3c:	0000007c 	.word	0x0000007c

41008d40 <pthread_exit>:
41008d40:	e1a0c00d 	mov	ip, sp
41008d44:	e92dd810 	push	{r4, fp, ip, lr, pc}
41008d48:	e24cb004 	sub	fp, ip, #4
41008d4c:	e24dd00c 	sub	sp, sp, #12
41008d50:	e59f403c 	ldr	r4, [pc, #60]	; 41008d94 <pthread_exit+0x54>
41008d54:	e08f4004 	add	r4, pc, r4
41008d58:	e50b0018 	str	r0, [fp, #-24]	; 0xffffffe8
41008d5c:	eb0002c3 	bl	41009870 <vk_timer_irq_disable>
41008d60:	e59f3030 	ldr	r3, [pc, #48]	; 41008d98 <pthread_exit+0x58>
41008d64:	e7943003 	ldr	r3, [r4, r3]
41008d68:	e5932000 	ldr	r2, [r3]
41008d6c:	e51b3018 	ldr	r3, [fp, #-24]	; 0xffffffe8
41008d70:	e582301c 	str	r3, [r2, #28]
41008d74:	e59f301c 	ldr	r3, [pc, #28]	; 41008d98 <pthread_exit+0x58>
41008d78:	e7943003 	ldr	r3, [r4, r3]
41008d7c:	e5932000 	ldr	r2, [r3]
41008d80:	e3a03003 	mov	r3, #3
41008d84:	e5823000 	str	r3, [r2]
41008d88:	ebffe27c 	bl	41001780 <vk_swi_scheduler>
41008d8c:	e24bd010 	sub	sp, fp, #16
41008d90:	e89da810 	ldm	sp, {r4, fp, sp, pc}
41008d94:	00002324 	.word	0x00002324
41008d98:	000000ac 	.word	0x000000ac

41008d9c <vk_thread_yield>:
41008d9c:	e1a0c00d 	mov	ip, sp
41008da0:	e92dd800 	push	{fp, ip, lr, pc}
41008da4:	e24cb004 	sub	fp, ip, #4
41008da8:	e24dd010 	sub	sp, sp, #16
41008dac:	e59f20b8 	ldr	r2, [pc, #184]	; 41008e6c <vk_thread_yield+0xd0>
41008db0:	e50b2018 	str	r2, [fp, #-24]	; 0xffffffe8
41008db4:	e51b3018 	ldr	r3, [fp, #-24]	; 0xffffffe8
41008db8:	e08f3003 	add	r3, pc, r3
41008dbc:	e50b3018 	str	r3, [fp, #-24]	; 0xffffffe8
41008dc0:	e59f30a8 	ldr	r3, [pc, #168]	; 41008e70 <vk_thread_yield+0xd4>
41008dc4:	e51b2018 	ldr	r2, [fp, #-24]	; 0xffffffe8
41008dc8:	e7923003 	ldr	r3, [r2, r3]
41008dcc:	e5933000 	ldr	r3, [r3]
41008dd0:	e5933038 	ldr	r3, [r3, #56]	; 0x38
41008dd4:	e50b3010 	str	r3, [fp, #-16]
41008dd8:	e51b3010 	ldr	r3, [fp, #-16]
41008ddc:	e3530000 	cmp	r3, #0
41008de0:	1a000000 	bne	41008de8 <vk_thread_yield+0x4c>
41008de4:	ebffe250 	bl	4100172c <vk_disable_interrupt>
41008de8:	e59f3080 	ldr	r3, [pc, #128]	; 41008e70 <vk_thread_yield+0xd4>
41008dec:	e51b2018 	ldr	r2, [fp, #-24]	; 0xffffffe8
41008df0:	e7923003 	ldr	r3, [r2, r3]
41008df4:	e5932000 	ldr	r2, [r3]
41008df8:	e3a03002 	mov	r3, #2
41008dfc:	e5823000 	str	r3, [r2]
41008e00:	e59f3068 	ldr	r3, [pc, #104]	; 41008e70 <vk_thread_yield+0xd4>
41008e04:	e51b2018 	ldr	r2, [fp, #-24]	; 0xffffffe8
41008e08:	e7923003 	ldr	r3, [r2, r3]
41008e0c:	e5933000 	ldr	r3, [r3]
41008e10:	e1a00003 	mov	r0, r3
41008e14:	e59f3058 	ldr	r3, [pc, #88]	; 41008e74 <vk_thread_yield+0xd8>
41008e18:	e51b2018 	ldr	r2, [fp, #-24]	; 0xffffffe8
41008e1c:	e7923003 	ldr	r3, [r2, r3]
41008e20:	e1a01003 	mov	r1, r3
41008e24:	ebfff067 	bl	41004fc8 <vk_thread_enqueue>
41008e28:	e59f3040 	ldr	r3, [pc, #64]	; 41008e70 <vk_thread_yield+0xd4>
41008e2c:	e51b2018 	ldr	r2, [fp, #-24]	; 0xffffffe8
41008e30:	e7923003 	ldr	r3, [r2, r3]
41008e34:	e5933000 	ldr	r3, [r3]
41008e38:	e1a00003 	mov	r0, r3
41008e3c:	e59f3034 	ldr	r3, [pc, #52]	; 41008e78 <vk_thread_yield+0xdc>
41008e40:	e51b2018 	ldr	r2, [fp, #-24]	; 0xffffffe8
41008e44:	e7923003 	ldr	r3, [r2, r3]
41008e48:	e1a01003 	mov	r1, r3
41008e4c:	ebfff0cb 	bl	41005180 <vk_thread_dequeue>
41008e50:	ebffe24a 	bl	41001780 <vk_swi_scheduler>
41008e54:	e51b3010 	ldr	r3, [fp, #-16]
41008e58:	e3530000 	cmp	r3, #0
41008e5c:	1a000000 	bne	41008e64 <vk_thread_yield+0xc8>
41008e60:	ebffe21c 	bl	410016d8 <vk_enable_interrupt>
41008e64:	e24bd00c 	sub	sp, fp, #12
41008e68:	e89da800 	ldm	sp, {fp, sp, pc}
41008e6c:	000022c0 	.word	0x000022c0
41008e70:	000000ac 	.word	0x000000ac
41008e74:	000000b4 	.word	0x000000b4
41008e78:	0000007c 	.word	0x0000007c

41008e7c <pthread_join>:
41008e7c:	e1a0c00d 	mov	ip, sp
41008e80:	e92dd800 	push	{fp, ip, lr, pc}
41008e84:	e24cb004 	sub	fp, ip, #4
41008e88:	e24dd020 	sub	sp, sp, #32
41008e8c:	e59f318c 	ldr	r3, [pc, #396]	; 41009020 <pthread_join+0x1a4>
41008e90:	e50b3028 	str	r3, [fp, #-40]	; 0xffffffd8
41008e94:	e51bc028 	ldr	ip, [fp, #-40]	; 0xffffffd8
41008e98:	e08fc00c 	add	ip, pc, ip
41008e9c:	e50bc028 	str	ip, [fp, #-40]	; 0xffffffd8
41008ea0:	e24b301c 	sub	r3, fp, #28
41008ea4:	e8830003 	stm	r3, {r0, r1}
41008ea8:	e50b2020 	str	r2, [fp, #-32]	; 0xffffffe0
41008eac:	e51b3018 	ldr	r3, [fp, #-24]	; 0xffffffe8
41008eb0:	e50b3010 	str	r3, [fp, #-16]
41008eb4:	e51b3010 	ldr	r3, [fp, #-16]
41008eb8:	e5933000 	ldr	r3, [r3]
41008ebc:	e3530003 	cmp	r3, #3
41008ec0:	0a000050 	beq	41009008 <pthread_join+0x18c>
41008ec4:	e3a03000 	mov	r3, #0
41008ec8:	e50b3014 	str	r3, [fp, #-20]	; 0xffffffec
41008ecc:	ea00004a 	b	41008ffc <pthread_join+0x180>
41008ed0:	e51b2014 	ldr	r2, [fp, #-20]	; 0xffffffec
41008ed4:	e59f3148 	ldr	r3, [pc, #328]	; 41009024 <pthread_join+0x1a8>
41008ed8:	e51b0028 	ldr	r0, [fp, #-40]	; 0xffffffd8
41008edc:	e7901003 	ldr	r1, [r0, r3]
41008ee0:	e1a03002 	mov	r3, r2
41008ee4:	e1a02103 	lsl	r2, r3, #2
41008ee8:	e1a03102 	lsl	r3, r2, #2
41008eec:	e0623003 	rsb	r3, r2, r3
41008ef0:	e0813003 	add	r3, r1, r3
41008ef4:	e5933000 	ldr	r3, [r3]
41008ef8:	e3530000 	cmp	r3, #0
41008efc:	1a00003b 	bne	41008ff0 <pthread_join+0x174>
41008f00:	e51b2014 	ldr	r2, [fp, #-20]	; 0xffffffec
41008f04:	e59f3118 	ldr	r3, [pc, #280]	; 41009024 <pthread_join+0x1a8>
41008f08:	e51bc028 	ldr	ip, [fp, #-40]	; 0xffffffd8
41008f0c:	e79c1003 	ldr	r1, [ip, r3]
41008f10:	e1a03002 	mov	r3, r2
41008f14:	e1a02103 	lsl	r2, r3, #2
41008f18:	e1a03102 	lsl	r3, r2, #2
41008f1c:	e0623003 	rsb	r3, r2, r3
41008f20:	e0812003 	add	r2, r1, r3
41008f24:	e3a03001 	mov	r3, #1
41008f28:	e5823000 	str	r3, [r2]
41008f2c:	e51b2014 	ldr	r2, [fp, #-20]	; 0xffffffec
41008f30:	e59f30ec 	ldr	r3, [pc, #236]	; 41009024 <pthread_join+0x1a8>
41008f34:	e51b0028 	ldr	r0, [fp, #-40]	; 0xffffffd8
41008f38:	e7901003 	ldr	r1, [r0, r3]
41008f3c:	e3a00004 	mov	r0, #4
41008f40:	e1a03002 	mov	r3, r2
41008f44:	e1a02103 	lsl	r2, r3, #2
41008f48:	e1a03102 	lsl	r3, r2, #2
41008f4c:	e0623003 	rsb	r3, r2, r3
41008f50:	e0813003 	add	r3, r1, r3
41008f54:	e0832000 	add	r2, r3, r0
41008f58:	e51b3010 	ldr	r3, [fp, #-16]
41008f5c:	e5823000 	str	r3, [r2]
41008f60:	e51b2014 	ldr	r2, [fp, #-20]	; 0xffffffec
41008f64:	e59f30bc 	ldr	r3, [pc, #188]	; 41009028 <pthread_join+0x1ac>
41008f68:	e51b1028 	ldr	r1, [fp, #-40]	; 0xffffffd8
41008f6c:	e7913003 	ldr	r3, [r1, r3]
41008f70:	e5931000 	ldr	r1, [r3]
41008f74:	e59f30a8 	ldr	r3, [pc, #168]	; 41009024 <pthread_join+0x1a8>
41008f78:	e51bc028 	ldr	ip, [fp, #-40]	; 0xffffffd8
41008f7c:	e79c0003 	ldr	r0, [ip, r3]
41008f80:	e3a0c008 	mov	ip, #8
41008f84:	e1a03002 	mov	r3, r2
41008f88:	e1a02103 	lsl	r2, r3, #2
41008f8c:	e1a03102 	lsl	r3, r2, #2
41008f90:	e0623003 	rsb	r3, r2, r3
41008f94:	e0803003 	add	r3, r0, r3
41008f98:	e083300c 	add	r3, r3, ip
41008f9c:	e5831000 	str	r1, [r3]
41008fa0:	e59f3080 	ldr	r3, [pc, #128]	; 41009028 <pthread_join+0x1ac>
41008fa4:	e51b0028 	ldr	r0, [fp, #-40]	; 0xffffffd8
41008fa8:	e7903003 	ldr	r3, [r0, r3]
41008fac:	e5933000 	ldr	r3, [r3]
41008fb0:	e1a00003 	mov	r0, r3
41008fb4:	e59f3070 	ldr	r3, [pc, #112]	; 4100902c <pthread_join+0x1b0>
41008fb8:	e51b1028 	ldr	r1, [fp, #-40]	; 0xffffffd8
41008fbc:	e7913003 	ldr	r3, [r1, r3]
41008fc0:	e1a01003 	mov	r1, r3
41008fc4:	ebfff06d 	bl	41005180 <vk_thread_dequeue>
41008fc8:	e59f3058 	ldr	r3, [pc, #88]	; 41009028 <pthread_join+0x1ac>
41008fcc:	e51b2028 	ldr	r2, [fp, #-40]	; 0xffffffd8
41008fd0:	e7923003 	ldr	r3, [r2, r3]
41008fd4:	e5932000 	ldr	r2, [r3]
41008fd8:	e3a03002 	mov	r3, #2
41008fdc:	e5823000 	str	r3, [r2]
41008fe0:	ebffe1e6 	bl	41001780 <vk_swi_scheduler>
41008fe4:	e3a03000 	mov	r3, #0
41008fe8:	e50b3024 	str	r3, [fp, #-36]	; 0xffffffdc
41008fec:	ea000007 	b	41009010 <pthread_join+0x194>
41008ff0:	e51b3014 	ldr	r3, [fp, #-20]	; 0xffffffec
41008ff4:	e2833001 	add	r3, r3, #1
41008ff8:	e50b3014 	str	r3, [fp, #-20]	; 0xffffffec
41008ffc:	e51b3014 	ldr	r3, [fp, #-20]	; 0xffffffec
41009000:	e3530009 	cmp	r3, #9
41009004:	9affffb1 	bls	41008ed0 <pthread_join+0x54>
41009008:	e3a0c000 	mov	ip, #0
4100900c:	e50bc024 	str	ip, [fp, #-36]	; 0xffffffdc
41009010:	e51b3024 	ldr	r3, [fp, #-36]	; 0xffffffdc
41009014:	e1a00003 	mov	r0, r3
41009018:	e24bd00c 	sub	sp, fp, #12
4100901c:	e89da800 	ldm	sp, {fp, sp, pc}
41009020:	000021e0 	.word	0x000021e0
41009024:	000000c4 	.word	0x000000c4
41009028:	000000ac 	.word	0x000000ac
4100902c:	0000007c 	.word	0x0000007c

41009030 <ctime>:
41009030:	e1a0c00d 	mov	ip, sp
41009034:	e92dd800 	push	{fp, ip, lr, pc}
41009038:	e24cb004 	sub	fp, ip, #4
4100903c:	e24dd098 	sub	sp, sp, #152	; 0x98
41009040:	e59f13d4 	ldr	r1, [pc, #980]	; 4100941c <ctime+0x3ec>
41009044:	e50b10a4 	str	r1, [fp, #-164]	; 0xffffff5c
41009048:	e51b20a4 	ldr	r2, [fp, #-164]	; 0xffffff5c
4100904c:	e08f2002 	add	r2, pc, r2
41009050:	e50b20a4 	str	r2, [fp, #-164]	; 0xffffff5c
41009054:	e50b00a0 	str	r0, [fp, #-160]	; 0xffffff60
41009058:	e3a03000 	mov	r3, #0
4100905c:	e50b3010 	str	r3, [fp, #-16]
41009060:	e59f33b8 	ldr	r3, [pc, #952]	; 41009420 <ctime+0x3f0>
41009064:	e51b00a4 	ldr	r0, [fp, #-164]	; 0xffffff5c
41009068:	e0803003 	add	r3, r0, r3
4100906c:	e24be04c 	sub	lr, fp, #76	; 0x4c
41009070:	e1a0c003 	mov	ip, r3
41009074:	e8bc000f 	ldm	ip!, {r0, r1, r2, r3}
41009078:	e8ae000f 	stmia	lr!, {r0, r1, r2, r3}
4100907c:	e89c000f 	ldm	ip, {r0, r1, r2, r3}
41009080:	e88e000f 	stm	lr, {r0, r1, r2, r3}
41009084:	e59f3398 	ldr	r3, [pc, #920]	; 41009424 <ctime+0x3f4>
41009088:	e51b10a4 	ldr	r1, [fp, #-164]	; 0xffffff5c
4100908c:	e0813003 	add	r3, r1, r3
41009090:	e24b209c 	sub	r2, fp, #156	; 0x9c
41009094:	e3a0c050 	mov	ip, #80	; 0x50
41009098:	e1a00002 	mov	r0, r2
4100909c:	e1a01003 	mov	r1, r3
410090a0:	e1a0200c 	mov	r2, ip
410090a4:	eb000481 	bl	4100a2b0 <memcpy>
410090a8:	e24b302c 	sub	r3, fp, #44	; 0x2c
410090ac:	e1a00003 	mov	r0, r3
410090b0:	ebfff147 	bl	410055d4 <vh_gettime>
410090b4:	e51b3020 	ldr	r3, [fp, #-32]	; 0xffffffe0
410090b8:	e3e0203f 	mvn	r2, #63	; 0x3f
410090bc:	e1a03103 	lsl	r3, r3, #2
410090c0:	e24b000c 	sub	r0, fp, #12
410090c4:	e0803003 	add	r3, r0, r3
410090c8:	e0833002 	add	r3, r3, r2
410090cc:	e5932000 	ldr	r2, [r3]
410090d0:	e59f3350 	ldr	r3, [pc, #848]	; 41009428 <ctime+0x3f8>
410090d4:	e51b10a4 	ldr	r1, [fp, #-164]	; 0xffffff5c
410090d8:	e7913003 	ldr	r3, [r1, r3]
410090dc:	e1a00003 	mov	r0, r3
410090e0:	e1a01002 	mov	r1, r2
410090e4:	ebfffb91 	bl	41007f30 <strcpy>
410090e8:	e51b3020 	ldr	r3, [fp, #-32]	; 0xffffffe0
410090ec:	e3e0203f 	mvn	r2, #63	; 0x3f
410090f0:	e1a03103 	lsl	r3, r3, #2
410090f4:	e24b000c 	sub	r0, fp, #12
410090f8:	e0803003 	add	r3, r0, r3
410090fc:	e0833002 	add	r3, r3, r2
41009100:	e5933000 	ldr	r3, [r3]
41009104:	e1a00003 	mov	r0, r3
41009108:	ebfffc8a 	bl	41008338 <strlen>
4100910c:	e1a03000 	mov	r3, r0
41009110:	e50b3010 	str	r3, [fp, #-16]
41009114:	e51b1010 	ldr	r1, [fp, #-16]
41009118:	e59f3308 	ldr	r3, [pc, #776]	; 41009428 <ctime+0x3f8>
4100911c:	e51b00a4 	ldr	r0, [fp, #-164]	; 0xffffff5c
41009120:	e7902003 	ldr	r2, [r0, r3]
41009124:	e3a03020 	mov	r3, #32
41009128:	e7c23001 	strb	r3, [r2, r1]
4100912c:	e51b3010 	ldr	r3, [fp, #-16]
41009130:	e2833001 	add	r3, r3, #1
41009134:	e50b3010 	str	r3, [fp, #-16]
41009138:	e51b2010 	ldr	r2, [fp, #-16]
4100913c:	e59f32e4 	ldr	r3, [pc, #740]	; 41009428 <ctime+0x3f8>
41009140:	e51b10a4 	ldr	r1, [fp, #-164]	; 0xffffff5c
41009144:	e7913003 	ldr	r3, [r1, r3]
41009148:	e0821003 	add	r1, r2, r3
4100914c:	e51b3028 	ldr	r3, [fp, #-40]	; 0xffffffd8
41009150:	e3e0208f 	mvn	r2, #143	; 0x8f
41009154:	e1a03103 	lsl	r3, r3, #2
41009158:	e24b000c 	sub	r0, fp, #12
4100915c:	e0803003 	add	r3, r0, r3
41009160:	e0833002 	add	r3, r3, r2
41009164:	e5933000 	ldr	r3, [r3]
41009168:	e1a00001 	mov	r0, r1
4100916c:	e1a01003 	mov	r1, r3
41009170:	ebfffb6e 	bl	41007f30 <strcpy>
41009174:	e51b3028 	ldr	r3, [fp, #-40]	; 0xffffffd8
41009178:	e3e0208f 	mvn	r2, #143	; 0x8f
4100917c:	e1a03103 	lsl	r3, r3, #2
41009180:	e24b100c 	sub	r1, fp, #12
41009184:	e0813003 	add	r3, r1, r3
41009188:	e0833002 	add	r3, r3, r2
4100918c:	e5933000 	ldr	r3, [r3]
41009190:	e1a00003 	mov	r0, r3
41009194:	ebfffc67 	bl	41008338 <strlen>
41009198:	e1a02000 	mov	r2, r0
4100919c:	e51b3010 	ldr	r3, [fp, #-16]
410091a0:	e0823003 	add	r3, r2, r3
410091a4:	e50b3010 	str	r3, [fp, #-16]
410091a8:	e51b1010 	ldr	r1, [fp, #-16]
410091ac:	e59f3274 	ldr	r3, [pc, #628]	; 41009428 <ctime+0x3f8>
410091b0:	e51b00a4 	ldr	r0, [fp, #-164]	; 0xffffff5c
410091b4:	e7902003 	ldr	r2, [r0, r3]
410091b8:	e3a03020 	mov	r3, #32
410091bc:	e7c23001 	strb	r3, [r2, r1]
410091c0:	e51b3010 	ldr	r3, [fp, #-16]
410091c4:	e2833001 	add	r3, r3, #1
410091c8:	e50b3010 	str	r3, [fp, #-16]
410091cc:	e51b3024 	ldr	r3, [fp, #-36]	; 0xffffffdc
410091d0:	e1a01003 	mov	r1, r3
410091d4:	e51b2010 	ldr	r2, [fp, #-16]
410091d8:	e59f3248 	ldr	r3, [pc, #584]	; 41009428 <ctime+0x3f8>
410091dc:	e51b00a4 	ldr	r0, [fp, #-164]	; 0xffffff5c
410091e0:	e7903003 	ldr	r3, [r0, r3]
410091e4:	e0823003 	add	r3, r2, r3
410091e8:	e1a00001 	mov	r0, r1
410091ec:	e1a01003 	mov	r1, r3
410091f0:	ebfff857 	bl	41007354 <itoa16>
410091f4:	e51b3024 	ldr	r3, [fp, #-36]	; 0xffffffdc
410091f8:	e20330f0 	and	r3, r3, #240	; 0xf0
410091fc:	e3530000 	cmp	r3, #0
41009200:	0a000003 	beq	41009214 <ctime+0x1e4>
41009204:	e51b3010 	ldr	r3, [fp, #-16]
41009208:	e2833002 	add	r3, r3, #2
4100920c:	e50b3010 	str	r3, [fp, #-16]
41009210:	ea000002 	b	41009220 <ctime+0x1f0>
41009214:	e51b3010 	ldr	r3, [fp, #-16]
41009218:	e2833001 	add	r3, r3, #1
4100921c:	e50b3010 	str	r3, [fp, #-16]
41009220:	e51b1010 	ldr	r1, [fp, #-16]
41009224:	e59f31fc 	ldr	r3, [pc, #508]	; 41009428 <ctime+0x3f8>
41009228:	e51b00a4 	ldr	r0, [fp, #-164]	; 0xffffff5c
4100922c:	e7902003 	ldr	r2, [r0, r3]
41009230:	e3a03020 	mov	r3, #32
41009234:	e7c23001 	strb	r3, [r2, r1]
41009238:	e51b3010 	ldr	r3, [fp, #-16]
4100923c:	e2833001 	add	r3, r3, #1
41009240:	e50b3010 	str	r3, [fp, #-16]
41009244:	e51b301c 	ldr	r3, [fp, #-28]	; 0xffffffe4
41009248:	e1a01003 	mov	r1, r3
4100924c:	e51b2010 	ldr	r2, [fp, #-16]
41009250:	e59f31d0 	ldr	r3, [pc, #464]	; 41009428 <ctime+0x3f8>
41009254:	e51b00a4 	ldr	r0, [fp, #-164]	; 0xffffff5c
41009258:	e7903003 	ldr	r3, [r0, r3]
4100925c:	e0823003 	add	r3, r2, r3
41009260:	e1a00001 	mov	r0, r1
41009264:	e1a01003 	mov	r1, r3
41009268:	ebfff839 	bl	41007354 <itoa16>
4100926c:	e51b301c 	ldr	r3, [fp, #-28]	; 0xffffffe4
41009270:	e20330f0 	and	r3, r3, #240	; 0xf0
41009274:	e3530000 	cmp	r3, #0
41009278:	0a000003 	beq	4100928c <ctime+0x25c>
4100927c:	e51b3010 	ldr	r3, [fp, #-16]
41009280:	e2833002 	add	r3, r3, #2
41009284:	e50b3010 	str	r3, [fp, #-16]
41009288:	ea000002 	b	41009298 <ctime+0x268>
4100928c:	e51b3010 	ldr	r3, [fp, #-16]
41009290:	e2833001 	add	r3, r3, #1
41009294:	e50b3010 	str	r3, [fp, #-16]
41009298:	e51b1010 	ldr	r1, [fp, #-16]
4100929c:	e59f3184 	ldr	r3, [pc, #388]	; 41009428 <ctime+0x3f8>
410092a0:	e51b00a4 	ldr	r0, [fp, #-164]	; 0xffffff5c
410092a4:	e7902003 	ldr	r2, [r0, r3]
410092a8:	e3a0303a 	mov	r3, #58	; 0x3a
410092ac:	e7c23001 	strb	r3, [r2, r1]
410092b0:	e51b3010 	ldr	r3, [fp, #-16]
410092b4:	e2833001 	add	r3, r3, #1
410092b8:	e50b3010 	str	r3, [fp, #-16]
410092bc:	e51b3018 	ldr	r3, [fp, #-24]	; 0xffffffe8
410092c0:	e1a01003 	mov	r1, r3
410092c4:	e51b2010 	ldr	r2, [fp, #-16]
410092c8:	e59f3158 	ldr	r3, [pc, #344]	; 41009428 <ctime+0x3f8>
410092cc:	e51b00a4 	ldr	r0, [fp, #-164]	; 0xffffff5c
410092d0:	e7903003 	ldr	r3, [r0, r3]
410092d4:	e0823003 	add	r3, r2, r3
410092d8:	e1a00001 	mov	r0, r1
410092dc:	e1a01003 	mov	r1, r3
410092e0:	ebfff81b 	bl	41007354 <itoa16>
410092e4:	e51b3018 	ldr	r3, [fp, #-24]	; 0xffffffe8
410092e8:	e20330f0 	and	r3, r3, #240	; 0xf0
410092ec:	e3530000 	cmp	r3, #0
410092f0:	0a000003 	beq	41009304 <ctime+0x2d4>
410092f4:	e51b3010 	ldr	r3, [fp, #-16]
410092f8:	e2833002 	add	r3, r3, #2
410092fc:	e50b3010 	str	r3, [fp, #-16]
41009300:	ea000002 	b	41009310 <ctime+0x2e0>
41009304:	e51b3010 	ldr	r3, [fp, #-16]
41009308:	e2833001 	add	r3, r3, #1
4100930c:	e50b3010 	str	r3, [fp, #-16]
41009310:	e51b1010 	ldr	r1, [fp, #-16]
41009314:	e59f310c 	ldr	r3, [pc, #268]	; 41009428 <ctime+0x3f8>
41009318:	e51b00a4 	ldr	r0, [fp, #-164]	; 0xffffff5c
4100931c:	e7902003 	ldr	r2, [r0, r3]
41009320:	e3a0303a 	mov	r3, #58	; 0x3a
41009324:	e7c23001 	strb	r3, [r2, r1]
41009328:	e51b3010 	ldr	r3, [fp, #-16]
4100932c:	e2833001 	add	r3, r3, #1
41009330:	e50b3010 	str	r3, [fp, #-16]
41009334:	e51b3014 	ldr	r3, [fp, #-20]	; 0xffffffec
41009338:	e1a01003 	mov	r1, r3
4100933c:	e51b2010 	ldr	r2, [fp, #-16]
41009340:	e59f30e0 	ldr	r3, [pc, #224]	; 41009428 <ctime+0x3f8>
41009344:	e51b00a4 	ldr	r0, [fp, #-164]	; 0xffffff5c
41009348:	e7903003 	ldr	r3, [r0, r3]
4100934c:	e0823003 	add	r3, r2, r3
41009350:	e1a00001 	mov	r0, r1
41009354:	e1a01003 	mov	r1, r3
41009358:	ebfff7fd 	bl	41007354 <itoa16>
4100935c:	e51b3014 	ldr	r3, [fp, #-20]	; 0xffffffec
41009360:	e20330f0 	and	r3, r3, #240	; 0xf0
41009364:	e3530000 	cmp	r3, #0
41009368:	0a000003 	beq	4100937c <ctime+0x34c>
4100936c:	e51b3010 	ldr	r3, [fp, #-16]
41009370:	e2833002 	add	r3, r3, #2
41009374:	e50b3010 	str	r3, [fp, #-16]
41009378:	ea000002 	b	41009388 <ctime+0x358>
4100937c:	e51b3010 	ldr	r3, [fp, #-16]
41009380:	e2833001 	add	r3, r3, #1
41009384:	e50b3010 	str	r3, [fp, #-16]
41009388:	e51b1010 	ldr	r1, [fp, #-16]
4100938c:	e59f3094 	ldr	r3, [pc, #148]	; 41009428 <ctime+0x3f8>
41009390:	e51b00a4 	ldr	r0, [fp, #-164]	; 0xffffff5c
41009394:	e7902003 	ldr	r2, [r0, r3]
41009398:	e3a03020 	mov	r3, #32
4100939c:	e7c23001 	strb	r3, [r2, r1]
410093a0:	e51b3010 	ldr	r3, [fp, #-16]
410093a4:	e2833001 	add	r3, r3, #1
410093a8:	e50b3010 	str	r3, [fp, #-16]
410093ac:	e51b302c 	ldr	r3, [fp, #-44]	; 0xffffffd4
410093b0:	e1a01003 	mov	r1, r3
410093b4:	e51b2010 	ldr	r2, [fp, #-16]
410093b8:	e59f3068 	ldr	r3, [pc, #104]	; 41009428 <ctime+0x3f8>
410093bc:	e51b00a4 	ldr	r0, [fp, #-164]	; 0xffffff5c
410093c0:	e7903003 	ldr	r3, [r0, r3]
410093c4:	e0823003 	add	r3, r2, r3
410093c8:	e1a00001 	mov	r0, r1
410093cc:	e1a01003 	mov	r1, r3
410093d0:	ebfff7df 	bl	41007354 <itoa16>
410093d4:	e51b3010 	ldr	r3, [fp, #-16]
410093d8:	e2833004 	add	r3, r3, #4
410093dc:	e50b3010 	str	r3, [fp, #-16]
410093e0:	e51b3010 	ldr	r3, [fp, #-16]
410093e4:	e2833001 	add	r3, r3, #1
410093e8:	e50b3010 	str	r3, [fp, #-16]
410093ec:	e51b1010 	ldr	r1, [fp, #-16]
410093f0:	e59f3030 	ldr	r3, [pc, #48]	; 41009428 <ctime+0x3f8>
410093f4:	e51b00a4 	ldr	r0, [fp, #-164]	; 0xffffff5c
410093f8:	e7902003 	ldr	r2, [r0, r3]
410093fc:	e3a03000 	mov	r3, #0
41009400:	e7c23001 	strb	r3, [r2, r1]
41009404:	e59f301c 	ldr	r3, [pc, #28]	; 41009428 <ctime+0x3f8>
41009408:	e51b10a4 	ldr	r1, [fp, #-164]	; 0xffffff5c
4100940c:	e7913003 	ldr	r3, [r1, r3]
41009410:	e1a00003 	mov	r0, r3
41009414:	e24bd00c 	sub	sp, fp, #12
41009418:	e89da800 	ldm	sp, {fp, sp, pc}
4100941c:	0000202c 	.word	0x0000202c
41009420:	ffffffe0 	.word	0xffffffe0
41009424:	ffffff90 	.word	0xffffff90
41009428:	000000a0 	.word	0x000000a0

4100942c <mk_time>:
4100942c:	e1a0c00d 	mov	ip, sp
41009430:	e92dd800 	push	{fp, ip, lr, pc}
41009434:	e24cb004 	sub	fp, ip, #4
41009438:	e24dd010 	sub	sp, sp, #16
4100943c:	e50b0018 	str	r0, [fp, #-24]	; 0xffffffe8
41009440:	e51b3018 	ldr	r3, [fp, #-24]	; 0xffffffe8
41009444:	e50b3010 	str	r3, [fp, #-16]
41009448:	e51b0010 	ldr	r0, [fp, #-16]
4100944c:	ebfff09a 	bl	410056bc <vh_settime>
41009450:	e3a03000 	mov	r3, #0
41009454:	e1a00003 	mov	r0, r3
41009458:	e24bd00c 	sub	sp, fp, #12
4100945c:	e89da800 	ldm	sp, {fp, sp, pc}

41009460 <sleep>:
41009460:	e1a0c00d 	mov	ip, sp
41009464:	e92dd800 	push	{fp, ip, lr, pc}
41009468:	e24cb004 	sub	fp, ip, #4
4100946c:	e24dd010 	sub	sp, sp, #16
41009470:	e59f1120 	ldr	r1, [pc, #288]	; 41009598 <sleep+0x138>
41009474:	e08f1001 	add	r1, pc, r1
41009478:	e50b0018 	str	r0, [fp, #-24]	; 0xffffffe8
4100947c:	e51b3018 	ldr	r3, [fp, #-24]	; 0xffffffe8
41009480:	e50b3010 	str	r3, [fp, #-16]
41009484:	e59f3110 	ldr	r3, [pc, #272]	; 4100959c <sleep+0x13c>
41009488:	e7913003 	ldr	r3, [r1, r3]
4100948c:	e5933000 	ldr	r3, [r3]
41009490:	e5932004 	ldr	r2, [r3, #4]
41009494:	e59f3104 	ldr	r3, [pc, #260]	; 410095a0 <sleep+0x140>
41009498:	e7910003 	ldr	r0, [r1, r3]
4100949c:	e3a0c004 	mov	ip, #4
410094a0:	e1a03002 	mov	r3, r2
410094a4:	e1a02103 	lsl	r2, r3, #2
410094a8:	e1a03102 	lsl	r3, r2, #2
410094ac:	e0623003 	rsb	r3, r2, r3
410094b0:	e0803003 	add	r3, r0, r3
410094b4:	e083200c 	add	r2, r3, ip
410094b8:	e3a03002 	mov	r3, #2
410094bc:	e5823000 	str	r3, [r2]
410094c0:	e59f30d4 	ldr	r3, [pc, #212]	; 4100959c <sleep+0x13c>
410094c4:	e7913003 	ldr	r3, [r1, r3]
410094c8:	e5933000 	ldr	r3, [r3]
410094cc:	e5932004 	ldr	r2, [r3, #4]
410094d0:	e51bc010 	ldr	ip, [fp, #-16]
410094d4:	e59f30c4 	ldr	r3, [pc, #196]	; 410095a0 <sleep+0x140>
410094d8:	e7910003 	ldr	r0, [r1, r3]
410094dc:	e1a03002 	mov	r3, r2
410094e0:	e1a02103 	lsl	r2, r3, #2
410094e4:	e1a03102 	lsl	r3, r2, #2
410094e8:	e0623003 	rsb	r3, r2, r3
410094ec:	e0803003 	add	r3, r0, r3
410094f0:	e583c000 	str	ip, [r3]
410094f4:	e59f30a0 	ldr	r3, [pc, #160]	; 4100959c <sleep+0x13c>
410094f8:	e7913003 	ldr	r3, [r1, r3]
410094fc:	e5933000 	ldr	r3, [r3]
41009500:	e5932004 	ldr	r2, [r3, #4]
41009504:	e59f3090 	ldr	r3, [pc, #144]	; 4100959c <sleep+0x13c>
41009508:	e7913003 	ldr	r3, [r1, r3]
4100950c:	e5930000 	ldr	r0, [r3]
41009510:	e59f3088 	ldr	r3, [pc, #136]	; 410095a0 <sleep+0x140>
41009514:	e791c003 	ldr	ip, [r1, r3]
41009518:	e3a0e008 	mov	lr, #8
4100951c:	e1a03002 	mov	r3, r2
41009520:	e1a02103 	lsl	r2, r3, #2
41009524:	e1a03102 	lsl	r3, r2, #2
41009528:	e0623003 	rsb	r3, r2, r3
4100952c:	e08c3003 	add	r3, ip, r3
41009530:	e083300e 	add	r3, r3, lr
41009534:	e5830000 	str	r0, [r3]
41009538:	e59f3064 	ldr	r3, [pc, #100]	; 410095a4 <sleep+0x144>
4100953c:	e7913003 	ldr	r3, [r1, r3]
41009540:	e5933000 	ldr	r3, [r3]
41009544:	e2832001 	add	r2, r3, #1
41009548:	e59f3054 	ldr	r3, [pc, #84]	; 410095a4 <sleep+0x144>
4100954c:	e7913003 	ldr	r3, [r1, r3]
41009550:	e5832000 	str	r2, [r3]
41009554:	e59f3040 	ldr	r3, [pc, #64]	; 4100959c <sleep+0x13c>
41009558:	e7913003 	ldr	r3, [r1, r3]
4100955c:	e5932000 	ldr	r2, [r3]
41009560:	e3a03002 	mov	r3, #2
41009564:	e5823000 	str	r3, [r2]
41009568:	e59f302c 	ldr	r3, [pc, #44]	; 4100959c <sleep+0x13c>
4100956c:	e7913003 	ldr	r3, [r1, r3]
41009570:	e5933000 	ldr	r3, [r3]
41009574:	e1a00003 	mov	r0, r3
41009578:	e59f3028 	ldr	r3, [pc, #40]	; 410095a8 <sleep+0x148>
4100957c:	e7913003 	ldr	r3, [r1, r3]
41009580:	e1a01003 	mov	r1, r3
41009584:	ebffeefd 	bl	41005180 <vk_thread_dequeue>
41009588:	ebfff231 	bl	41005e54 <vk_scheduler_unlock>
4100958c:	ebffe07b 	bl	41001780 <vk_swi_scheduler>
41009590:	e24bd00c 	sub	sp, fp, #12
41009594:	e89da800 	ldm	sp, {fp, sp, pc}
41009598:	00001c04 	.word	0x00001c04
4100959c:	000000ac 	.word	0x000000ac
410095a0:	00000004 	.word	0x00000004
410095a4:	00000034 	.word	0x00000034
410095a8:	0000007c 	.word	0x0000007c

410095ac <read_cntfrq>:
410095ac:	e52db004 	push	{fp}		; (str fp, [sp, #-4]!)
410095b0:	e28db000 	add	fp, sp, #0
410095b4:	e24dd00c 	sub	sp, sp, #12
410095b8:	ee1e3f10 	mrc	15, 0, r3, cr14, cr0, {0}
410095bc:	e50b3008 	str	r3, [fp, #-8]
410095c0:	e51b3008 	ldr	r3, [fp, #-8]
410095c4:	e1a00003 	mov	r0, r3
410095c8:	e28bd000 	add	sp, fp, #0
410095cc:	e49db004 	pop	{fp}		; (ldr fp, [sp], #4)
410095d0:	e12fff1e 	bx	lr

410095d4 <write_cntv_ctl>:
410095d4:	e52db004 	push	{fp}		; (str fp, [sp, #-4]!)
410095d8:	e28db000 	add	fp, sp, #0
410095dc:	e24dd00c 	sub	sp, sp, #12
410095e0:	e50b0008 	str	r0, [fp, #-8]
410095e4:	e51b3008 	ldr	r3, [fp, #-8]
410095e8:	ee0e3f33 	mcr	15, 0, r3, cr14, cr3, {1}
410095ec:	e320f000 	nop	{0}
410095f0:	e28bd000 	add	sp, fp, #0
410095f4:	e49db004 	pop	{fp}		; (ldr fp, [sp], #4)
410095f8:	e12fff1e 	bx	lr

410095fc <read_cntvct>:
410095fc:	e92d0830 	push	{r4, r5, fp}
41009600:	e28db008 	add	fp, sp, #8
41009604:	e24dd014 	sub	sp, sp, #20
41009608:	ec520f1e 	mrrc	15, 1, r0, r2, cr14
4100960c:	e14b01f4 	strd	r0, [fp, #-20]	; 0xffffffec
41009610:	e14b21fc 	strd	r2, [fp, #-28]	; 0xffffffe4
41009614:	e14b01dc 	ldrd	r0, [fp, #-28]	; 0xffffffe4
41009618:	e3a02000 	mov	r2, #0
4100961c:	e3a03000 	mov	r3, #0
41009620:	e1a03000 	mov	r3, r0
41009624:	e3a02000 	mov	r2, #0
41009628:	e14b01d4 	ldrd	r0, [fp, #-20]	; 0xffffffec
4100962c:	e1824000 	orr	r4, r2, r0
41009630:	e1835001 	orr	r5, r3, r1
41009634:	e1a02004 	mov	r2, r4
41009638:	e1a03005 	mov	r3, r5
4100963c:	e1a00002 	mov	r0, r2
41009640:	e1a01003 	mov	r1, r3
41009644:	e24bd008 	sub	sp, fp, #8
41009648:	e8bd0830 	pop	{r4, r5, fp}
4100964c:	e12fff1e 	bx	lr

41009650 <write_cntv_cval>:
41009650:	e52db004 	push	{fp}		; (str fp, [sp, #-4]!)
41009654:	e28db000 	add	fp, sp, #0
41009658:	e24dd014 	sub	sp, sp, #20
4100965c:	e14b01f4 	strd	r0, [fp, #-20]	; 0xffffffec
41009660:	e51b3014 	ldr	r3, [fp, #-20]	; 0xffffffec
41009664:	e50b3008 	str	r3, [fp, #-8]
41009668:	e14b01d4 	ldrd	r0, [fp, #-20]	; 0xffffffec
4100966c:	e3a02000 	mov	r2, #0
41009670:	e3a03000 	mov	r3, #0
41009674:	e1a02001 	mov	r2, r1
41009678:	e3a03000 	mov	r3, #0
4100967c:	e1a03002 	mov	r3, r2
41009680:	e50b300c 	str	r3, [fp, #-12]
41009684:	e51b3008 	ldr	r3, [fp, #-8]
41009688:	e51b200c 	ldr	r2, [fp, #-12]
4100968c:	ec423f3e 	mcrr	15, 3, r3, r2, cr14
41009690:	e320f000 	nop	{0}
41009694:	e28bd000 	add	sp, fp, #0
41009698:	e49db004 	pop	{fp}		; (ldr fp, [sp], #4)
4100969c:	e12fff1e 	bx	lr

410096a0 <write_cntv_tval>:
410096a0:	e52db004 	push	{fp}		; (str fp, [sp, #-4]!)
410096a4:	e28db000 	add	fp, sp, #0
410096a8:	e24dd00c 	sub	sp, sp, #12
410096ac:	e50b0008 	str	r0, [fp, #-8]
410096b0:	e51b3008 	ldr	r3, [fp, #-8]
410096b4:	ee0e3f13 	mcr	15, 0, r3, cr14, cr3, {0}
410096b8:	e320f000 	nop	{0}
410096bc:	e28bd000 	add	sp, fp, #0
410096c0:	e49db004 	pop	{fp}		; (ldr fp, [sp], #4)
410096c4:	e12fff1e 	bx	lr

410096c8 <read_cntv_tval>:
410096c8:	e52db004 	push	{fp}		; (str fp, [sp, #-4]!)
410096cc:	e28db000 	add	fp, sp, #0
410096d0:	e24dd00c 	sub	sp, sp, #12
410096d4:	ee1e3f13 	mrc	15, 0, r3, cr14, cr3, {0}
410096d8:	e50b3008 	str	r3, [fp, #-8]
410096dc:	e51b3008 	ldr	r3, [fp, #-8]
410096e0:	e1a00003 	mov	r0, r3
410096e4:	e28bd000 	add	sp, fp, #0
410096e8:	e49db004 	pop	{fp}		; (ldr fp, [sp], #4)
410096ec:	e12fff1e 	bx	lr

410096f0 <vh_timer_init>:
410096f0:	e92d4830 	push	{r4, r5, fp, lr}
410096f4:	e28db00c 	add	fp, sp, #12
410096f8:	e59f4038 	ldr	r4, [pc, #56]	; 41009738 <vh_timer_init+0x48>
410096fc:	e08f4004 	add	r4, pc, r4
41009700:	e3a00000 	mov	r0, #0
41009704:	ebffffb2 	bl	410095d4 <write_cntv_ctl>
41009708:	ebffffa7 	bl	410095ac <read_cntfrq>
4100970c:	e1a03000 	mov	r3, r0
41009710:	e1a00003 	mov	r0, r3
41009714:	ebffffe1 	bl	410096a0 <write_cntv_tval>
41009718:	e3a00001 	mov	r0, #1
4100971c:	ebffffac 	bl	410095d4 <write_cntv_ctl>
41009720:	e59f3014 	ldr	r3, [pc, #20]	; 4100973c <vh_timer_init+0x4c>
41009724:	e7943003 	ldr	r3, [r4, r3]
41009728:	e3a02000 	mov	r2, #0
4100972c:	e5832000 	str	r2, [r3]
41009730:	e320f000 	nop	{0}
41009734:	e8bd8830 	pop	{r4, r5, fp, pc}
41009738:	0000197c 	.word	0x0000197c
4100973c:	00000084 	.word	0x00000084

41009740 <vh_timer_irq_enable>:
41009740:	e52db004 	push	{fp}		; (str fp, [sp, #-4]!)
41009744:	e28db000 	add	fp, sp, #0
41009748:	e3a03d0e 	mov	r3, #896	; 0x380
4100974c:	e3403800 	movt	r3, #2048	; 0x800
41009750:	e3a02302 	mov	r2, #134217728	; 0x8000000
41009754:	e5832000 	str	r2, [r3]
41009758:	e3a03d0a 	mov	r3, #640	; 0x280
4100975c:	e3403800 	movt	r3, #2048	; 0x800
41009760:	e3a02302 	mov	r2, #134217728	; 0x8000000
41009764:	e5832000 	str	r2, [r3]
41009768:	e3a03c01 	mov	r3, #256	; 0x100
4100976c:	e3403800 	movt	r3, #2048	; 0x800
41009770:	e3a02302 	mov	r2, #134217728	; 0x8000000
41009774:	e5832000 	str	r2, [r3]
41009778:	e3003818 	movw	r3, #2072	; 0x818
4100977c:	e3403800 	movt	r3, #2048	; 0x800
41009780:	e3a02401 	mov	r2, #16777216	; 0x1000000
41009784:	e5832000 	str	r2, [r3]
41009788:	e320f000 	nop	{0}
4100978c:	e28bd000 	add	sp, fp, #0
41009790:	e49db004 	pop	{fp}		; (ldr fp, [sp], #4)
41009794:	e12fff1e 	bx	lr

41009798 <vh_timer_interrupt_handler>:
41009798:	e92d4830 	push	{r4, r5, fp, lr}
4100979c:	e28db00c 	add	fp, sp, #12
410097a0:	e59f4084 	ldr	r4, [pc, #132]	; 4100982c <vh_timer_interrupt_handler+0x94>
410097a4:	e08f4004 	add	r4, pc, r4
410097a8:	eb000030 	bl	41009870 <vk_timer_irq_disable>
410097ac:	e59f307c 	ldr	r3, [pc, #124]	; 41009830 <vh_timer_interrupt_handler+0x98>
410097b0:	e7943003 	ldr	r3, [r4, r3]
410097b4:	e1a00003 	mov	r0, r3
410097b8:	ebffda92 	bl	41000208 <vh_save_thread_ctx>
410097bc:	e59f306c 	ldr	r3, [pc, #108]	; 41009830 <vh_timer_interrupt_handler+0x98>
410097c0:	e7943003 	ldr	r3, [r4, r3]
410097c4:	e1a02003 	mov	r2, r3
410097c8:	e59f3064 	ldr	r3, [pc, #100]	; 41009834 <vh_timer_interrupt_handler+0x9c>
410097cc:	e7943003 	ldr	r3, [r4, r3]
410097d0:	e5832000 	str	r2, [r3]
410097d4:	e59f305c 	ldr	r3, [pc, #92]	; 41009838 <vh_timer_interrupt_handler+0xa0>
410097d8:	e7943003 	ldr	r3, [r4, r3]
410097dc:	e3a02001 	mov	r2, #1
410097e0:	e5832000 	str	r2, [r3]
410097e4:	e59f3050 	ldr	r3, [pc, #80]	; 4100983c <vh_timer_interrupt_handler+0xa4>
410097e8:	e08f3003 	add	r3, pc, r3
410097ec:	e1a00003 	mov	r0, r3
410097f0:	ebffeca0 	bl	41004a78 <printf>
410097f4:	e59f3044 	ldr	r3, [pc, #68]	; 41009840 <vh_timer_interrupt_handler+0xa8>
410097f8:	e7943003 	ldr	r3, [r4, r3]
410097fc:	e5933000 	ldr	r3, [r3]
41009800:	e5932030 	ldr	r2, [r3, #48]	; 0x30
41009804:	e2822001 	add	r2, r2, #1
41009808:	e5832030 	str	r2, [r3, #48]	; 0x30
4100980c:	e59f3030 	ldr	r3, [pc, #48]	; 41009844 <vh_timer_interrupt_handler+0xac>
41009810:	e7943003 	ldr	r3, [r4, r3]
41009814:	e5933000 	ldr	r3, [r3]
41009818:	e3530000 	cmp	r3, #0
4100981c:	1a000000 	bne	41009824 <vh_timer_interrupt_handler+0x8c>
41009820:	ebffdfd6 	bl	41001780 <vk_swi_scheduler>
41009824:	e320f000 	nop	{0}
41009828:	e8bd8830 	pop	{r4, r5, fp, pc}
4100982c:	000018d4 	.word	0x000018d4
41009830:	0000009c 	.word	0x0000009c
41009834:	00000018 	.word	0x00000018
41009838:	00000084 	.word	0x00000084
4100983c:	00001470 	.word	0x00001470
41009840:	000000ac 	.word	0x000000ac
41009844:	00000040 	.word	0x00000040

41009848 <vk_timer_irq_enable>:
41009848:	e92d4800 	push	{fp, lr}
4100984c:	e28db004 	add	fp, sp, #4
41009850:	ebffff55 	bl	410095ac <read_cntfrq>
41009854:	e1a03000 	mov	r3, r0
41009858:	e1a00003 	mov	r0, r3
4100985c:	ebffff8f 	bl	410096a0 <write_cntv_tval>
41009860:	e3a00001 	mov	r0, #1
41009864:	ebffff5a 	bl	410095d4 <write_cntv_ctl>
41009868:	e320f000 	nop	{0}
4100986c:	e8bd8800 	pop	{fp, pc}

41009870 <vk_timer_irq_disable>:
41009870:	e92d4800 	push	{fp, lr}
41009874:	e28db004 	add	fp, sp, #4
41009878:	e3a00000 	mov	r0, #0
4100987c:	ebffff54 	bl	410095d4 <write_cntv_ctl>
41009880:	e320f000 	nop	{0}
41009884:	e8bd8800 	pop	{fp, pc}

41009888 <thread>:
41009888:	e92d4800 	push	{fp, lr}
4100988c:	e28db004 	add	fp, sp, #4
41009890:	e24dd018 	sub	sp, sp, #24
41009894:	e50b0018 	str	r0, [fp, #-24]	; 0xffffffe8
41009898:	e59f1084 	ldr	r1, [pc, #132]	; 41009924 <thread+0x9c>
4100989c:	e08f1001 	add	r1, pc, r1
410098a0:	e3a03000 	mov	r3, #0
410098a4:	e50b3008 	str	r3, [fp, #-8]
410098a8:	e24b0010 	sub	r0, fp, #16
410098ac:	e3a03000 	mov	r3, #0
410098b0:	e59f2070 	ldr	r2, [pc, #112]	; 41009928 <thread+0xa0>
410098b4:	e7912002 	ldr	r2, [r1, r2]
410098b8:	e3a01000 	mov	r1, #0
410098bc:	ebfffc4d 	bl	410089f8 <pthread_create>
410098c0:	e51b3008 	ldr	r3, [fp, #-8]
410098c4:	e2833001 	add	r3, r3, #1
410098c8:	e50b3008 	str	r3, [fp, #-8]
410098cc:	e51b2008 	ldr	r2, [fp, #-8]
410098d0:	e3043b40 	movw	r3, #19264	; 0x4b40
410098d4:	e340304c 	movt	r3, #76	; 0x4c
410098d8:	e1520003 	cmp	r2, r3
410098dc:	1afffff7 	bne	410098c0 <thread+0x38>
410098e0:	ebffda06 	bl	41000100 <vt_read>
410098e4:	e1a03000 	mov	r3, r0
410098e8:	e1a01003 	mov	r1, r3
410098ec:	e59f3038 	ldr	r3, [pc, #56]	; 4100992c <thread+0xa4>
410098f0:	e08f3003 	add	r3, pc, r3
410098f4:	e1a00003 	mov	r0, r3
410098f8:	ebffec30 	bl	410049c0 <printk>
410098fc:	ebffd9fd 	bl	410000f8 <vt_read_sp>
41009900:	e1a03000 	mov	r3, r0
41009904:	e1a01003 	mov	r1, r3
41009908:	e59f3020 	ldr	r3, [pc, #32]	; 41009930 <thread+0xa8>
4100990c:	e08f3003 	add	r3, pc, r3
41009910:	e1a00003 	mov	r0, r3
41009914:	ebffec29 	bl	410049c0 <printk>
41009918:	e3a03000 	mov	r3, #0
4100991c:	e50b3008 	str	r3, [fp, #-8]
41009920:	eaffffe6 	b	410098c0 <thread+0x38>
41009924:	000017dc 	.word	0x000017dc
41009928:	0000001c 	.word	0x0000001c
4100992c:	0000139c 	.word	0x0000139c
41009930:	00001394 	.word	0x00001394

41009934 <thread2>:
41009934:	e92d4800 	push	{fp, lr}
41009938:	e28db004 	add	fp, sp, #4
4100993c:	e24dd010 	sub	sp, sp, #16
41009940:	e50b0010 	str	r0, [fp, #-16]
41009944:	e3a03000 	mov	r3, #0
41009948:	e50b3008 	str	r3, [fp, #-8]
4100994c:	e51b3008 	ldr	r3, [fp, #-8]
41009950:	e2833001 	add	r3, r3, #1
41009954:	e50b3008 	str	r3, [fp, #-8]
41009958:	e51b2008 	ldr	r2, [fp, #-8]
4100995c:	e3043b40 	movw	r3, #19264	; 0x4b40
41009960:	e340304c 	movt	r3, #76	; 0x4c
41009964:	e1520003 	cmp	r2, r3
41009968:	1afffff7 	bne	4100994c <thread2+0x18>
4100996c:	ebffd9e3 	bl	41000100 <vt_read>
41009970:	e1a03000 	mov	r3, r0
41009974:	e1a01003 	mov	r1, r3
41009978:	e59f3030 	ldr	r3, [pc, #48]	; 410099b0 <thread2+0x7c>
4100997c:	e08f3003 	add	r3, pc, r3
41009980:	e1a00003 	mov	r0, r3
41009984:	ebffec0d 	bl	410049c0 <printk>
41009988:	ebffd9da 	bl	410000f8 <vt_read_sp>
4100998c:	e1a03000 	mov	r3, r0
41009990:	e1a01003 	mov	r1, r3
41009994:	e59f3018 	ldr	r3, [pc, #24]	; 410099b4 <thread2+0x80>
41009998:	e08f3003 	add	r3, pc, r3
4100999c:	e1a00003 	mov	r0, r3
410099a0:	ebffec06 	bl	410049c0 <printk>
410099a4:	e3a03000 	mov	r3, #0
410099a8:	e50b3008 	str	r3, [fp, #-8]
410099ac:	eaffffe6 	b	4100994c <thread2+0x18>
410099b0:	00001338 	.word	0x00001338
410099b4:	00001330 	.word	0x00001330

410099b8 <thread3>:
410099b8:	e92d4800 	push	{fp, lr}
410099bc:	e28db004 	add	fp, sp, #4
410099c0:	e24dd018 	sub	sp, sp, #24
410099c4:	e50b0018 	str	r0, [fp, #-24]	; 0xffffffe8
410099c8:	e59f10c4 	ldr	r1, [pc, #196]	; 41009a94 <thread3+0xdc>
410099cc:	e08f1001 	add	r1, pc, r1
410099d0:	e3a03000 	mov	r3, #0
410099d4:	e50b3008 	str	r3, [fp, #-8]
410099d8:	e24b0010 	sub	r0, fp, #16
410099dc:	e3a03000 	mov	r3, #0
410099e0:	e59f20b0 	ldr	r2, [pc, #176]	; 41009a98 <thread3+0xe0>
410099e4:	e7912002 	ldr	r2, [r1, r2]
410099e8:	e3a01000 	mov	r1, #0
410099ec:	ebfffc01 	bl	410089f8 <pthread_create>
410099f0:	e51b3008 	ldr	r3, [fp, #-8]
410099f4:	e2833001 	add	r3, r3, #1
410099f8:	e50b3008 	str	r3, [fp, #-8]
410099fc:	e51b2008 	ldr	r2, [fp, #-8]
41009a00:	e30d3e83 	movw	r3, #56963	; 0xde83
41009a04:	e344331b 	movt	r3, #17179	; 0x431b
41009a08:	e0c31293 	smull	r1, r3, r3, r2
41009a0c:	e1a01943 	asr	r1, r3, #18
41009a10:	e1a03fc2 	asr	r3, r2, #31
41009a14:	e0413003 	sub	r3, r1, r3
41009a18:	e3041240 	movw	r1, #16960	; 0x4240
41009a1c:	e340100f 	movt	r1, #15
41009a20:	e0030391 	mul	r3, r1, r3
41009a24:	e0423003 	sub	r3, r2, r3
41009a28:	e3530000 	cmp	r3, #0
41009a2c:	1affffef 	bne	410099f0 <thread3+0x38>
41009a30:	ebffd9b2 	bl	41000100 <vt_read>
41009a34:	e1a03000 	mov	r3, r0
41009a38:	e1a01003 	mov	r1, r3
41009a3c:	e59f3058 	ldr	r3, [pc, #88]	; 41009a9c <thread3+0xe4>
41009a40:	e08f3003 	add	r3, pc, r3
41009a44:	e1a00003 	mov	r0, r3
41009a48:	ebffebdc 	bl	410049c0 <printk>
41009a4c:	ebffd9a9 	bl	410000f8 <vt_read_sp>
41009a50:	e1a03000 	mov	r3, r0
41009a54:	e1a01003 	mov	r1, r3
41009a58:	e59f3040 	ldr	r3, [pc, #64]	; 41009aa0 <thread3+0xe8>
41009a5c:	e08f3003 	add	r3, pc, r3
41009a60:	e1a00003 	mov	r0, r3
41009a64:	ebffebd5 	bl	410049c0 <printk>
41009a68:	e51b2008 	ldr	r2, [fp, #-8]
41009a6c:	e3043b40 	movw	r3, #19264	; 0x4b40
41009a70:	e340304c 	movt	r3, #76	; 0x4c
41009a74:	e1520003 	cmp	r2, r3
41009a78:	0a000000 	beq	41009a80 <thread3+0xc8>
41009a7c:	eaffffdb 	b	410099f0 <thread3+0x38>
41009a80:	e320f000 	nop	{0}
41009a84:	e3a03000 	mov	r3, #0
41009a88:	e1a00003 	mov	r0, r3
41009a8c:	e24bd004 	sub	sp, fp, #4
41009a90:	e8bd8800 	pop	{fp, pc}
41009a94:	000016ac 	.word	0x000016ac
41009a98:	0000004c 	.word	0x0000004c
41009a9c:	0000124c 	.word	0x0000124c
41009aa0:	00001244 	.word	0x00001244

41009aa4 <thread4>:
41009aa4:	e92d4800 	push	{fp, lr}
41009aa8:	e28db004 	add	fp, sp, #4
41009aac:	e24dd010 	sub	sp, sp, #16
41009ab0:	e50b0010 	str	r0, [fp, #-16]
41009ab4:	e3a03000 	mov	r3, #0
41009ab8:	e50b3008 	str	r3, [fp, #-8]
41009abc:	e51b3008 	ldr	r3, [fp, #-8]
41009ac0:	e2833001 	add	r3, r3, #1
41009ac4:	e50b3008 	str	r3, [fp, #-8]
41009ac8:	e51b2008 	ldr	r2, [fp, #-8]
41009acc:	e30d3e83 	movw	r3, #56963	; 0xde83
41009ad0:	e344331b 	movt	r3, #17179	; 0x431b
41009ad4:	e0c31293 	smull	r1, r3, r3, r2
41009ad8:	e1a01943 	asr	r1, r3, #18
41009adc:	e1a03fc2 	asr	r3, r2, #31
41009ae0:	e0413003 	sub	r3, r1, r3
41009ae4:	e3041240 	movw	r1, #16960	; 0x4240
41009ae8:	e340100f 	movt	r1, #15
41009aec:	e0030391 	mul	r3, r1, r3
41009af0:	e0423003 	sub	r3, r2, r3
41009af4:	e3530000 	cmp	r3, #0
41009af8:	1affffef 	bne	41009abc <thread4+0x18>
41009afc:	ebffd97f 	bl	41000100 <vt_read>
41009b00:	e1a03000 	mov	r3, r0
41009b04:	e1a01003 	mov	r1, r3
41009b08:	e59f3050 	ldr	r3, [pc, #80]	; 41009b60 <thread4+0xbc>
41009b0c:	e08f3003 	add	r3, pc, r3
41009b10:	e1a00003 	mov	r0, r3
41009b14:	ebffeba9 	bl	410049c0 <printk>
41009b18:	ebffd976 	bl	410000f8 <vt_read_sp>
41009b1c:	e1a03000 	mov	r3, r0
41009b20:	e1a01003 	mov	r1, r3
41009b24:	e59f3038 	ldr	r3, [pc, #56]	; 41009b64 <thread4+0xc0>
41009b28:	e08f3003 	add	r3, pc, r3
41009b2c:	e1a00003 	mov	r0, r3
41009b30:	ebffeba2 	bl	410049c0 <printk>
41009b34:	e51b2008 	ldr	r2, [fp, #-8]
41009b38:	e3043b40 	movw	r3, #19264	; 0x4b40
41009b3c:	e340304c 	movt	r3, #76	; 0x4c
41009b40:	e1520003 	cmp	r2, r3
41009b44:	0a000000 	beq	41009b4c <thread4+0xa8>
41009b48:	eaffffdb 	b	41009abc <thread4+0x18>
41009b4c:	e320f000 	nop	{0}
41009b50:	e3a03000 	mov	r3, #0
41009b54:	e1a00003 	mov	r0, r3
41009b58:	e24bd004 	sub	sp, fp, #4
41009b5c:	e8bd8800 	pop	{fp, pc}
41009b60:	000011a8 	.word	0x000011a8
41009b64:	000011a0 	.word	0x000011a0

41009b68 <vu_debug>:
41009b68:	e92d4810 	push	{r4, fp, lr}
41009b6c:	e28db008 	add	fp, sp, #8
41009b70:	e24dd014 	sub	sp, sp, #20
41009b74:	e50b0018 	str	r0, [fp, #-24]	; 0xffffffe8
41009b78:	e59f413c 	ldr	r4, [pc, #316]	; 41009cbc <vu_debug+0x154>
41009b7c:	e08f4004 	add	r4, pc, r4
41009b80:	e59f3138 	ldr	r3, [pc, #312]	; 41009cc0 <vu_debug+0x158>
41009b84:	e7943003 	ldr	r3, [r4, r3]
41009b88:	e5933000 	ldr	r3, [r3]
41009b8c:	e1a01003 	mov	r1, r3
41009b90:	e59f312c 	ldr	r3, [pc, #300]	; 41009cc4 <vu_debug+0x15c>
41009b94:	e08f3003 	add	r3, pc, r3
41009b98:	e1a00003 	mov	r0, r3
41009b9c:	ebffebb5 	bl	41004a78 <printf>
41009ba0:	e59f3120 	ldr	r3, [pc, #288]	; 41009cc8 <vu_debug+0x160>
41009ba4:	e7943003 	ldr	r3, [r4, r3]
41009ba8:	e5933000 	ldr	r3, [r3]
41009bac:	e1a01003 	mov	r1, r3
41009bb0:	e59f3114 	ldr	r3, [pc, #276]	; 41009ccc <vu_debug+0x164>
41009bb4:	e08f3003 	add	r3, pc, r3
41009bb8:	e1a00003 	mov	r0, r3
41009bbc:	ebffebad 	bl	41004a78 <printf>
41009bc0:	e59f3108 	ldr	r3, [pc, #264]	; 41009cd0 <vu_debug+0x168>
41009bc4:	e7943003 	ldr	r3, [r4, r3]
41009bc8:	e5933000 	ldr	r3, [r3]
41009bcc:	e1a01003 	mov	r1, r3
41009bd0:	e59f30fc 	ldr	r3, [pc, #252]	; 41009cd4 <vu_debug+0x16c>
41009bd4:	e08f3003 	add	r3, pc, r3
41009bd8:	e1a00003 	mov	r0, r3
41009bdc:	ebffeba5 	bl	41004a78 <printf>
41009be0:	e59f30f0 	ldr	r3, [pc, #240]	; 41009cd8 <vu_debug+0x170>
41009be4:	e7943003 	ldr	r3, [r4, r3]
41009be8:	e5933000 	ldr	r3, [r3]
41009bec:	e1a01003 	mov	r1, r3
41009bf0:	e59f30e4 	ldr	r3, [pc, #228]	; 41009cdc <vu_debug+0x174>
41009bf4:	e08f3003 	add	r3, pc, r3
41009bf8:	e1a00003 	mov	r0, r3
41009bfc:	ebffeb9d 	bl	41004a78 <printf>
41009c00:	e59f30d8 	ldr	r3, [pc, #216]	; 41009ce0 <vu_debug+0x178>
41009c04:	e7943003 	ldr	r3, [r4, r3]
41009c08:	e5933000 	ldr	r3, [r3]
41009c0c:	e1a01003 	mov	r1, r3
41009c10:	e59f30cc 	ldr	r3, [pc, #204]	; 41009ce4 <vu_debug+0x17c>
41009c14:	e08f3003 	add	r3, pc, r3
41009c18:	e1a00003 	mov	r0, r3
41009c1c:	ebffeb95 	bl	41004a78 <printf>
41009c20:	e59f30c0 	ldr	r3, [pc, #192]	; 41009ce8 <vu_debug+0x180>
41009c24:	e08f3003 	add	r3, pc, r3
41009c28:	e1a00003 	mov	r0, r3
41009c2c:	ebffeb91 	bl	41004a78 <printf>
41009c30:	e3a03000 	mov	r3, #0
41009c34:	e50b3010 	str	r3, [fp, #-16]
41009c38:	ea00000c 	b	41009c70 <vu_debug+0x108>
41009c3c:	e59f30a8 	ldr	r3, [pc, #168]	; 41009cec <vu_debug+0x184>
41009c40:	e7943003 	ldr	r3, [r4, r3]
41009c44:	e51b2010 	ldr	r2, [fp, #-16]
41009c48:	e7933102 	ldr	r3, [r3, r2, lsl #2]
41009c4c:	e1a02003 	mov	r2, r3
41009c50:	e51b1010 	ldr	r1, [fp, #-16]
41009c54:	e59f3094 	ldr	r3, [pc, #148]	; 41009cf0 <vu_debug+0x188>
41009c58:	e08f3003 	add	r3, pc, r3
41009c5c:	e1a00003 	mov	r0, r3
41009c60:	ebffeb84 	bl	41004a78 <printf>
41009c64:	e51b3010 	ldr	r3, [fp, #-16]
41009c68:	e2833001 	add	r3, r3, #1
41009c6c:	e50b3010 	str	r3, [fp, #-16]
41009c70:	e51b3010 	ldr	r3, [fp, #-16]
41009c74:	e353000e 	cmp	r3, #14
41009c78:	9affffef 	bls	41009c3c <vu_debug+0xd4>
41009c7c:	e59f3070 	ldr	r3, [pc, #112]	; 41009cf4 <vu_debug+0x18c>
41009c80:	e08f3003 	add	r3, pc, r3
41009c84:	e1a00003 	mov	r0, r3
41009c88:	ebffeb7a 	bl	41004a78 <printf>
41009c8c:	e59f3064 	ldr	r3, [pc, #100]	; 41009cf8 <vu_debug+0x190>
41009c90:	e7943003 	ldr	r3, [r4, r3]
41009c94:	e5933000 	ldr	r3, [r3]
41009c98:	e1a01003 	mov	r1, r3
41009c9c:	e59f3058 	ldr	r3, [pc, #88]	; 41009cfc <vu_debug+0x194>
41009ca0:	e08f3003 	add	r3, pc, r3
41009ca4:	e1a00003 	mov	r0, r3
41009ca8:	ebffeb72 	bl	41004a78 <printf>
41009cac:	e3a03000 	mov	r3, #0
41009cb0:	e1a00003 	mov	r0, r3
41009cb4:	e24bd008 	sub	sp, fp, #8
41009cb8:	e8bd8810 	pop	{r4, fp, pc}
41009cbc:	000014fc 	.word	0x000014fc
41009cc0:	000000b8 	.word	0x000000b8
41009cc4:	00001148 	.word	0x00001148
41009cc8:	00000028 	.word	0x00000028
41009ccc:	00001144 	.word	0x00001144
41009cd0:	0000003c 	.word	0x0000003c
41009cd4:	00001138 	.word	0x00001138
41009cd8:	00000048 	.word	0x00000048
41009cdc:	00001134 	.word	0x00001134
41009ce0:	00000050 	.word	0x00000050
41009ce4:	00001130 	.word	0x00001130
41009ce8:	00001140 	.word	0x00001140
41009cec:	000000c8 	.word	0x000000c8
41009cf0:	0000112c 	.word	0x0000112c
41009cf4:	00001110 	.word	0x00001110
41009cf8:	00000054 	.word	0x00000054
41009cfc:	000010f4 	.word	0x000010f4

41009d00 <vu_help>:
41009d00:	e92d4810 	push	{r4, fp, lr}
41009d04:	e28db008 	add	fp, sp, #8
41009d08:	e24dd014 	sub	sp, sp, #20
41009d0c:	e50b0018 	str	r0, [fp, #-24]	; 0xffffffe8
41009d10:	e59f40c0 	ldr	r4, [pc, #192]	; 41009dd8 <vu_help+0xd8>
41009d14:	e08f4004 	add	r4, pc, r4
41009d18:	e3a03000 	mov	r3, #0
41009d1c:	e50b3010 	str	r3, [fp, #-16]
41009d20:	e59f30b4 	ldr	r3, [pc, #180]	; 41009ddc <vu_help+0xdc>
41009d24:	e08f3003 	add	r3, pc, r3
41009d28:	e1a00003 	mov	r0, r3
41009d2c:	ebffeb23 	bl	410049c0 <printk>
41009d30:	ea000016 	b	41009d90 <vu_help+0x90>
41009d34:	e59f30a4 	ldr	r3, [pc, #164]	; 41009de0 <vu_help+0xe0>
41009d38:	e7942003 	ldr	r2, [r4, r3]
41009d3c:	e51b3010 	ldr	r3, [fp, #-16]
41009d40:	e3a0100c 	mov	r1, #12
41009d44:	e0030391 	mul	r3, r1, r3
41009d48:	e0823003 	add	r3, r2, r3
41009d4c:	e5931000 	ldr	r1, [r3]
41009d50:	e59f3088 	ldr	r3, [pc, #136]	; 41009de0 <vu_help+0xe0>
41009d54:	e7942003 	ldr	r2, [r4, r3]
41009d58:	e51b3010 	ldr	r3, [fp, #-16]
41009d5c:	e3a0000c 	mov	r0, #12
41009d60:	e0030390 	mul	r3, r0, r3
41009d64:	e0823003 	add	r3, r2, r3
41009d68:	e2833004 	add	r3, r3, #4
41009d6c:	e5933000 	ldr	r3, [r3]
41009d70:	e1a02003 	mov	r2, r3
41009d74:	e59f3068 	ldr	r3, [pc, #104]	; 41009de4 <vu_help+0xe4>
41009d78:	e08f3003 	add	r3, pc, r3
41009d7c:	e1a00003 	mov	r0, r3
41009d80:	ebffeb0e 	bl	410049c0 <printk>
41009d84:	e51b3010 	ldr	r3, [fp, #-16]
41009d88:	e2833001 	add	r3, r3, #1
41009d8c:	e50b3010 	str	r3, [fp, #-16]
41009d90:	e59f3048 	ldr	r3, [pc, #72]	; 41009de0 <vu_help+0xe0>
41009d94:	e7942003 	ldr	r2, [r4, r3]
41009d98:	e51b3010 	ldr	r3, [fp, #-16]
41009d9c:	e3a0100c 	mov	r1, #12
41009da0:	e0030391 	mul	r3, r1, r3
41009da4:	e0823003 	add	r3, r2, r3
41009da8:	e2833008 	add	r3, r3, #8
41009dac:	e5933000 	ldr	r3, [r3]
41009db0:	e3530000 	cmp	r3, #0
41009db4:	1affffde 	bne	41009d34 <vu_help+0x34>
41009db8:	e59f3028 	ldr	r3, [pc, #40]	; 41009de8 <vu_help+0xe8>
41009dbc:	e08f3003 	add	r3, pc, r3
41009dc0:	e1a00003 	mov	r0, r3
41009dc4:	ebffeafd 	bl	410049c0 <printk>
41009dc8:	e3a03000 	mov	r3, #0
41009dcc:	e1a00003 	mov	r0, r3
41009dd0:	e24bd008 	sub	sp, fp, #8
41009dd4:	e8bd8810 	pop	{r4, fp, pc}
41009dd8:	00001364 	.word	0x00001364
41009ddc:	0000108c 	.word	0x0000108c
41009de0:	000000a8 	.word	0x000000a8
41009de4:	00001070 	.word	0x00001070
41009de8:	00001038 	.word	0x00001038

41009dec <race_log>:
41009dec:	e92d4800 	push	{fp, lr}
41009df0:	e28db004 	add	fp, sp, #4
41009df4:	e24dd008 	sub	sp, sp, #8
41009df8:	e50b0008 	str	r0, [fp, #-8]
41009dfc:	e59f2030 	ldr	r2, [pc, #48]	; 41009e34 <race_log+0x48>
41009e00:	e08f2002 	add	r2, pc, r2
41009e04:	e59f302c 	ldr	r3, [pc, #44]	; 41009e38 <race_log+0x4c>
41009e08:	e7923003 	ldr	r3, [r2, r3]
41009e0c:	e5933000 	ldr	r3, [r3]
41009e10:	e1a01003 	mov	r1, r3
41009e14:	e59f3020 	ldr	r3, [pc, #32]	; 41009e3c <race_log+0x50>
41009e18:	e08f3003 	add	r3, pc, r3
41009e1c:	e1a00003 	mov	r0, r3
41009e20:	ebffeae6 	bl	410049c0 <printk>
41009e24:	e320f000 	nop	{0}
41009e28:	e1a00003 	mov	r0, r3
41009e2c:	e24bd004 	sub	sp, fp, #4
41009e30:	e8bd8800 	pop	{fp, pc}
41009e34:	00001278 	.word	0x00001278
41009e38:	00000030 	.word	0x00000030
41009e3c:	00001010 	.word	0x00001010

41009e40 <race_ex_0>:
41009e40:	e52db004 	push	{fp}		; (str fp, [sp, #-4]!)
41009e44:	e28db000 	add	fp, sp, #0
41009e48:	e24dd014 	sub	sp, sp, #20
41009e4c:	e50b0010 	str	r0, [fp, #-16]
41009e50:	e59f3074 	ldr	r3, [pc, #116]	; 41009ecc <race_ex_0+0x8c>
41009e54:	e08f3003 	add	r3, pc, r3
41009e58:	e3a02000 	mov	r2, #0
41009e5c:	e50b2008 	str	r2, [fp, #-8]
41009e60:	ea00000f 	b	41009ea4 <race_ex_0+0x64>
41009e64:	e59f2064 	ldr	r2, [pc, #100]	; 41009ed0 <race_ex_0+0x90>
41009e68:	e7932002 	ldr	r2, [r3, r2]
41009e6c:	e5922000 	ldr	r2, [r2]
41009e70:	e2821002 	add	r1, r2, #2
41009e74:	e59f2058 	ldr	r2, [pc, #88]	; 41009ed4 <race_ex_0+0x94>
41009e78:	e7932002 	ldr	r2, [r3, r2]
41009e7c:	e5821000 	str	r1, [r2]
41009e80:	e59f204c 	ldr	r2, [pc, #76]	; 41009ed4 <race_ex_0+0x94>
41009e84:	e7932002 	ldr	r2, [r3, r2]
41009e88:	e5921000 	ldr	r1, [r2]
41009e8c:	e59f203c 	ldr	r2, [pc, #60]	; 41009ed0 <race_ex_0+0x90>
41009e90:	e7932002 	ldr	r2, [r3, r2]
41009e94:	e5821000 	str	r1, [r2]
41009e98:	e51b2008 	ldr	r2, [fp, #-8]
41009e9c:	e2822001 	add	r2, r2, #1
41009ea0:	e50b2008 	str	r2, [fp, #-8]
41009ea4:	e51b1008 	ldr	r1, [fp, #-8]
41009ea8:	e30923df 	movw	r2, #37855	; 0x93df
41009eac:	e3402004 	movt	r2, #4
41009eb0:	e1510002 	cmp	r1, r2
41009eb4:	daffffea 	ble	41009e64 <race_ex_0+0x24>
41009eb8:	e3a03000 	mov	r3, #0
41009ebc:	e1a00003 	mov	r0, r3
41009ec0:	e28bd000 	add	sp, fp, #0
41009ec4:	e49db004 	pop	{fp}		; (ldr fp, [sp], #4)
41009ec8:	e12fff1e 	bx	lr
41009ecc:	00001224 	.word	0x00001224
41009ed0:	00000030 	.word	0x00000030
41009ed4:	00000058 	.word	0x00000058

41009ed8 <race_ex_1>:
41009ed8:	e52db004 	push	{fp}		; (str fp, [sp, #-4]!)
41009edc:	e28db000 	add	fp, sp, #0
41009ee0:	e24dd014 	sub	sp, sp, #20
41009ee4:	e50b0010 	str	r0, [fp, #-16]
41009ee8:	e59f3074 	ldr	r3, [pc, #116]	; 41009f64 <race_ex_1+0x8c>
41009eec:	e08f3003 	add	r3, pc, r3
41009ef0:	e3a02000 	mov	r2, #0
41009ef4:	e50b2008 	str	r2, [fp, #-8]
41009ef8:	ea00000f 	b	41009f3c <race_ex_1+0x64>
41009efc:	e59f2064 	ldr	r2, [pc, #100]	; 41009f68 <race_ex_1+0x90>
41009f00:	e7932002 	ldr	r2, [r3, r2]
41009f04:	e5922000 	ldr	r2, [r2]
41009f08:	e2421001 	sub	r1, r2, #1
41009f0c:	e59f2058 	ldr	r2, [pc, #88]	; 41009f6c <race_ex_1+0x94>
41009f10:	e7932002 	ldr	r2, [r3, r2]
41009f14:	e5821000 	str	r1, [r2]
41009f18:	e59f204c 	ldr	r2, [pc, #76]	; 41009f6c <race_ex_1+0x94>
41009f1c:	e7932002 	ldr	r2, [r3, r2]
41009f20:	e5921000 	ldr	r1, [r2]
41009f24:	e59f203c 	ldr	r2, [pc, #60]	; 41009f68 <race_ex_1+0x90>
41009f28:	e7932002 	ldr	r2, [r3, r2]
41009f2c:	e5821000 	str	r1, [r2]
41009f30:	e51b2008 	ldr	r2, [fp, #-8]
41009f34:	e2822001 	add	r2, r2, #1
41009f38:	e50b2008 	str	r2, [fp, #-8]
41009f3c:	e51b1008 	ldr	r1, [fp, #-8]
41009f40:	e30923df 	movw	r2, #37855	; 0x93df
41009f44:	e3402004 	movt	r2, #4
41009f48:	e1510002 	cmp	r1, r2
41009f4c:	daffffea 	ble	41009efc <race_ex_1+0x24>
41009f50:	e3a03000 	mov	r3, #0
41009f54:	e1a00003 	mov	r0, r3
41009f58:	e28bd000 	add	sp, fp, #0
41009f5c:	e49db004 	pop	{fp}		; (ldr fp, [sp], #4)
41009f60:	e12fff1e 	bx	lr
41009f64:	0000118c 	.word	0x0000118c
41009f68:	00000030 	.word	0x00000030
41009f6c:	00000090 	.word	0x00000090

41009f70 <race_ex_2>:
41009f70:	e52db004 	push	{fp}		; (str fp, [sp, #-4]!)
41009f74:	e28db000 	add	fp, sp, #0
41009f78:	e24dd014 	sub	sp, sp, #20
41009f7c:	e50b0010 	str	r0, [fp, #-16]
41009f80:	e59f3074 	ldr	r3, [pc, #116]	; 41009ffc <race_ex_2+0x8c>
41009f84:	e08f3003 	add	r3, pc, r3
41009f88:	e3a02000 	mov	r2, #0
41009f8c:	e50b2008 	str	r2, [fp, #-8]
41009f90:	ea00000f 	b	41009fd4 <race_ex_2+0x64>
41009f94:	e59f2064 	ldr	r2, [pc, #100]	; 4100a000 <race_ex_2+0x90>
41009f98:	e7932002 	ldr	r2, [r3, r2]
41009f9c:	e5922000 	ldr	r2, [r2]
41009fa0:	e2821003 	add	r1, r2, #3
41009fa4:	e59f2058 	ldr	r2, [pc, #88]	; 4100a004 <race_ex_2+0x94>
41009fa8:	e7932002 	ldr	r2, [r3, r2]
41009fac:	e5821000 	str	r1, [r2]
41009fb0:	e59f204c 	ldr	r2, [pc, #76]	; 4100a004 <race_ex_2+0x94>
41009fb4:	e7932002 	ldr	r2, [r3, r2]
41009fb8:	e5921000 	ldr	r1, [r2]
41009fbc:	e59f203c 	ldr	r2, [pc, #60]	; 4100a000 <race_ex_2+0x90>
41009fc0:	e7932002 	ldr	r2, [r3, r2]
41009fc4:	e5821000 	str	r1, [r2]
41009fc8:	e51b2008 	ldr	r2, [fp, #-8]
41009fcc:	e2822001 	add	r2, r2, #1
41009fd0:	e50b2008 	str	r2, [fp, #-8]
41009fd4:	e51b1008 	ldr	r1, [fp, #-8]
41009fd8:	e30923df 	movw	r2, #37855	; 0x93df
41009fdc:	e3402004 	movt	r2, #4
41009fe0:	e1510002 	cmp	r1, r2
41009fe4:	daffffea 	ble	41009f94 <race_ex_2+0x24>
41009fe8:	e3a03000 	mov	r3, #0
41009fec:	e1a00003 	mov	r0, r3
41009ff0:	e28bd000 	add	sp, fp, #0
41009ff4:	e49db004 	pop	{fp}		; (ldr fp, [sp], #4)
41009ff8:	e12fff1e 	bx	lr
41009ffc:	000010f4 	.word	0x000010f4
4100a000:	00000030 	.word	0x00000030
4100a004:	00000080 	.word	0x00000080

4100a008 <VPOS_SHELL>:
4100a008:	e92d4810 	push	{r4, fp, lr}
4100a00c:	e28db008 	add	fp, sp, #8
4100a010:	e24dd0ac 	sub	sp, sp, #172	; 0xac
4100a014:	e50b00b0 	str	r0, [fp, #-176]	; 0xffffff50
4100a018:	e59f415c 	ldr	r4, [pc, #348]	; 4100a17c <VPOS_SHELL+0x174>
4100a01c:	e08f4004 	add	r4, pc, r4
4100a020:	e59f3158 	ldr	r3, [pc, #344]	; 4100a180 <VPOS_SHELL+0x178>
4100a024:	e7943003 	ldr	r3, [r4, r3]
4100a028:	e5933000 	ldr	r3, [r3]
4100a02c:	e1a01003 	mov	r1, r3
4100a030:	e59f314c 	ldr	r3, [pc, #332]	; 4100a184 <VPOS_SHELL+0x17c>
4100a034:	e08f3003 	add	r3, pc, r3
4100a038:	e1a00003 	mov	r0, r3
4100a03c:	ebffea5f 	bl	410049c0 <printk>
4100a040:	e3a03000 	mov	r3, #0
4100a044:	e50b3018 	str	r3, [fp, #-24]	; 0xffffffe8
4100a048:	e3a03000 	mov	r3, #0
4100a04c:	e50b3014 	str	r3, [fp, #-20]	; 0xffffffec
4100a050:	e59f3130 	ldr	r3, [pc, #304]	; 4100a188 <VPOS_SHELL+0x180>
4100a054:	e08f3003 	add	r3, pc, r3
4100a058:	e1a00003 	mov	r0, r3
4100a05c:	ebffea57 	bl	410049c0 <printk>
4100a060:	e24b307c 	sub	r3, fp, #124	; 0x7c
4100a064:	e1a00003 	mov	r0, r3
4100a068:	ebfff70e 	bl	41007ca8 <get_cmd>
4100a06c:	e24b20a4 	sub	r2, fp, #164	; 0xa4
4100a070:	e24b307c 	sub	r3, fp, #124	; 0x7c
4100a074:	e1a01002 	mov	r1, r2
4100a078:	e1a00003 	mov	r0, r3
4100a07c:	ebffe59b 	bl	410036f0 <parse_args>
4100a080:	e50b0018 	str	r0, [fp, #-24]	; 0xffffffe8
4100a084:	e51b3018 	ldr	r3, [fp, #-24]	; 0xffffffe8
4100a088:	e3530000 	cmp	r3, #0
4100a08c:	0affffed 	beq	4100a048 <VPOS_SHELL+0x40>
4100a090:	e3a03000 	mov	r3, #0
4100a094:	e50b3010 	str	r3, [fp, #-16]
4100a098:	ea000024 	b	4100a130 <VPOS_SHELL+0x128>
4100a09c:	e51b00a4 	ldr	r0, [fp, #-164]	; 0xffffff5c
4100a0a0:	e59f30e4 	ldr	r3, [pc, #228]	; 4100a18c <VPOS_SHELL+0x184>
4100a0a4:	e7942003 	ldr	r2, [r4, r3]
4100a0a8:	e51b3010 	ldr	r3, [fp, #-16]
4100a0ac:	e3a0100c 	mov	r1, #12
4100a0b0:	e0030391 	mul	r3, r1, r3
4100a0b4:	e0823003 	add	r3, r2, r3
4100a0b8:	e5933000 	ldr	r3, [r3]
4100a0bc:	e1a01003 	mov	r1, r3
4100a0c0:	ebfff83e 	bl	410081c0 <strcmp>
4100a0c4:	e1a03000 	mov	r3, r0
4100a0c8:	e3530000 	cmp	r3, #0
4100a0cc:	1a000014 	bne	4100a124 <VPOS_SHELL+0x11c>
4100a0d0:	e59f30b4 	ldr	r3, [pc, #180]	; 4100a18c <VPOS_SHELL+0x184>
4100a0d4:	e7942003 	ldr	r2, [r4, r3]
4100a0d8:	e51b3010 	ldr	r3, [fp, #-16]
4100a0dc:	e3a0100c 	mov	r1, #12
4100a0e0:	e0030391 	mul	r3, r1, r3
4100a0e4:	e0823003 	add	r3, r2, r3
4100a0e8:	e2833008 	add	r3, r3, #8
4100a0ec:	e5932000 	ldr	r2, [r3]
4100a0f0:	e24b30a4 	sub	r3, fp, #164	; 0xa4
4100a0f4:	e2833004 	add	r3, r3, #4
4100a0f8:	e24b00ac 	sub	r0, fp, #172	; 0xac
4100a0fc:	e3a01000 	mov	r1, #0
4100a100:	ebfffa3c 	bl	410089f8 <pthread_create>
4100a104:	e59f3084 	ldr	r3, [pc, #132]	; 4100a190 <VPOS_SHELL+0x188>
4100a108:	e08f3003 	add	r3, pc, r3
4100a10c:	e1a00003 	mov	r0, r3
4100a110:	ebffea2a 	bl	410049c0 <printk>
4100a114:	ebffdd99 	bl	41001780 <vk_swi_scheduler>
4100a118:	e3a03001 	mov	r3, #1
4100a11c:	e50b3014 	str	r3, [fp, #-20]	; 0xffffffec
4100a120:	ea00000b 	b	4100a154 <VPOS_SHELL+0x14c>
4100a124:	e51b3010 	ldr	r3, [fp, #-16]
4100a128:	e2833001 	add	r3, r3, #1
4100a12c:	e50b3010 	str	r3, [fp, #-16]
4100a130:	e59f3054 	ldr	r3, [pc, #84]	; 4100a18c <VPOS_SHELL+0x184>
4100a134:	e7942003 	ldr	r2, [r4, r3]
4100a138:	e51b3010 	ldr	r3, [fp, #-16]
4100a13c:	e3a0100c 	mov	r1, #12
4100a140:	e0030391 	mul	r3, r1, r3
4100a144:	e0823003 	add	r3, r2, r3
4100a148:	e5933000 	ldr	r3, [r3]
4100a14c:	e3530000 	cmp	r3, #0
4100a150:	1affffd1 	bne	4100a09c <VPOS_SHELL+0x94>
4100a154:	e51b3014 	ldr	r3, [fp, #-20]	; 0xffffffec
4100a158:	e3530000 	cmp	r3, #0
4100a15c:	1affffb9 	bne	4100a048 <VPOS_SHELL+0x40>
4100a160:	e51b30a4 	ldr	r3, [fp, #-164]	; 0xffffff5c
4100a164:	e1a01003 	mov	r1, r3
4100a168:	e59f3024 	ldr	r3, [pc, #36]	; 4100a194 <VPOS_SHELL+0x18c>
4100a16c:	e08f3003 	add	r3, pc, r3
4100a170:	e1a00003 	mov	r0, r3
4100a174:	ebffea11 	bl	410049c0 <printk>
4100a178:	eaffffb2 	b	4100a048 <VPOS_SHELL+0x40>
4100a17c:	0000105c 	.word	0x0000105c
4100a180:	00000030 	.word	0x00000030
4100a184:	00000e04 	.word	0x00000e04
4100a188:	00000e00 	.word	0x00000e00
4100a18c:	000000a8 	.word	0x000000a8
4100a190:	00000c88 	.word	0x00000c88
4100a194:	00000cf0 	.word	0x00000cf0

4100a198 <__udivsi3>:
4100a198:	e2512001 	subs	r2, r1, #1
4100a19c:	012fff1e 	bxeq	lr
4100a1a0:	3a000036 	bcc	4100a280 <__udivsi3+0xe8>
4100a1a4:	e1500001 	cmp	r0, r1
4100a1a8:	9a000022 	bls	4100a238 <__udivsi3+0xa0>
4100a1ac:	e1110002 	tst	r1, r2
4100a1b0:	0a000023 	beq	4100a244 <__udivsi3+0xac>
4100a1b4:	e311020e 	tst	r1, #-536870912	; 0xe0000000
4100a1b8:	01a01181 	lsleq	r1, r1, #3
4100a1bc:	03a03008 	moveq	r3, #8
4100a1c0:	13a03001 	movne	r3, #1
4100a1c4:	e3510201 	cmp	r1, #268435456	; 0x10000000
4100a1c8:	31510000 	cmpcc	r1, r0
4100a1cc:	31a01201 	lslcc	r1, r1, #4
4100a1d0:	31a03203 	lslcc	r3, r3, #4
4100a1d4:	3afffffa 	bcc	4100a1c4 <__udivsi3+0x2c>
4100a1d8:	e3510102 	cmp	r1, #-2147483648	; 0x80000000
4100a1dc:	31510000 	cmpcc	r1, r0
4100a1e0:	31a01081 	lslcc	r1, r1, #1
4100a1e4:	31a03083 	lslcc	r3, r3, #1
4100a1e8:	3afffffa 	bcc	4100a1d8 <__udivsi3+0x40>
4100a1ec:	e3a02000 	mov	r2, #0
4100a1f0:	e1500001 	cmp	r0, r1
4100a1f4:	20400001 	subcs	r0, r0, r1
4100a1f8:	21822003 	orrcs	r2, r2, r3
4100a1fc:	e15000a1 	cmp	r0, r1, lsr #1
4100a200:	204000a1 	subcs	r0, r0, r1, lsr #1
4100a204:	218220a3 	orrcs	r2, r2, r3, lsr #1
4100a208:	e1500121 	cmp	r0, r1, lsr #2
4100a20c:	20400121 	subcs	r0, r0, r1, lsr #2
4100a210:	21822123 	orrcs	r2, r2, r3, lsr #2
4100a214:	e15001a1 	cmp	r0, r1, lsr #3
4100a218:	204001a1 	subcs	r0, r0, r1, lsr #3
4100a21c:	218221a3 	orrcs	r2, r2, r3, lsr #3
4100a220:	e3500000 	cmp	r0, #0
4100a224:	11b03223 	lsrsne	r3, r3, #4
4100a228:	11a01221 	lsrne	r1, r1, #4
4100a22c:	1affffef 	bne	4100a1f0 <__udivsi3+0x58>
4100a230:	e1a00002 	mov	r0, r2
4100a234:	e12fff1e 	bx	lr
4100a238:	03a00001 	moveq	r0, #1
4100a23c:	13a00000 	movne	r0, #0
4100a240:	e12fff1e 	bx	lr
4100a244:	e3510801 	cmp	r1, #65536	; 0x10000
4100a248:	21a01821 	lsrcs	r1, r1, #16
4100a24c:	23a02010 	movcs	r2, #16
4100a250:	33a02000 	movcc	r2, #0
4100a254:	e3510c01 	cmp	r1, #256	; 0x100
4100a258:	21a01421 	lsrcs	r1, r1, #8
4100a25c:	22822008 	addcs	r2, r2, #8
4100a260:	e3510010 	cmp	r1, #16
4100a264:	21a01221 	lsrcs	r1, r1, #4
4100a268:	22822004 	addcs	r2, r2, #4
4100a26c:	e3510004 	cmp	r1, #4
4100a270:	82822003 	addhi	r2, r2, #3
4100a274:	908220a1 	addls	r2, r2, r1, lsr #1
4100a278:	e1a00230 	lsr	r0, r0, r2
4100a27c:	e12fff1e 	bx	lr
4100a280:	e3500000 	cmp	r0, #0
4100a284:	13e00000 	mvnne	r0, #0
4100a288:	ea000007 	b	4100a2ac <__aeabi_idiv0>

4100a28c <__aeabi_uidivmod>:
4100a28c:	e3510000 	cmp	r1, #0
4100a290:	0afffffa 	beq	4100a280 <__udivsi3+0xe8>
4100a294:	e92d4003 	push	{r0, r1, lr}
4100a298:	ebffffbe 	bl	4100a198 <__udivsi3>
4100a29c:	e8bd4006 	pop	{r1, r2, lr}
4100a2a0:	e0030092 	mul	r3, r2, r0
4100a2a4:	e0411003 	sub	r1, r1, r3
4100a2a8:	e12fff1e 	bx	lr

4100a2ac <__aeabi_idiv0>:
4100a2ac:	e12fff1e 	bx	lr

4100a2b0 <memcpy>:
4100a2b0:	e352000f 	cmp	r2, #15
4100a2b4:	9a000036 	bls	4100a394 <memcpy+0xe4>
4100a2b8:	e1803001 	orr	r3, r0, r1
4100a2bc:	e3130003 	tst	r3, #3
4100a2c0:	1a00003f 	bne	4100a3c4 <memcpy+0x114>
4100a2c4:	e242c010 	sub	ip, r2, #16
4100a2c8:	e92d40f0 	push	{r4, r5, r6, r7, lr}
4100a2cc:	e2814020 	add	r4, r1, #32
4100a2d0:	e3cce00f 	bic	lr, ip, #15
4100a2d4:	e2813010 	add	r3, r1, #16
4100a2d8:	e2806010 	add	r6, r0, #16
4100a2dc:	e084400e 	add	r4, r4, lr
4100a2e0:	e1a0522c 	lsr	r5, ip, #4
4100a2e4:	e513e00c 	ldr	lr, [r3, #-12]
4100a2e8:	e513c008 	ldr	ip, [r3, #-8]
4100a2ec:	e5137010 	ldr	r7, [r3, #-16]
4100a2f0:	e506e00c 	str	lr, [r6, #-12]
4100a2f4:	e2833010 	add	r3, r3, #16
4100a2f8:	e513e014 	ldr	lr, [r3, #-20]	; 0xffffffec
4100a2fc:	e1530004 	cmp	r3, r4
4100a300:	e9065000 	stmdb	r6, {ip, lr}
4100a304:	e5067010 	str	r7, [r6, #-16]
4100a308:	e2866010 	add	r6, r6, #16
4100a30c:	1afffff4 	bne	4100a2e4 <memcpy+0x34>
4100a310:	e285c001 	add	ip, r5, #1
4100a314:	e312000c 	tst	r2, #12
4100a318:	e202300f 	and	r3, r2, #15
4100a31c:	e081120c 	add	r1, r1, ip, lsl #4
4100a320:	01a02003 	moveq	r2, r3
4100a324:	e080c20c 	add	ip, r0, ip, lsl #4
4100a328:	0a00000d 	beq	4100a364 <memcpy+0xb4>
4100a32c:	e1a04001 	mov	r4, r1
4100a330:	e2433004 	sub	r3, r3, #4
4100a334:	e3c36003 	bic	r6, r3, #3
4100a338:	e1a0e123 	lsr	lr, r3, #2
4100a33c:	e08c6006 	add	r6, ip, r6
4100a340:	e24c3004 	sub	r3, ip, #4
4100a344:	e4945004 	ldr	r5, [r4], #4
4100a348:	e5a35004 	str	r5, [r3, #4]!
4100a34c:	e1530006 	cmp	r3, r6
4100a350:	1afffffb 	bne	4100a344 <memcpy+0x94>
4100a354:	e28e3001 	add	r3, lr, #1
4100a358:	e2022003 	and	r2, r2, #3
4100a35c:	e08cc103 	add	ip, ip, r3, lsl #2
4100a360:	e0811103 	add	r1, r1, r3, lsl #2
4100a364:	e3520000 	cmp	r2, #0
4100a368:	e2423001 	sub	r3, r2, #1
4100a36c:	12833001 	addne	r3, r3, #1
4100a370:	124c2001 	subne	r2, ip, #1
4100a374:	10813003 	addne	r3, r1, r3
4100a378:	0a000003 	beq	4100a38c <memcpy+0xdc>
4100a37c:	e4d1c001 	ldrb	ip, [r1], #1
4100a380:	e1510003 	cmp	r1, r3
4100a384:	e5e2c001 	strb	ip, [r2, #1]!
4100a388:	1afffffb 	bne	4100a37c <memcpy+0xcc>
4100a38c:	e8bd40f0 	pop	{r4, r5, r6, r7, lr}
4100a390:	e12fff1e 	bx	lr
4100a394:	e3520000 	cmp	r2, #0
4100a398:	e1a0c000 	mov	ip, r0
4100a39c:	e2423001 	sub	r3, r2, #1
4100a3a0:	012fff1e 	bxeq	lr
4100a3a4:	e2833001 	add	r3, r3, #1
4100a3a8:	e24c2001 	sub	r2, ip, #1
4100a3ac:	e0813003 	add	r3, r1, r3
4100a3b0:	e4d1c001 	ldrb	ip, [r1], #1
4100a3b4:	e1510003 	cmp	r1, r3
4100a3b8:	e5e2c001 	strb	ip, [r2, #1]!
4100a3bc:	1afffffb 	bne	4100a3b0 <memcpy+0x100>
4100a3c0:	e12fff1e 	bx	lr
4100a3c4:	e1a0c000 	mov	ip, r0
4100a3c8:	e2423001 	sub	r3, r2, #1
4100a3cc:	eafffff4 	b	4100a3a4 <memcpy+0xf4>

4100a3d0 <memset>:
4100a3d0:	e3100003 	tst	r0, #3
4100a3d4:	0a000040 	beq	4100a4dc <memset+0x10c>
4100a3d8:	e3520000 	cmp	r2, #0
4100a3dc:	e2422001 	sub	r2, r2, #1
4100a3e0:	012fff1e 	bxeq	lr
4100a3e4:	e1a03000 	mov	r3, r0
4100a3e8:	e201c0ff 	and	ip, r1, #255	; 0xff
4100a3ec:	ea000002 	b	4100a3fc <memset+0x2c>
4100a3f0:	e2422001 	sub	r2, r2, #1
4100a3f4:	e3720001 	cmn	r2, #1
4100a3f8:	012fff1e 	bxeq	lr
4100a3fc:	e4c3c001 	strb	ip, [r3], #1
4100a400:	e3130003 	tst	r3, #3
4100a404:	1afffff9 	bne	4100a3f0 <memset+0x20>
4100a408:	e3520003 	cmp	r2, #3
4100a40c:	9a000028 	bls	4100a4b4 <memset+0xe4>
4100a410:	e92d4030 	push	{r4, r5, lr}
4100a414:	e201e0ff 	and	lr, r1, #255	; 0xff
4100a418:	e18ee40e 	orr	lr, lr, lr, lsl #8
4100a41c:	e352000f 	cmp	r2, #15
4100a420:	e18ee80e 	orr	lr, lr, lr, lsl #16
4100a424:	9a00002e 	bls	4100a4e4 <memset+0x114>
4100a428:	e242c010 	sub	ip, r2, #16
4100a42c:	e3cc400f 	bic	r4, ip, #15
4100a430:	e2835020 	add	r5, r3, #32
4100a434:	e0855004 	add	r5, r5, r4
4100a438:	e1a0422c 	lsr	r4, ip, #4
4100a43c:	e283c010 	add	ip, r3, #16
4100a440:	e50ce010 	str	lr, [ip, #-16]
4100a444:	e50ce00c 	str	lr, [ip, #-12]
4100a448:	e50ce008 	str	lr, [ip, #-8]
4100a44c:	e50ce004 	str	lr, [ip, #-4]
4100a450:	e28cc010 	add	ip, ip, #16
4100a454:	e15c0005 	cmp	ip, r5
4100a458:	1afffff8 	bne	4100a440 <memset+0x70>
4100a45c:	e284c001 	add	ip, r4, #1
4100a460:	e312000c 	tst	r2, #12
4100a464:	e083c20c 	add	ip, r3, ip, lsl #4
4100a468:	e202200f 	and	r2, r2, #15
4100a46c:	0a000018 	beq	4100a4d4 <memset+0x104>
4100a470:	e2423004 	sub	r3, r2, #4
4100a474:	e3c33003 	bic	r3, r3, #3
4100a478:	e2833004 	add	r3, r3, #4
4100a47c:	e08c3003 	add	r3, ip, r3
4100a480:	e48ce004 	str	lr, [ip], #4
4100a484:	e153000c 	cmp	r3, ip
4100a488:	1afffffc 	bne	4100a480 <memset+0xb0>
4100a48c:	e2022003 	and	r2, r2, #3
4100a490:	e3520000 	cmp	r2, #0
4100a494:	0a000004 	beq	4100a4ac <memset+0xdc>
4100a498:	e20110ff 	and	r1, r1, #255	; 0xff
4100a49c:	e0832002 	add	r2, r3, r2
4100a4a0:	e4c31001 	strb	r1, [r3], #1
4100a4a4:	e1520003 	cmp	r2, r3
4100a4a8:	1afffffc 	bne	4100a4a0 <memset+0xd0>
4100a4ac:	e8bd4030 	pop	{r4, r5, lr}
4100a4b0:	e12fff1e 	bx	lr
4100a4b4:	e3520000 	cmp	r2, #0
4100a4b8:	012fff1e 	bxeq	lr
4100a4bc:	e20110ff 	and	r1, r1, #255	; 0xff
4100a4c0:	e0832002 	add	r2, r3, r2
4100a4c4:	e4c31001 	strb	r1, [r3], #1
4100a4c8:	e1520003 	cmp	r2, r3
4100a4cc:	1afffffc 	bne	4100a4c4 <memset+0xf4>
4100a4d0:	e12fff1e 	bx	lr
4100a4d4:	e1a0300c 	mov	r3, ip
4100a4d8:	eaffffec 	b	4100a490 <memset+0xc0>
4100a4dc:	e1a03000 	mov	r3, r0
4100a4e0:	eaffffc8 	b	4100a408 <memset+0x38>
4100a4e4:	e1a0c003 	mov	ip, r3
4100a4e8:	eaffffe0 	b	4100a470 <memset+0xa0>
